 ck°²È«Íø

 Timestamp is 624c0bd8 (Tue Apr 05 17:28:56 2022)

 Preferred load address is 00400000

 Start         Length     Name                   Class
 0001:00000000 001f5a0bH .text                   CODE
 0001:001f5a0b 000015a1H .text$AFX_AUX           CODE
 0001:001f6fac 000012f8H .text$AFX_CMNCTL        CODE
 0001:001f82a4 00000910H .text$AFX_COL1          CODE
 0001:001f8bb4 00000682H .text$AFX_COL2          CODE
 0001:001f9236 00008406H .text$AFX_CORE1         CODE
 0001:0020163c 00004b91H .text$AFX_CORE2         CODE
 0001:002061cd 000062e1H .text$AFX_CORE3         CODE
 0001:0020c4ae 000060bdH .text$AFX_CORE4         CODE
 0001:0021256b 0000111aH .text$AFX_INET          CODE
 0001:00213685 00003edfH .text$AFX_INIT          CODE
 0001:00217564 0000061dH .text$AFX_OLE1          CODE
 0001:00217b81 00000222H .text$AFX_OLE2          CODE
 0001:00217da3 00000555H .text$AFX_OLE3          CODE
 0001:002182f8 00000ba6H .text$AFX_OLE4          CODE
 0001:00218e9e 0000183bH .text$AFX_OLE5          CODE
 0001:0021a6d9 00000000H .text$AFX_PRNT          CODE
 0001:0021a6d9 00000266H .text$AFX_TERM          CODE
 0001:0021a940 000150a2H .text$x                 CODE
 0002:00000000 00002e50H .rodata                 CODE
 0003:00000000 0001b257H .rotext                 CODE
 0004:00000000 00041750H .rdata                  DATA
 0004:00041750 00004484H .rdata$r                DATA
 0004:00045bd8 0001be10H .xdata$x                DATA
 0004:000619e8 00000000H .edata                  DATA
 0005:00000000 00000004H .CRT$XCA                DATA
 0005:00000004 00000030H .CRT$XCC                DATA
 0005:00000034 0000001cH .CRT$XCL                DATA
 0005:00000050 000006b4H .CRT$XCU                DATA
 0005:00000704 00000004H .CRT$XCZ                DATA
 0005:00000708 00000004H .CRT$XIA                DATA
 0005:0000070c 0000000cH .CRT$XIC                DATA
 0005:00000718 00000004H .CRT$XIY                DATA
 0005:0000071c 00000004H .CRT$XIZ                DATA
 0005:00000720 00000004H .CRT$XPA                DATA
 0005:00000724 00000004H .CRT$XPX                DATA
 0005:00000728 00000004H .CRT$XPZ                DATA
 0005:0000072c 00000004H .CRT$XTA                DATA
 0005:00000730 00000004H .CRT$XTB                DATA
 0005:00000734 00000004H .CRT$XTZ                DATA
 0005:00000740 00189231H .data                   DATA
 0005:00189978 00074650H .bss                    DATA
 0006:00000000 000001a4H .idata$2                DATA
 0006:000001a4 00000014H .idata$3                DATA
 0006:000001b8 00000ac8H .idata$4                DATA
 0006:00000c80 00000ac8H .idata$5                DATA
 0006:00001748 00002bc8H .idata$6                DATA
 0007:00000000 0000bc84H .rsrc$01                DATA
 0007:0000bc90 0027c400H .rsrc$02                DATA

  Address         Publics by Value              Rva+Base     Lib:Object

 0001:00000000       ??0CAudio@@QAE@XZ          00401000 f   Audio.obj
 0001:000000bf       ??1CAudio@@UAE@XZ          004010bf f   Audio.obj
 0001:00000187       ?getRecordBuffer@CAudio@@QAEPAEPAK@Z 00401187 f   Audio.obj
 0001:000001cb       ?playBuffer@CAudio@@QAE_NPAEK@Z 004011cb f   Audio.obj
 0001:00000233       ?InitializeWaveIn@CAudio@@AAE_NXZ 00401233 f   Audio.obj
 0001:000002f0       ?FindMixernIndex@@YAHPAD@Z 004012f0 f   Audio.obj
 0001:0000040e       ?ActiveMixerInputChannel@CAudio@@QAE_NPADH@Z 0040140e f   Audio.obj
 0001:00000621       ?EnumerateInputLines@CAudio@@QAEHPAD0@Z 00401621 f   Audio.obj
 0001:0000095f       ?SetDeviceType@CAudio@@QAEXPAUtWAVEFORMATEX@@@Z 0040195f f   Audio.obj
 0001:0000099c       ?InitializeWaveOut@CAudio@@AAE_NXZ 0040199c f   Audio.obj
 0001:00000a37       ?waveInCallBack@CAudio@@CGKPAX@Z 00401a37 f   Audio.obj
 0001:00000ac9       ?Compress@CAudio@@QAEHPAD0H@Z 00401ac9 f   Audio.obj
 0001:00000b15       ?DeCompress@CAudio@@QAEHPAD0H@Z 00401b15 f   Audio.obj
 0001:00000b64       ??_GCAudio@@UAEPAXI@Z      00401b64 f i Audio.obj
 0001:00000b64       ??_ECAudio@@UAEPAXI@Z      00401b64 f i Audio.obj
 0001:00000bfe       ??0CAudioDlg@@QAE@PAVCWnd@@PAVCIOCPServer@@PAUClientContext@@@Z 00401bfe f   AudioDlg.obj
 0001:00000d48       ?DoDataExchange@CAudioDlg@@MAEXPAVCDataExchange@@@Z 00401d48 f   AudioDlg.obj
 0001:00000dac       ?GetMessageMap@CAudioDlg@@MBEPBUAFX_MSGMAP@@XZ 00401dac f   AudioDlg.obj
 0001:00000db2       ?OnInitDialog@CAudioDlg@@MAEHXZ 00401db2 f   AudioDlg.obj
 0001:00000ff8       ?ShowLinesCombox@CAudioDlg@@QAEXVCString@@H@Z 00401ff8 f   AudioDlg.obj
 0001:000010ec       ?OnReceiveComplete@CAudioDlg@@QAEXXZ 004020ec f   AudioDlg.obj
 0001:00001231       ?OnClose@CAudioDlg@@IAEXXZ 00402231 f   AudioDlg.obj
 0001:00001283       ?OnSendLocalaudio@CAudioDlg@@IAEXXZ 00402283 f   AudioDlg.obj
 0001:0000128b       ?WorkThread@CAudioDlg@@KGKPAX@Z 0040228b f   AudioDlg.obj
 0001:000013b5       ?OnCheckRec@CAudioDlg@@IAEXXZ 004023b5 f   AudioDlg.obj
 0001:0000153d       ?OnSelchangeComboDriveIn@CAudioDlg@@IAEXXZ 0040253d f   AudioDlg.obj
 0001:000015f2       ?OnSelchangeComboInputlines@CAudioDlg@@IAEXXZ 004025f2 f   AudioDlg.obj
 0001:000016b2       ?PostNcDestroy@CAudioDlg@@MAEXXZ 004026b2 f   AudioDlg.obj
 0001:000016d9       ?BeginModalState@CWnd@@UAEXXZ 004026d9 f i AudioDlg.obj
 0001:000016e5       ?EndModalState@CWnd@@UAEXXZ 004026e5 f i AudioDlg.obj
 0001:000016f1       ??_ECComboBox@@UAEPAXI@Z   004026f1 f i AudioDlg.obj
 0001:000016f1       ??_GCComboBox@@UAEPAXI@Z   004026f1 f i AudioDlg.obj
 0001:0000170d       ??_GCAudioDlg@@UAEPAXI@Z   0040270d f i AudioDlg.obj
 0001:0000170d       ??_ECAudioDlg@@UAEPAXI@Z   0040270d f i AudioDlg.obj
 0001:00001729       ??1CAudioDlg@@UAE@XZ       00402729 f i AudioDlg.obj
 0001:000017bb       ??1CFileDialog@@UAE@XZ     004027bb f i AudioDlg.obj
 0001:000017f3       ??0CBmpToAvi@@QAE@XZ       004027f3 f   BmpToAvi.obj
 0001:0000180d       ??1CBmpToAvi@@UAE@XZ       0040280d f   BmpToAvi.obj
 0001:00001818       ?Open@CBmpToAvi@@QAE_NPBDPAUtagBITMAPINFO@@@Z 00402818 f   BmpToAvi.obj
 0001:000018b4       ?Write@CBmpToAvi@@QAE_NPAX@Z 004028b4 f   BmpToAvi.obj
 0001:000018f1       ?Close@CBmpToAvi@@QAEXXZ   004028f1 f   BmpToAvi.obj
 0001:00001918       ??_ECBmpToAvi@@UAEPAXI@Z   00402918 f i BmpToAvi.obj
 0001:00001918       ??_GCBmpToAvi@@UAEPAXI@Z   00402918 f i BmpToAvi.obj
 0001:000019b2       ??0CBuffer@@QAE@XZ         004029b2 f   Buffer.obj
 0001:000019c6       ??1CBuffer@@UAE@XZ         004029c6 f   Buffer.obj
 0001:000019e2       ?Write@CBuffer@@QAEHPAEI@Z 004029e2 f   Buffer.obj
 0001:00001a1a       ?Insert@CBuffer@@QAEHPAEI@Z 00402a1a f   Buffer.obj
 0001:00001a6b       ?Read@CBuffer@@QAEIPAEI@Z  00402a6b f   Buffer.obj
 0001:00001aeb       ?GetMemSize@CBuffer@@IAEIXZ 00402aeb f   Buffer.obj
 0001:00001aef       ?GetBufferLen@CBuffer@@QAEIXZ 00402aef f   Buffer.obj
 0001:00001aff       ?ReAllocateBuffer@CBuffer@@IAEII@Z 00402aff f   Buffer.obj
 0001:00001bbb       ?DeAllocateBuffer@CBuffer@@IAEII@Z 00402bbb f   Buffer.obj
 0001:00001c7a       ?Scan@CBuffer@@QAEHPAEI@Z  00402c7a f   Buffer.obj
 0001:00001cbe       ?ClearBuffer@CBuffer@@QAEXXZ 00402cbe f   Buffer.obj
 0001:00001ce4       ?Write@CBuffer@@QAEHAAVCString@@@Z 00402ce4 f   Buffer.obj
 0001:00001d03       ?Insert@CBuffer@@QAEHAAVCString@@@Z 00402d03 f   Buffer.obj
 0001:00001d22       ?Copy@CBuffer@@QAEXAAV1@@Z 00402d22 f   Buffer.obj
 0001:00001d81       ?GetBuffer@CBuffer@@QAEPAEI@Z 00402d81 f   Buffer.obj
 0001:00001d8b       ?FileWrite@CBuffer@@QAEXABVCString@@@Z 00402d8b f   Buffer.obj
 0001:00001df6       ?Delete@CBuffer@@QAEII@Z   00402df6 f   Buffer.obj
 0001:00001e58       ??_GCBuffer@@UAEPAXI@Z     00402e58 f i Buffer.obj
 0001:00001e58       ??_ECBuffer@@UAEPAXI@Z     00402e58 f i Buffer.obj
 0001:00001ef2       ??0CBuildDlg@@QAE@PAVCWnd@@@Z 00402ef2 f   BuildDlg.obj
 0001:00002222       ?DoDataExchange@CBuildDlg@@MAEXPAVCDataExchange@@@Z 00403222 f   BuildDlg.obj
 0001:00002315       ?GetMessageMap@CBuildDlg@@MBEPBUAFX_MSGMAP@@XZ 00403315 f   BuildDlg.obj
 0001:0000231b       ?LogOut@CBuildDlg@@IAEXPBD@Z 0040331b f   BuildDlg.obj
 0001:00002360       ?MemFindStr@@YAHPBD0HH@Z   00403360 f   BuildDlg.obj
 0001:000023b0       ?OnInitDialog@CBuildDlg@@MAEHXZ 004033b0 f   BuildDlg.obj
 0001:00002663       ?memfind@@YAHPBD0HH@Z      00403663 f   BuildDlg.obj
 0001:000026b3       ?ReplaceExeIco@@YAXPBD0@Z  004036b3 f   BuildDlg.obj
 0001:000027dc       ?OnCtlColor@CBuildDlg@@IAEPAUHBRUSH__@@PAVCDC@@PAVCWnd@@I@Z 004037dc f   BuildDlg.obj
 0001:0000282e       ?CreateServer@CBuildDlg@@IAEHPAUDLL_INFO@@PAD1@Z 0040382e f   BuildDlg.obj
 0001:00002901       ?CreateLink@@YAHPAD0PBDG@Z 00403901 f   BuildDlg.obj
 0001:000029b2       ?OnOK@CBuildDlg@@MAEXXZ    004039b2 f   BuildDlg.obj
 0001:000031b0       ?OnCheckNoinstall@CBuildDlg@@IAEXXZ 004041b0 f   BuildDlg.obj
 0001:0000323a       ?OnPaint@CBuildDlg@@IAEXXZ 0040423a f   BuildDlg.obj
 0001:00003253       ?OnButtonTestConnect@CBuildDlg@@IAEXXZ 00404253 f   BuildDlg.obj
 0001:000032c8       ?TestMaster@CBuildDlg@@QAEXPADI@Z 004042c8 f   BuildDlg.obj
 0001:0000343d       ?GetRandChar@@YADHH@Z      0040443d f   BuildDlg.obj
 0001:00003470       ?OnRandom@CBuildDlg@@IAEXXZ 00404470 f   BuildDlg.obj
 0001:000035cb       ?OnPattern@CBuildDlg@@IAEXXZ 004045cb f   BuildDlg.obj
 0001:00003602       ?CheckFileExist@@YAHPBD@Z  00404602 f   BuildDlg.obj
 0001:00003623       ?OpenFile@@YA_NPBDH@Z      00404623 f   BuildDlg.obj
 0001:000037ab       ?OnKbtest@CBuildDlg@@IAEXXZ 004047ab f   BuildDlg.obj
 0001:000038ad       ?OnKbcheck@CBuildDlg@@IAEXXZ 004048ad f   BuildDlg.obj
 0001:00003905       ?AfxGetApp@@YGPAVCWinApp@@XZ 00404905 f i BuildDlg.obj
 0001:0000390e       ??_GCEdit@@UAEPAXI@Z       0040490e f i BuildDlg.obj
 0001:0000390e       ??_ECEdit@@UAEPAXI@Z       0040490e f i BuildDlg.obj
 0001:0000392a       ??_GCBuildDlg@@UAEPAXI@Z   0040492a f i BuildDlg.obj
 0001:0000392a       ??_ECBuildDlg@@UAEPAXI@Z   0040492a f i BuildDlg.obj
 0001:00003946       ??1CBuildDlg@@UAE@XZ       00404946 f i BuildDlg.obj
 0001:00003a65       ??0CChangeGroupDlg@@QAE@PAVCWnd@@@Z 00404a65 f   ChangeGroupDlg.obj
 0001:00003ab1       ?DoDataExchange@CChangeGroupDlg@@MAEXPAVCDataExchange@@@Z 00404ab1 f   ChangeGroupDlg.obj
 0001:00003ac6       ?GetMessageMap@CChangeGroupDlg@@MBEPBUAFX_MSGMAP@@XZ 00404ac6 f   ChangeGroupDlg.obj
 0001:00003acc       ?OnInitDialog@CChangeGroupDlg@@MAEHXZ 00404acc f   ChangeGroupDlg.obj
 0001:00003beb       ?OnOK@CChangeGroupDlg@@MAEXXZ 00404beb f   ChangeGroupDlg.obj
 0001:00003d0a       ??_ECChangeGroupDlg@@UAEPAXI@Z 00404d0a f i ChangeGroupDlg.obj
 0001:00003d0a       ??_GCChangeGroupDlg@@UAEPAXI@Z 00404d0a f i ChangeGroupDlg.obj
 0001:00003d26       ??1CChangeGroupDlg@@UAE@XZ 00404d26 f i ChangeGroupDlg.obj
 0001:00003deb       ?dbg_dump@@YAXPAU_EXCEPTION_POINTERS@@@Z 00404deb f   Client.obj
 0001:00003e7b       ?bad_exception@@YGJPAU_EXCEPTION_POINTERS@@@Z 00404e7b f   Client.obj
 0001:00003e8b       ?GetMessageMap@CClientApp@@MBEPBUAFX_MSGMAP@@XZ 00404e8b f   Client.obj
 0001:00003e91       ?GetRand@CClientApp@@QAEKXZ 00404e91 f   Client.obj
 0001:00003ea9       ??0CClientApp@@QAE@XZ      00404ea9 f   Client.obj
 0001:00004031       ?InitInstance@CClientApp@@UAEHXZ 00405031 f   Client.obj
 0001:000042a1       ??0CAboutDlg@@QAE@XZ       004052a1 f   Client.obj
 0001:000042b7       ?DoDataExchange@CAboutDlg@@MAEXPAVCDataExchange@@@Z 004052b7 f   Client.obj
 0001:000042ba       ?GetMessageMap@CAboutDlg@@MBEPBUAFX_MSGMAP@@XZ 004052ba f   Client.obj
 0001:000042c0       ?OnAppAbout@CClientApp@@QAEXXZ 004052c0 f   Client.obj
 0001:000042f9       ?ExitInstance@CClientApp@@UAEHXZ 004052f9 f   Client.obj
 0001:000042fe       ??_GCClientApp@@UAEPAXI@Z  004052fe f i Client.obj
 0001:000042fe       ??_ECClientApp@@UAEPAXI@Z  004052fe f i Client.obj
 0001:0000431a       ??1CClientApp@@UAE@XZ      0040531a f i Client.obj
 0001:00004352       ??3CObject@@SGXPAX@Z       00405352 f i Client.obj
 0001:0000435f       ??1CSettingDlg@@UAE@XZ     0040535f f i Client.obj
 0001:0000435f       ??1CAboutDlg@@UAE@XZ       0040535f f i Client.obj
 0001:0000435f       ??1CCommonDialog@@UAE@XZ   0040535f f i Client.obj
 0001:000043e2       ?CreateObject@CClientDoc@@SGPAVCObject@@XZ 004053e2 f   ClientDoc.obj
 0001:00004414       ?GetRuntimeClass@CClientDoc@@UBEPAUCRuntimeClass@@XZ 00405414 f   ClientDoc.obj
 0001:0000441a       ?GetMessageMap@CClientDoc@@MBEPBUAFX_MSGMAP@@XZ 0040541a f   ClientDoc.obj
 0001:00004420       ??0CClientDoc@@IAE@XZ      00405420 f   ClientDoc.obj
 0001:00004432       ??1CClientDoc@@UAE@XZ      00405432 f   ClientDoc.obj
 0001:0000443d       ?Serialize@CClientDoc@@UAEXAAVCArchive@@@Z 0040543d f   ClientDoc.obj
 0001:00004440       ?IsModified@CDocument@@UAEHXZ 00405440 f i ClientDoc.obj
 0001:00004444       ?SetModifiedFlag@CDocument@@UAEXH@Z 00405444 f i ClientDoc.obj
 0001:0000444e       ??_ECClientDoc@@UAEPAXI@Z  0040544e f i ClientDoc.obj
 0001:0000444e       ??_GCClientDoc@@UAEPAXI@Z  0040544e f i ClientDoc.obj
 0001:000044e8       ?CreateObject@CClientView@@SGPAVCObject@@XZ 004054e8 f   ClientView.obj
 0001:0000451d       ?GetRuntimeClass@CClientView@@UBEPAUCRuntimeClass@@XZ 0040551d f   ClientView.obj
 0001:00004523       ?GetMessageMap@CClientView@@MBEPBUAFX_MSGMAP@@XZ 00405523 f   ClientView.obj
 0001:00004529       ??0CClientView@@IAE@XZ     00405529 f   ClientView.obj
 0001:000045c7       ??1CClientView@@UAE@XZ     004055c7 f   ClientView.obj
 0001:00004617       ?PreCreateWindow@CClientView@@UAEHAAUtagCREATESTRUCTA@@@Z 00405617 f   ClientView.obj
 0001:00004628       ?OnDraw@CClientView@@UAEXPAVCDC@@@Z 00405628 f   ClientView.obj
 0001:0000462b       ?OnCreate@CClientView@@IAEHPAUtagCREATESTRUCTA@@@Z 0040562b f   ClientView.obj
 0001:000046c9       ?AddGroup@CClientView@@QAEHPBD@Z 004056c9 f   ClientView.obj
 0001:000046da       ?AddView@CClientView@@QAEHPAUCRuntimeClass@@PBD@Z 004056da f   ClientView.obj
 0001:000047c8       ?UpdateDocTitle@CClientView@@QAEXXZ 004057c8 f   ClientView.obj
 0001:000047d3       ?OnSelectedChanged@CClientView@@IAEXPAUtagNMHDR@@PAJ@Z 004057d3 f   ClientView.obj
 0001:00004819       ?OnAddFindGroup@CClientView@@IAEJIJ@Z 00405819 f   ClientView.obj
 0001:00004a1f       ?UpDateNumber@CClientView@@QAEHXZ 00405a1f f   ClientView.obj
 0001:00004b85       ?OnEraseBkgnd@CClientView@@IAEHPAVCDC@@@Z 00405b85 f   ClientView.obj
 0001:00004b8b       ?OnContextMenu@CClientView@@IAEXPAVCWnd@@VCPoint@@@Z 00405b8b f   ClientView.obj
 0001:00004caf       ?OnSize@CClientView@@IAEXIHH@Z 00405caf f   ClientView.obj
 0001:00004cda       ?OnMenuitemGroupAdd@CClientView@@IAEXXZ 00405cda f   ClientView.obj
 0001:00004eb2       ?OnMenuitemGroupDel@CClientView@@IAEXXZ 00405eb2 f   ClientView.obj
 0001:00004fd3       ?OnMenuitemChange@CClientView@@IAEXXZ 00405fd3 f   ClientView.obj
 0001:000051cd       ?OnMenuitemSelectNum@CClientView@@IAEXXZ 004061cd f   ClientView.obj
 0001:000052b0       ??_GCClientView@@UAEPAXI@Z 004062b0 f i ClientView.obj
 0001:000052b0       ??_ECClientView@@UAEPAXI@Z 004062b0 f i ClientView.obj
 0001:000052cc       ??1AFX_EXCEPTION_LINK@@QAE@XZ 004062cc f i ClientView.obj
 0001:000052d1       ??_ECMenu@@UAEPAXI@Z       004062d1 f i ClientView.obj
 0001:000052d1       ??_GCMenu@@UAEPAXI@Z       004062d1 f i ClientView.obj
 0001:000052ed       ??1CMenu@@UAE@XZ           004062ed f i ClientView.obj
 0001:00005316       ?LoadMenuA@CMenu@@QAEHI@Z  00406316 f i ClientView.obj
 0001:0000533a       ??0CInputDialog@@QAE@XZ    0040633a f i ClientView.obj
 0001:00005382       ??1CInputDialog@@UAE@XZ    00406382 f i ClientView.obj
 0001:000053cc       ?DoDataExchange@CInputDialog@@MAEXPAVCDataExchange@@@Z 004063cc f i ClientView.obj
 0001:000053de       ??_ECInputDialog@@UAEPAXI@Z 004063de f i ClientView.obj
 0001:000053de       ??_GCInputDialog@@UAEPAXI@Z 004063de f i ClientView.obj
 0001:00005478       ??0CDialogbar@@QAE@PAVCWnd@@PAUClientContext@@@Z 00406478 f   Dialogbar.obj
 0001:0000552f       ?DoDataExchange@CDialogbar@@MAEXPAVCDataExchange@@@Z 0040652f f   Dialogbar.obj
 0001:00005547       ?GetMessageMap@CDialogbar@@MBEPBUAFX_MSGMAP@@XZ 00406547 f   Dialogbar.obj
 0001:0000554d       ?GetUpdateInfo@@YAHPAD000@Z 0040654d f   Dialogbar.obj
 0001:0000560e       ?htmlmap@CDialogbar@@QAE?AVCString@@XZ 0040660e f   Dialogbar.obj
 0001:0000587e       ?ConvUtf8ToAnsi@@YAHAAVCString@@0@Z 0040687e f   Dialogbar.obj
 0001:00005989       ?OnInitDialog@CDialogbar@@IAEJIJ@Z 00406989 f   Dialogbar.obj
 0001:00005c98       ?DeleteList@CDialogbar@@QAEXXZ 00406c98 f   Dialogbar.obj
 0001:00005ce9       ?ShowSysinfoList@CDialogbar@@QAEXPAUClientContext@@@Z 00406ce9 f   Dialogbar.obj
 0001:000062cf       ?ShowSysinfoListDel@CDialogbar@@QAEXXZ 004072cf f   Dialogbar.obj
 0001:000063b1       ??_GCListCtrl@@UAEPAXI@Z   004073b1 f i Dialogbar.obj
 0001:000063b1       ??_ECListCtrl@@UAEPAXI@Z   004073b1 f i Dialogbar.obj
 0001:000063cd       ??_GCDialogbar@@UAEPAXI@Z  004073cd f i Dialogbar.obj
 0001:000063cd       ??_ECDialogbar@@UAEPAXI@Z  004073cd f i Dialogbar.obj
 0001:000063e9       ??1CHtmlCtrl@@UAE@XZ       004073e9 f i Dialogbar.obj
 0001:000063e9       ??1CMyHtmlCtrl@@UAE@XZ     004073e9 f i Dialogbar.obj
 0001:000063f4       ??1CDialogbar@@UAE@XZ      004073f4 f i Dialogbar.obj
 0001:000064ad       ??_GCMyHtmlCtrl@@UAEPAXI@Z 004074ad f i Dialogbar.obj
 0001:000064ad       ??_ECMyHtmlCtrl@@UAEPAXI@Z 004074ad f i Dialogbar.obj
 0001:000064ad       ??_GCHtmlCtrl@@UAEPAXI@Z   004074ad f i Dialogbar.obj
 0001:000064ad       ??_ECHtmlCtrl@@UAEPAXI@Z   004074ad f i Dialogbar.obj
 0001:00006547       ??0CFileManagerDlg@@QAE@PAVCWnd@@PAVCIOCPServer@@PAUClientContext@@@Z 00407547 f   FileManagerDlg.obj
 0001:0000681c       ?DoDataExchange@CFileManagerDlg@@MAEXPAVCDataExchange@@@Z 0040781c f   FileManagerDlg.obj
 0001:0000684d       ?GetMessageMap@CFileManagerDlg@@MBEPBUAFX_MSGMAP@@XZ 0040784d f   FileManagerDlg.obj
 0001:00006853       ?GetIconIndex@@YAHPBDK@Z   00407853 f   FileManagerDlg.obj
 0001:00006890       ?SortColumn1@CFileManagerDlg@@IAEXH_N@Z 00407890 f   FileManagerDlg.obj
 0001:000068f4       ?SortColumn2@CFileManagerDlg@@IAEXH_N@Z 004078f4 f   FileManagerDlg.obj
 0001:0000690b       ?SortColumn3@CFileManagerDlg@@IAEXH_N@Z 0040790b f   FileManagerDlg.obj
 0001:00006922       ?SortColumn4@CFileManagerDlg@@IAEXH_N@Z 00407922 f   FileManagerDlg.obj
 0001:00006939       ?OnNotify@CFileManagerDlg@@MAEHIJPAJ@Z 00407939 f   FileManagerDlg.obj
 0001:0000697c       ?MyShell_GetImageLists@CFileManagerDlg@@IAEHXZ 0040797c f   FileManagerDlg.obj
 0001:00006b51       ?OnInitDialog@CFileManagerDlg@@MAEHXZ 00407b51 f   FileManagerDlg.obj
 0001:00006e69       ?OnSize@CFileManagerDlg@@IAEXIHH@Z 00407e69 f   FileManagerDlg.obj
 0001:00006f1f       ?DropItemOnList@CFileManagerDlg@@IAEXPAVCListCtrl@@0@Z 00407f1f f   FileManagerDlg.obj
 0001:00006f71       ?OnQueryDragIcon@CFileManagerDlg@@IAEPAUHICON__@@XZ 00407f71 f   FileManagerDlg.obj
 0001:00006f78       ?OnBeginDragListLocal@CFileManagerDlg@@IAEXPAUtagNMHDR@@PAJ@Z 00407f78 f   FileManagerDlg.obj
 0001:00007047       ?OnBeginDragListRemote@CFileManagerDlg@@IAEXPAUtagNMHDR@@PAJ@Z 00408047 f   FileManagerDlg.obj
 0001:0000711c       ?OnMouseMove@CFileManagerDlg@@IAEXIVCPoint@@@Z 0040811c f   FileManagerDlg.obj
 0001:00007285       ?OnLButtonUp@CFileManagerDlg@@IAEXIVCPoint@@@Z 00408285 f   FileManagerDlg.obj
 0001:00007304       ?PreTranslateMessage@CFileManagerDlg@@UAEHPAUtagMSG@@@Z 00408304 f   FileManagerDlg.obj
 0001:000073cb       ?OnTimer@CFileManagerDlg@@IAEXI@Z 004083cb f   FileManagerDlg.obj
 0001:000073f1       ?FixedRemoteDriveList@CFileManagerDlg@@QAEXXZ 004083f1 f   FileManagerDlg.obj
 0001:00007724       ?OnClose@CFileManagerDlg@@IAEXXZ 00408724 f   FileManagerDlg.obj
 0001:0000776e       ?GetParentDirectory@CFileManagerDlg@@QAE?AVCString@@V2@@Z 0040876e f   FileManagerDlg.obj
 0001:0000788f       ?OnReceiveComplete@CFileManagerDlg@@QAEXXZ 0040888f f   FileManagerDlg.obj
 0001:00007985       ?GetRemoteFileList@CFileManagerDlg@@QAEXVCString@@@Z 00408985 f   FileManagerDlg.obj
 0001:00007b93       ?OnDblclkListRemote@CFileManagerDlg@@IAEXPAUtagNMHDR@@PAJ@Z 00408b93 f   FileManagerDlg.obj
 0001:00007bfa       ?FixedRemoteFileList@CFileManagerDlg@@QAEXPAEK@Z 00408bfa f   FileManagerDlg.obj
 0001:00008030       ?ShowMessage@CFileManagerDlg@@QAAXPADZZ 00409030 f   FileManagerDlg.obj
 0001:00008091       ?OnRemotePrev@CFileManagerDlg@@IAEXXZ 00409091 f   FileManagerDlg.obj
 0001:000080b0       ?OnRemoteHome@CFileManagerDlg@@IAEXXZ 004090b0 f   FileManagerDlg.obj
 0001:000080b5       ?OnToolTipNotify@CFileManagerDlg@@IAEHIPAUtagNMHDR@@PAJ@Z 004090b5 f   FileManagerDlg.obj
 0001:0000819d       ?OnLocalList@CFileManagerDlg@@IAEXXZ 0040919d f   FileManagerDlg.obj
 0001:000081af       ?OnLocalReport@CFileManagerDlg@@IAEXXZ 004091af f   FileManagerDlg.obj
 0001:000081c1       ?OnLocalBigicon@CFileManagerDlg@@IAEXXZ 004091c1 f   FileManagerDlg.obj
 0001:000081d3       ?OnLocalSmallicon@CFileManagerDlg@@IAEXXZ 004091d3 f   FileManagerDlg.obj
 0001:000081e5       ?OnRemoteList@CFileManagerDlg@@IAEXXZ 004091e5 f   FileManagerDlg.obj
 0001:000081f7       ?OnRemoteReport@CFileManagerDlg@@IAEXXZ 004091f7 f   FileManagerDlg.obj
 0001:00008209       ?OnRemoteBigicon@CFileManagerDlg@@IAEXXZ 00409209 f   FileManagerDlg.obj
 0001:0000821b       ?OnRemoteSmallicon@CFileManagerDlg@@IAEXXZ 0040921b f   FileManagerDlg.obj
 0001:0000822d       ?OnRemoteView@CFileManagerDlg@@IAEXXZ 0040922d f   FileManagerDlg.obj
 0001:0000823f       ?OnRemoteDesktop@CFileManagerDlg@@IAEXXZ 0040923f f   FileManagerDlg.obj
 0001:00008281       ?OnUpdateRemotePrev@CFileManagerDlg@@IAEXPAVCCmdUI@@@Z 00409281 f   FileManagerDlg.obj
 0001:000082af       ?OnUpdateRemoteHome@CFileManagerDlg@@IAEXPAVCCmdUI@@@Z 004092af f   FileManagerDlg.obj
 0001:000082dd       ?OnUpdateRemoteStop@CFileManagerDlg@@IAEXPAVCCmdUI@@@Z 004092dd f   FileManagerDlg.obj
 0001:00008308       ?OnUpdateRemoteNewfolder@CFileManagerDlg@@IAEXPAVCCmdUI@@@Z 00409308 f   FileManagerDlg.obj
 0001:00008336       ?OnUpdateRemoteDelete@CFileManagerDlg@@IAEXPAVCCmdUI@@@Z 00409336 f   FileManagerDlg.obj
 0001:00008381       ?OnUpdateRemoteSend@CFileManagerDlg@@IAEXPAVCCmdUI@@@Z 00409381 f   FileManagerDlg.obj
 0001:000083af       ?OnUpdateRemoteRecv@CFileManagerDlg@@IAEXPAVCCmdUI@@@Z 004093af f   FileManagerDlg.obj
 0001:000083dd       ?OnUpdateRemoteRefresh@CFileManagerDlg@@IAEXPAVCCmdUI@@@Z 004093dd f   FileManagerDlg.obj
 0001:000083fa       ?OnUpdateRemoteDesktop@CFileManagerDlg@@IAEXPAVCCmdUI@@@Z 004093fa f   FileManagerDlg.obj
 0001:00008417       ?FixedUploadDirectory@CFileManagerDlg@@QAE_NPBD@Z 00409417 f   FileManagerDlg.obj
 0001:00008546       ?EnableControl@CFileManagerDlg@@AAEXH@Z 00409546 f   FileManagerDlg.obj
 0001:0000856b       ?ExtractNameFromFullPath@CFileManagerDlg@@QAE?AVCString@@V2@@Z 0040956b f   FileManagerDlg.obj
 0001:0000863e       ?OnLocalCopy@CFileManagerDlg@@IAEXXZ 0040963e f   FileManagerDlg.obj
 0001:0000874d       ?GetDirectoryPath@CFileManagerDlg@@QAE?AVCString@@H@Z 0040974d f   FileManagerDlg.obj
 0001:00008844       ?OnRemoteCopy@CFileManagerDlg@@IAEXXZ 00409844 f   FileManagerDlg.obj
 0001:00008a14       ?SendDownloadJob@CFileManagerDlg@@QAEHXZ 00409a14 f   FileManagerDlg.obj
 0001:00008af1       ?SendUploadJob@CFileManagerDlg@@QAEHXZ 00409af1 f   FileManagerDlg.obj
 0001:00008d44       ?SendDeleteJob@CFileManagerDlg@@QAEHXZ 00409d44 f   FileManagerDlg.obj
 0001:00008e41       ?CreateLocalRecvFile@CFileManagerDlg@@QAEXXZ 00409e41 f   FileManagerDlg.obj
 0001:0000915e       ?WriteLocalRecvFile@CFileManagerDlg@@QAEXXZ 0040a15e f   FileManagerDlg.obj
 0001:000092e9       ?EndLocalRecvFile@CFileManagerDlg@@QAEXXZ 0040a2e9 f   FileManagerDlg.obj
 0001:000093bd       ?EndLocalUploadFile@CFileManagerDlg@@AAEXXZ 0040a3bd f   FileManagerDlg.obj
 0001:000094b9       ?EndRemoteDeleteFile@CFileManagerDlg@@QAEXXZ 0040a4b9 f   FileManagerDlg.obj
 0001:00009591       ?SendException@CFileManagerDlg@@QAEXXZ 0040a591 f   FileManagerDlg.obj
 0001:000095b4       ?SendContinue@CFileManagerDlg@@QAEXXZ 0040a5b4 f   FileManagerDlg.obj
 0001:000095d7       ?SendStop@CFileManagerDlg@@QAEXH@Z 0040a5d7 f   FileManagerDlg.obj
 0001:00009619       ?ShowProgress@CFileManagerDlg@@QAEXXZ 0040a619 f   FileManagerDlg.obj
 0001:00009823       ?OnRemoteDelete@CFileManagerDlg@@IAEXXZ 0040a823 f   FileManagerDlg.obj
 0001:000099c5       ?OnRemoteStop@CFileManagerDlg@@IAEXXZ 0040a9c5 f   FileManagerDlg.obj
 0001:000099ca       ?PostNcDestroy@CFileManagerDlg@@MAEXXZ 0040a9ca f   FileManagerDlg.obj
 0001:000099f4       ?SendTransferMode@CFileManagerDlg@@AAEXXZ 0040a9f4 f   FileManagerDlg.obj
 0001:00009adb       ?SendFileData@CFileManagerDlg@@AAEXXZ 0040aadb f   FileManagerDlg.obj
 0001:00009bd3       ?DeleteDirectory@CFileManagerDlg@@AAE_NPBD@Z 0040abd3 f   FileManagerDlg.obj
 0001:00009ca2       ?OnRemoteNewFolder@CFileManagerDlg@@IAEXXZ 0040aca2 f   FileManagerDlg.obj
 0001:00009df0       ?OnTransferRecv@CFileManagerDlg@@IAEXXZ 0040adf0 f   FileManagerDlg.obj
 0001:00009df5       ?OnRename@CFileManagerDlg@@IAEXXZ 0040adf5 f   FileManagerDlg.obj
 0001:00009e29       ?OnEndLabelEditListLocal@CFileManagerDlg@@IAEXPAUtagNMHDR@@PAJ@Z 0040ae29 f   FileManagerDlg.obj
 0001:00009f30       ?OnEndLabelEditListRemote@CFileManagerDlg@@IAEXPAUtagNMHDR@@PAJ@Z 0040af30 f   FileManagerDlg.obj
 0001:0000a0d6       ?OnDelete@CFileManagerDlg@@IAEXXZ 0040b0d6 f   FileManagerDlg.obj
 0001:0000a0db       ?OnNewFolder@CFileManagerDlg@@IAEXXZ 0040b0db f   FileManagerDlg.obj
 0001:0000a0e0       ?OnRefresh@CFileManagerDlg@@IAEXXZ 0040b0e0 f   FileManagerDlg.obj
 0001:0000a0ff       ?OnUseAdmin@CFileManagerDlg@@IAEXXZ 0040b0ff f   FileManagerDlg.obj
 0001:0000a10a       ?OnRemoteOpenShow@CFileManagerDlg@@IAEXXZ 0040b10a f   FileManagerDlg.obj
 0001:0000a22e       ?OnRemoteOpenHide@CFileManagerDlg@@IAEXXZ 0040b22e f   FileManagerDlg.obj
 0001:0000a352       ?OnRclickListRemote@CFileManagerDlg@@IAEXPAUtagNMHDR@@PAJ@Z 0040b352 f   FileManagerDlg.obj
 0001:0000a53c       ?MakeSureDirectoryPathExists@CFileManagerDlg@@AAE_NPBD@Z 0040b53c f   FileManagerDlg.obj
 0001:0000a693       ?OnTransferSend@CFileManagerDlg@@IAEXXZ 0040b693 f   FileManagerDlg.obj
 0001:0000a698       ?OnCompress@CFileManagerDlg@@IAEXXZ 0040b698 f   FileManagerDlg.obj
 0001:0000a875       ?OnUncompress@CFileManagerDlg@@IAEXXZ 0040b875 f   FileManagerDlg.obj
 0001:0000a9a0       ?OnSetfocusRemotePath@CFileManagerDlg@@IAEXXZ 0040b9a0 f   FileManagerDlg.obj
 0001:0000a9b6       ??_ECFileManagerDlg@@UAEPAXI@Z 0040b9b6 f i FileManagerDlg.obj
 0001:0000a9b6       ??_GCFileManagerDlg@@UAEPAXI@Z 0040b9b6 f i FileManagerDlg.obj
 0001:0000a9d2       ??1CFileManagerDlg@@UAE@XZ 0040b9d2 f i FileManagerDlg.obj
 0001:0000ab7d       ??_ECProgressCtrl@@UAEPAXI@Z 0040bb7d f i FileManagerDlg.obj
 0001:0000ab7d       ??_GCProgressCtrl@@UAEPAXI@Z 0040bb7d f i FileManagerDlg.obj
 0001:0000ab99       ?GetFirstSelectedItemPosition@CListCtrl@@QBEPAU__POSITION@@XZ 0040bb99 f i FileManagerDlg.obj
 0001:0000abad       ?GetNextSelectedItem@CListCtrl@@QBEHAAPAU__POSITION@@@Z 0040bbad f i FileManagerDlg.obj
 0001:0000abd1       ??1CFileTransferModeDlg@@UAE@XZ 0040bbd1 f i FileManagerDlg.obj
 0001:0000ac06       ?GetEditControl@CListCtrl@@QBEPAVCEdit@@XZ 0040bc06 f i FileManagerDlg.obj
 0001:0000ac1f       ?RemoveHead@?$CList@VCString@@AAV1@@@QAE?AVCString@@XZ 0040bc1f f i FileManagerDlg.obj
 0001:0000ac93       ?AddTail@?$CList@VCString@@AAV1@@@QAEPAU__POSITION@@AAVCString@@@Z 0040bc93 f i FileManagerDlg.obj
 0001:0000acc7       ?RemoveAll@?$CList@VCString@@AAV1@@@QAEXXZ 0040bcc7 f i FileManagerDlg.obj
 0001:0000acff       ??1?$CList@VCString@@AAV1@@@UAE@XZ 0040bcff f i FileManagerDlg.obj
 0001:0000ad28       ?Serialize@?$CList@VCString@@AAV1@@@UAEXAAVCArchive@@@Z 0040bd28 f i FileManagerDlg.obj
 0001:0000adb8       ??_E?$CList@VCString@@AAV1@@@UAEPAXI@Z 0040bdb8 f i FileManagerDlg.obj
 0001:0000adb8       ??_G?$CList@VCString@@AAV1@@@UAEPAXI@Z 0040bdb8 f i FileManagerDlg.obj
 0001:0000add4       ?NewNode@?$CList@VCString@@AAV1@@@IAEPAUCNode@1@PAU21@0@Z 0040bdd4 f i FileManagerDlg.obj
 0001:0000ae37       ?FreeNode@?$CList@VCString@@AAV1@@@IAEXPAUCNode@1@@Z 0040be37 f i FileManagerDlg.obj
 0001:0000aee1       ??0CFileTransferModeDlg@@QAE@PAVCWnd@@@Z 0040bee1 f   FileTransferModeDlg.obj
 0001:0000af06       ?DoDataExchange@CFileTransferModeDlg@@MAEXPAVCDataExchange@@@Z 0040bf06 f   FileTransferModeDlg.obj
 0001:0000af09       ?GetMessageMap@CFileTransferModeDlg@@MBEPBUAFX_MSGMAP@@XZ 0040bf09 f   FileTransferModeDlg.obj
 0001:0000af0f       ?OnEndDialog@CFileTransferModeDlg@@IAEXI@Z 0040bf0f f   FileTransferModeDlg.obj
 0001:0000af1b       ?OnInitDialog@CFileTransferModeDlg@@MAEHXZ 0040bf1b f   FileTransferModeDlg.obj
 0001:0000af9b       ??_GCFileTransferModeDlg@@UAEPAXI@Z 0040bf9b f i FileTransferModeDlg.obj
 0001:0000af9b       ??_ECFileTransferModeDlg@@UAEPAXI@Z 0040bf9b f i FileTransferModeDlg.obj
 0001:0000b035       ?GetRuntimeClass@CHtmlCtrl@@UBEPAUCRuntimeClass@@XZ 0040c035 f   HtmlCtrl.obj
 0001:0000b03b       ?GetMessageMap@CHtmlCtrl@@MBEPBUAFX_MSGMAP@@XZ 0040c03b f   HtmlCtrl.obj
 0001:0000b041       ?CreateFromStatic@CHtmlCtrl@@QAEHIPAVCWnd@@@Z 0040c041 f   HtmlCtrl.obj
 0001:0000b0d2       ?OnDestroy@CHtmlCtrl@@QAEXXZ 0040c0d2 f   HtmlCtrl.obj
 0001:0000b0e9       ?OnMouseActivate@CHtmlCtrl@@QAEHPAVCWnd@@II@Z 0040c0e9 f   HtmlCtrl.obj
 0001:0000b0f1       ?OnBeforeNavigate2@CHtmlCtrl@@UAEXPBDK0AAVCByteArray@@0PAH@Z 0040c0f1 f   HtmlCtrl.obj
 0001:0000b146       ?OnAppCmd@CHtmlCtrl@@UAEXPBD@Z 0040c146 f   HtmlCtrl.obj
 0001:0000b149       ??_ECStatic@@UAEPAXI@Z     0040c149 f i HtmlCtrl.obj
 0001:0000b149       ??_GCStatic@@UAEPAXI@Z     0040c149 f i HtmlCtrl.obj
 0001:0000b1e3       ??0CIniFile@@QAE@XZ        0040c1e3 f   IniFile.obj
 0001:0000b27b       ??1CIniFile@@UAE@XZ        0040c27b f   IniFile.obj
 0001:0000b289       ?GetString@CIniFile@@QAE?AVCString@@V2@00@Z 0040c289 f   IniFile.obj
 0001:0000b30d       ?GetInt@CIniFile@@QAEHVCString@@0H@Z 0040c30d f   IniFile.obj
 0001:0000b355       ?GetDWORD@CIniFile@@QAEKVCString@@0K@Z 0040c355 f   IniFile.obj
 0001:0000b3ee       ?SetString@CIniFile@@QAEHVCString@@00@Z 0040c3ee f   IniFile.obj
 0001:0000b445       ?SetInt@CIniFile@@QAEHVCString@@0H@Z 0040c445 f   IniFile.obj
 0001:0000b4c0       ?SetDouble@CIniFile@@QAEHVCString@@0N@Z 0040c4c0 f   IniFile.obj
 0001:0000b540       ?SetDWORD@CIniFile@@QAEHVCString@@0K@Z 0040c540 f   IniFile.obj
 0001:0000b5bb       ??_ECIniFile@@UAEPAXI@Z    0040c5bb f i IniFile.obj
 0001:0000b5bb       ??_GCIniFile@@UAEPAXI@Z    0040c5bb f i IniFile.obj
 0001:0000b655       ??0CDlgTemplateBuilder@@QAE@I@Z 0040c655 f   InputDlg.obj
 0001:0000b678       ??1CDlgTemplateBuilder@@QAE@XZ 0040c678 f   InputDlg.obj
 0001:0000b681       ?Begin@CDlgTemplateBuilder@@QAEPAUDLGTEMPLATE@@KABVCRect@@PBDK@Z 0040c681 f   InputDlg.obj
 0001:0000b6f0       ?AddItemTemplate@CDlgTemplateBuilder@@IAEXGKABVCRect@@GK@Z 0040c6f0 f   InputDlg.obj
 0001:0000b75c       ?AddItem@CDlgTemplateBuilder@@QAEXGKABVCRect@@PBDGK@Z 0040c75c f   InputDlg.obj
 0001:0000b792       ?AddItem@CDlgTemplateBuilder@@QAEXGKABVCRect@@GGK@Z 0040c792 f   InputDlg.obj
 0001:0000b7cc       ?AddText@CDlgTemplateBuilder@@QAEPAGPAGPBD@Z 0040c7cc f   InputDlg.obj
 0001:0000b825       ?Init@CInputDialog@@QAEHPBD0PAVCWnd@@HVCString@@G@Z 0040c825 f   InputDlg.obj
 0001:0000b9f5       ?OnInitDialog@CInputDialog@@MAEHXZ 0040c9f5 f   InputDlg.obj
 0001:0000ba21       ?OnOK@CInputDialog@@MAEXXZ 0040ca21 f   InputDlg.obj
 0001:0000bacf       ??0CIOCPServer@@QAE@XZ     0040cacf f   IOCPServer.obj
 0001:0000bbcb       ??1CIOCPServer@@UAE@XZ     0040cbcb f   IOCPServer.obj
 0001:0000bc2e       ?Initialize@CIOCPServer@@QAE_NP6GXPAUClientContext@@I@ZHH@Z 0040cc2e f   IOCPServer.obj
 0001:0000bcfb       ?ThreadHeartbeat@CIOCPServer@@SGIPAX@Z 0040ccfb f   IOCPServer.obj
 0001:0000bd74       ?ListenThreadProc@CIOCPServer@@SGIPAX@Z 0040cd74 f   IOCPServer.obj
 0001:0000bdd8       ?OnAccept@CIOCPServer@@IAEXXZ 0040cdd8 f   IOCPServer.obj
 0001:0000bf64       ?InitializeIOCP@CIOCPServer@@IAE_NXZ 0040cf64 f   IOCPServer.obj
 0001:0000c02c       ?ThreadPoolFunc@CIOCPServer@@SGIPAX@Z 0040d02c f   IOCPServer.obj
 0001:0000c0d4       ?Stop@CIOCPServer@@IAEXXZ  0040d0d4 f   IOCPServer.obj
 0001:0000c103       ?GetHostName@CIOCPServer@@IAE?AVCString@@I@Z 0040d103 f   IOCPServer.obj
 0001:0000c155       ?PostRecv@CIOCPServer@@QAEXPAUClientContext@@@Z 0040d155 f   IOCPServer.obj
 0001:0000c1d2       ?encrypt@@YAPADPADH@Z      0040d1d2 f   IOCPServer.obj
 0001:0000c1f2       ?Send@CIOCPServer@@QAEXPAUClientContext@@PAEIH@Z 0040d1f2 f   IOCPServer.obj
 0001:0000c44c       ?OnClientInitializing@CIOCPServer@@QAE_NPAUClientContext@@K@Z 0040d44c f   IOCPServer.obj
 0001:0000c451       ?decrypt@@YAPADPADH@Z      0040d451 f   IOCPServer.obj
 0001:0000c471       ?OnClientReading@CIOCPServer@@UAE_NPAUClientContext@@K@Z 0040d471 f   IOCPServer.obj
 0001:0000c840       ?PostSend@CIOCPServer@@QAEXPAUClientContext@@@Z 0040d840 f   IOCPServer.obj
 0001:0000c8e6       ?OnClientWriting@CIOCPServer@@QAE_NPAUClientContext@@K@Z 0040d8e6 f   IOCPServer.obj
 0001:0000c9a1       ?CloseCompletionPort@CIOCPServer@@IAEXXZ 0040d9a1 f   IOCPServer.obj
 0001:0000c9f3       ?AssociateSocketWithCompletionPort@CIOCPServer@@IAEHIPAXK@Z 0040d9f3 f   IOCPServer.obj
 0001:0000ca13       ?RemoveStaleClient@CIOCPServer@@IAEXPAUClientContext@@H@Z 0040da13 f   IOCPServer.obj
 0001:0000caf5       ?Shutdown@CIOCPServer@@QAEXXZ 0040daf5 f   IOCPServer.obj
 0001:0000cb61       ?MoveToFreePool@CIOCPServer@@IAEXPAUClientContext@@@Z 0040db61 f   IOCPServer.obj
 0001:0000cc3f       ?AllocateContext@CIOCPServer@@IAEPAUClientContext@@I@Z 0040dc3f f   IOCPServer.obj
 0001:0000cd76       ?ResetConnection@CIOCPServer@@QAEXPAUClientContext@@@Z 0040dd76 f   IOCPServer.obj
 0001:0000ce23       ?DisconnectAll@CIOCPServer@@QAEXXZ 0040de23 f   IOCPServer.obj
 0001:0000ced3       ?IsRunning@CIOCPServer@@QAE_NXZ 0040ded3 f   IOCPServer.obj
 0001:0000ced7       ?SetKeepAlive@CIOCPServer@@IAEHIII@Z 0040ded7 f   IOCPServer.obj
 0001:0000cf42       ??_GCIOCPServer@@UAEPAXI@Z 0040df42 f i IOCPServer.obj
 0001:0000cf42       ??_ECIOCPServer@@UAEPAXI@Z 0040df42 f i IOCPServer.obj
 0001:0000cf5e       ??1CLock@@QAE@XZ           0040df5e f i IOCPServer.obj
 0001:0000cf91       ?Unlock@CLock@@QAEXXZ      0040df91 f i IOCPServer.obj
 0001:0000cf9a       ?Lock@CLock@@QAEXXZ        0040df9a f i IOCPServer.obj
 0001:0000cfa3       ??1ClientContext@@QAE@XZ   0040dfa3 f i IOCPServer.obj
 0001:0000cff4       ?ProcessIOMessage@CIOCPServer@@QAE_NW4IOType@@PAUClientContext@@K@Z 0040dff4 f i IOCPServer.obj
 0001:0000d038       ??0ClientContext@@QAE@XZ   0040e038 f i IOCPServer.obj
 0001:0000d084       ?RemoveHead@?$CList@PAUClientContext@@PAU1@@@QAEPAUClientContext@@XZ 0040e084 f i IOCPServer.obj
 0001:0000d0a8       ?RemoveTail@?$CList@PAUClientContext@@PAU1@@@QAEPAUClientContext@@XZ 0040e0a8 f i IOCPServer.obj
 0001:0000d0cc       ?AddTail@?$CList@PAUClientContext@@PAU1@@@QAEPAU__POSITION@@PAUClientContext@@@Z 0040e0cc f i IOCPServer.obj
 0001:0000d0f5       ?RemoveAll@?$CList@PAUClientContext@@PAU1@@@QAEXXZ 0040e0f5 f i IOCPServer.obj
 0001:0000d120       ?RemoveAt@?$CList@PAUClientContext@@PAU1@@@QAEXPAU__POSITION@@@Z 0040e120 f i IOCPServer.obj
 0001:0000d153       ??1?$CList@PAUClientContext@@PAU1@@@UAE@XZ 0040e153 f i IOCPServer.obj
 0001:0000d17c       ?Serialize@?$CList@PAUClientContext@@PAU1@@@UAEXAAVCArchive@@@Z 0040e17c f i IOCPServer.obj
 0001:0000d1e2       ??_G?$CList@PAUClientContext@@PAU1@@@UAEPAXI@Z 0040e1e2 f i IOCPServer.obj
 0001:0000d1e2       ??_E?$CList@PAUClientContext@@PAU1@@@UAEPAXI@Z 0040e1e2 f i IOCPServer.obj
 0001:0000d1fe       ?NewNode@?$CList@PAUClientContext@@PAU1@@@IAEPAUCNode@1@PAU21@0@Z 0040e1fe f i IOCPServer.obj
 0001:0000d25c       ?FreeNode@?$CList@PAUClientContext@@PAU1@@@IAEXPAUCNode@1@@Z 0040e25c f i IOCPServer.obj
 0001:0000d275       ?SerializeElements@@YGXAAVCArchive@@PAPAVCWnd@@H@Z 0040e275 f i IOCPServer.obj
 0001:0000d275       ?SerializeElements@@YGXAAVCArchive@@PAIH@Z 0040e275 f i IOCPServer.obj
 0001:0000d275       ?SerializeElements@@YGXAAVCArchive@@PAPAUClientContext@@H@Z 0040e275 f i IOCPServer.obj
 0001:0000d323       ??0CKeyBoardDlg@@QAE@PAVCWnd@@PAVCIOCPServer@@PAUClientContext@@@Z 0040e323 f   KeyBoardDlg.obj
 0001:0000d429       ?DoDataExchange@CKeyBoardDlg@@MAEXPAVCDataExchange@@@Z 0040e429 f   KeyBoardDlg.obj
 0001:0000d43e       ?GetMessageMap@CKeyBoardDlg@@MBEPBUAFX_MSGMAP@@XZ 0040e43e f   KeyBoardDlg.obj
 0001:0000d444       ?OnInitDialog@CKeyBoardDlg@@MAEHXZ 0040e444 f   KeyBoardDlg.obj
 0001:0000d4b5       ?OnSysCommand@CKeyBoardDlg@@IAEXIJ@Z 0040e4b5 f   KeyBoardDlg.obj
 0001:0000d572       ?OnReceiveComplete@CKeyBoardDlg@@QAEXXZ 0040e572 f   KeyBoardDlg.obj
 0001:0000d59a       ?SendException@CKeyBoardDlg@@AAEXXZ 0040e59a f   KeyBoardDlg.obj
 0001:0000d5bd       ?OnClose@CKeyBoardDlg@@IAEXXZ 0040e5bd f   KeyBoardDlg.obj
 0001:0000d5db       ?AddKeyBoardData@CKeyBoardDlg@@AAEXXZ 0040e5db f   KeyBoardDlg.obj
 0001:0000d640       ?OnSize@CKeyBoardDlg@@IAEXIHH@Z 0040e640 f   KeyBoardDlg.obj
 0001:0000d648       ?ResizeEdit@CKeyBoardDlg@@AAEXXZ 0040e648 f   KeyBoardDlg.obj
 0001:0000d649       ?PostNcDestroy@CKeyBoardDlg@@MAEXXZ 0040e649 f   KeyBoardDlg.obj
 0001:0000d660       ?SaveRecord@CKeyBoardDlg@@AAE_NXZ 0040e660 f   KeyBoardDlg.obj
 0001:0000d7ea       ?PreTranslateMessage@CKeyBoardDlg@@UAEHPAUtagMSG@@@Z 0040e7ea f   KeyBoardDlg.obj
 0001:0000d812       ?UpdateTitle@CKeyBoardDlg@@AAEXXZ 0040e812 f   KeyBoardDlg.obj
 0001:0000d866       ?OnSendkey@CKeyBoardDlg@@IAEXXZ 0040e866 f   KeyBoardDlg.obj
 0001:0000d8ab       ?OnDelkey@CKeyBoardDlg@@IAEXXZ 0040e8ab f   KeyBoardDlg.obj
 0001:0000d8f0       ?OnSavekey@CKeyBoardDlg@@IAEXXZ 0040e8f0 f   KeyBoardDlg.obj
 0001:0000d8f5       ??_GCKeyBoardDlg@@UAEPAXI@Z 0040e8f5 f i KeyBoardDlg.obj
 0001:0000d8f5       ??_ECKeyBoardDlg@@UAEPAXI@Z 0040e8f5 f i KeyBoardDlg.obj
 0001:0000d911       ??1CKeyBoardDlg@@UAE@XZ    0040e911 f i KeyBoardDlg.obj
 0001:0000d9d6       ??0LFileName@@QAE@PAG@Z    0040e9d6 f   LFileName.obj
 0001:0000da5e       ??0LFileName@@QAE@PAD@Z    0040ea5e f   LFileName.obj
 0001:0000db9d       ??0LFileName@@QAE@XZ       0040eb9d f   LFileName.obj
 0001:0000dbed       ??1LFileName@@QAE@XZ       0040ebed f   LFileName.obj
 0001:0000dbee       ?getFileName@LFileName@@QAEPAGXZ 0040ebee f   LFileName.obj
 0001:0000dbf5       ?getFilePath@LFileName@@QAEPAGXZ 0040ebf5 f   LFileName.obj
 0001:0000dbfc       ?init@LFileName@@QAEXPAG@Z 0040ebfc f   LFileName.obj
 0001:0000dc5a       ?init@LFileName@@QAEXPAD@Z 0040ec5a f   LFileName.obj
 0001:0000dd74       ?initFileName@LFileName@@QAEXPAD@Z 0040ed74 f   LFileName.obj
 0001:0000de21       ?getFileNameA@LFileName@@QAEPADXZ 0040ee21 f   LFileName.obj
 0001:0000de28       ?getFilePathA@LFileName@@QAEPADXZ 0040ee28 f   LFileName.obj
 0001:0000de2f       ?getFileExpand@LFileName@@QAEPADXZ 0040ee2f f   LFileName.obj
 0001:0000de36       ?getNameA@LFileName@@QAEPADXZ 0040ee36 f   LFileName.obj
 0001:0000debb       ??0CLocalUpload@@QAE@PAVCWnd@@@Z 0040eebb f   LocalUpload.obj
 0001:0000df35       ?DoDataExchange@CLocalUpload@@MAEXPAVCDataExchange@@@Z 0040ef35 f   LocalUpload.obj
 0001:0000df75       ?GetMessageMap@CLocalUpload@@MBEPBUAFX_MSGMAP@@XZ 0040ef75 f   LocalUpload.obj
 0001:0000df7b       ?OnInitDialog@CLocalUpload@@MAEHXZ 0040ef7b f   LocalUpload.obj
 0001:0000dfe7       ?OnButtonPath@CLocalUpload@@IAEXXZ 0040efe7 f   LocalUpload.obj
 0001:0000e088       ?OnOK@CLocalUpload@@MAEXXZ 0040f088 f   LocalUpload.obj
 0001:0000e27d       ?OnSelchangeComboType@CLocalUpload@@IAEXXZ 0040f27d f   LocalUpload.obj
 0001:0000e2e6       ??_GCLocalUpload@@UAEPAXI@Z 0040f2e6 f i LocalUpload.obj
 0001:0000e2e6       ??_ECLocalUpload@@UAEPAXI@Z 0040f2e6 f i LocalUpload.obj
 0001:0000e302       ??1CLocalUpload@@UAE@XZ    0040f302 f i LocalUpload.obj
 0001:0000e3d6       ?CreateObject@CLogView@@SGPAVCObject@@XZ 0040f3d6 f   LogView.obj
 0001:0000e40b       ?GetRuntimeClass@CLogView@@UBEPAUCRuntimeClass@@XZ 0040f40b f   LogView.obj
 0001:0000e411       ??0CLogView@@IAE@XZ        0040f411 f   LogView.obj
 0001:0000e47c       ??1CLogView@@MAE@XZ        0040f47c f   LogView.obj
 0001:0000e4ee       ?GetMessageMap@CLogView@@MBEPBUAFX_MSGMAP@@XZ 0040f4ee f   LogView.obj
 0001:0000e4f4       ?OnDraw@CLogView@@MAEXPAVCDC@@@Z 0040f4f4 f   LogView.obj
 0001:0000e4f7       ?OnInitialUpdate@CLogView@@UAEXXZ 0040f4f7 f   LogView.obj
 0001:0000e71c       ?PreCreateWindow@CLogView@@MAEHAAUtagCREATESTRUCTA@@@Z 0040f71c f   LogView.obj
 0001:0000e72d       ?OnSize@CLogView@@IAEXIHH@Z 0040f72d f   LogView.obj
 0001:0000e7bf       ?g_ColumnWidth@CLogView@@IAEXXZ 0040f7bf f   LogView.obj
 0001:0000e7c0       ?InsertLogItem@CLogView@@QAEXPBDHH@Z 0040f7c0 f   LogView.obj
 0001:0000e883       ?OnRclick@CLogView@@IAEXPAUtagNMHDR@@PAJ@Z 0040f883 f   LogView.obj
 0001:0000e90e       ?OnEventDelete@CLogView@@IAEXXZ 0040f90e f   LogView.obj
 0001:0000e977       ?OnAllDelete@CLogView@@IAEXXZ 0040f977 f   LogView.obj
 0001:0000e990       ?OnEventSave@CLogView@@IAEXXZ 0040f990 f   LogView.obj
 0001:0000ec2a       ?OnEventCopy@CLogView@@IAEXXZ 0040fc2a f   LogView.obj
 0001:0000edc2       ??_GCFont@@UAEPAXI@Z       0040fdc2 f i LogView.obj
 0001:0000edc2       ??_ECFont@@UAEPAXI@Z       0040fdc2 f i LogView.obj
 0001:0000edde       ??1CFont@@UAE@XZ           0040fdde f i LogView.obj
 0001:0000ee07       ??_GCGdiObject@@UAEPAXI@Z  0040fe07 f i LogView.obj
 0001:0000ee07       ??_ECGdiObject@@UAEPAXI@Z  0040fe07 f i LogView.obj
 0001:0000ee23       ??1CGdiObject@@UAE@XZ      0040fe23 f i LogView.obj
 0001:0000ee4c       ??_ECListView@@UAEPAXI@Z   0040fe4c f i LogView.obj
 0001:0000ee4c       ??_GCListView@@UAEPAXI@Z   0040fe4c f i LogView.obj
 0001:0000ee68       ??1CListView@@UAE@XZ       0040fe68 f i LogView.obj
 0001:0000ee9d       ??_ECLogView@@MAEPAXI@Z    0040fe9d f i LogView.obj
 0001:0000ee9d       ??_GCLogView@@MAEPAXI@Z    0040fe9d f i LogView.obj
 0001:0000ef8b       ?FILESaveFile@@YA_NPAD@Z   0040ff8b f   MainFrm.obj
 0001:0000efd2       ?SHELLSaveFile@@YA_NPAD@Z  0040ffd2 f   MainFrm.obj
 0001:0000f019       ?SCREENSaveFile@@YA_NPAD@Z 00410019 f   MainFrm.obj
 0001:0000f060       ?VIDEOSaveFile@@YA_NPAD@Z  00410060 f   MainFrm.obj
 0001:0000f0a7       ?LISTENSaveFile@@YA_NPAD@Z 004100a7 f   MainFrm.obj
 0001:0000f0ee       ?SYSTEMSaveFile@@YA_NPAD@Z 004100ee f   MainFrm.obj
 0001:0000f135       ?KEYLOGSaveFile@@YA_NPAD@Z 00410135 f   MainFrm.obj
 0001:0000f17c       ?SERVICESaveFile@@YA_NPAD@Z 0041017c f   MainFrm.obj
 0001:0000f1c3       ?REGEDITSaveFile@@YA_NPAD@Z 004101c3 f   MainFrm.obj
 0001:0000f20a       ?CHATSaveFile@@YA_NPAD@Z   0041020a f   MainFrm.obj
 0001:0000f251       ?PROXYMAPSaveFile@@YA_NPAD@Z 00410251 f   MainFrm.obj
 0001:0000f298       ?CreateObject@CMainFrame@@SGPAVCObject@@XZ 00410298 f   MainFrm.obj
 0001:0000f2cd       ?GetRuntimeClass@CMainFrame@@UBEPAUCRuntimeClass@@XZ 004102cd f   MainFrm.obj
 0001:0000f2d3       ?GetMessageMap@CMainFrame@@MBEPBUAFX_MSGMAP@@XZ 004102d3 f   MainFrm.obj
 0001:0000f2d9       ??0CMainFrame@@IAE@XZ      004102d9 f   MainFrm.obj
 0001:0000f38d       ??1CMainFrame@@UAE@XZ      0041038d f   MainFrm.obj
 0001:0000f429       ?OnCreate@CMainFrame@@IAEHPAUtagCREATESTRUCTA@@@Z 00410429 f   MainFrm.obj
 0001:0000f9e4       ?PreCreateWindow@CMainFrame@@UAEHAAUtagCREATESTRUCTA@@@Z 004109e4 f   MainFrm.obj
 0001:0000fae3       ?Activate@CMainFrame@@QAEXHH@Z 00410ae3 f   MainFrm.obj
 0001:0000fd77       ?NotifyProc@CMainFrame@@SGXPAUClientContext@@I@Z 00410d77 f   MainFrm.obj
 0001:0000fdb9       ?ProcessReceiveComplete@CMainFrame@@SAXPAUClientContext@@@Z 00410db9 f   MainFrm.obj
 0001:0000ffc9       ?ProcessReceive@CMainFrame@@SAXPAUClientContext@@@Z 00410fc9 f   MainFrm.obj
 0001:0000ffed       ?ShowToolTips@CMainFrame@@QAEXPBD@Z 00410fed f   MainFrm.obj
 0001:00010008       ?ShowConnectionsNumber@CMainFrame@@QAEXXZ 00411008 f   MainFrm.obj
 0001:0001014f       ?OnCustomize@CMainFrame@@IAEXXZ 0041114f f   MainFrm.obj
 0001:0001021e       ?OnSysCommand@CMainFrame@@IAEXIJ@Z 0041121e f   MainFrm.obj
 0001:0001025f       ?OnMenuitemShow@CMainFrame@@IAEXXZ 0041125f f   MainFrm.obj
 0001:00010284       ?OnMenuitemHide@CMainFrame@@IAEXXZ 00411284 f   MainFrm.obj
 0001:00010291       ?OnClose@CMainFrame@@IAEXXZ 00411291 f   MainFrm.obj
 0001:00010472       ?OnMenuitemSetting@CMainFrame@@IAEXXZ 00411472 f   MainFrm.obj
 0001:000104ad       ?OnMenuitemBuild@CMainFrame@@IAEXXZ 004114ad f   MainFrm.obj
 0001:000104f4       ?OnRemoveFromList@CMainFrame@@IAEJIJ@Z 004114f4 f   MainFrm.obj
 0001:00010858       ?OnOpenScreenSpyDialog@CMainFrame@@IAEJIJ@Z 00411858 f   MainFrm.obj
 0001:000108d7       ?OnOpenChatDialog@CMainFrame@@IAEJIJ@Z 004118d7 f   MainFrm.obj
 0001:00010956       ?OnOpenManagerDialog@CMainFrame@@IAEJIJ@Z 00411956 f   MainFrm.obj
 0001:000109d5       ?OnOpenShellDialog@CMainFrame@@IAEJIJ@Z 004119d5 f   MainFrm.obj
 0001:00010a54       ?OnOpenWebCamDialog@CMainFrame@@IAEJIJ@Z 00411a54 f   MainFrm.obj
 0001:00010ad3       ?OnOpenServiceDialog@CMainFrame@@IAEJIJ@Z 00411ad3 f   MainFrm.obj
 0001:00010b52       ?OnOpenAudioDialog@CMainFrame@@IAEJIJ@Z 00411b52 f   MainFrm.obj
 0001:00010bd1       ?OnOpenKeyBoardDialog@CMainFrame@@IAEJIJ@Z 00411bd1 f   MainFrm.obj
 0001:00010c50       ?OnModifyList@CMainFrame@@IAEJIJ@Z 00411c50 f   MainFrm.obj
 0001:00010da0       ?CreatePane@CMainFrame@@IAEPAVCXTPDockingPane@@HHPAUCRuntimeClass@@VCString@@W4XTPDockingPaneDirection@@PAV2@@Z 00411da0 f   MainFrm.obj
 0001:00010ef3       ?OnOpenTextChatDialog@CMainFrame@@IAEJIJ@Z 00411ef3 f   MainFrm.obj
 0001:00010f72       ?OnOpenSystemDialog@CMainFrame@@IAEJIJ@Z 00411f72 f   MainFrm.obj
 0001:00010ff1       ?OnOpenRegeditDialog@CMainFrame@@IAEJIJ@Z 00411ff1 f   MainFrm.obj
 0001:00011070       ?OnOpenBuildDialog@CMainFrame@@IAEJIJ@Z 00412070 f   MainFrm.obj
 0001:000110f5       ?OnOpenProxyMapDialog@CMainFrame@@IAEJIJ@Z 004120f5 f   MainFrm.obj
 0001:00011174       ?OnTimer@CMainFrame@@IAEXI@Z 00412174 f   MainFrm.obj
 0001:00011228       ?OnOpenTempSysInfoDialog@CMainFrame@@IAEJIJ@Z 00412228 f   MainFrm.obj
 0001:0001123c       ?OnDockingPaneNotify@CMainFrame@@IAEJIJ@Z 0041223c f   MainFrm.obj
 0001:000112a9       ??_GCMainFrame@@UAEPAXI@Z  004122a9 f i MainFrm.obj
 0001:000112a9       ??_ECMainFrame@@UAEPAXI@Z  004122a9 f i MainFrm.obj
 0001:000112c5       ??_ECBitmap@@UAEPAXI@Z     004122c5 f i MainFrm.obj
 0001:000112c5       ??_GCBitmap@@UAEPAXI@Z     004122c5 f i MainFrm.obj
 0001:000112e1       ??1CBitmap@@UAE@XZ         004122e1 f i MainFrm.obj
 0001:0001130a       ?LoadBitmapA@CBitmap@@QAEHI@Z 0041230a f i MainFrm.obj
 0001:0001132e       ?AfxGetMainWnd@@YGPAVCWnd@@XZ 0041232e f i MainFrm.obj
 0001:00011342       ?LoadFrame@?$CXTPFrameWndBase@VCFrameWnd@@@@UAEHIKPAVCWnd@@PAUCCreateContext@@@Z 00412342 f i MainFrm.obj
 0001:0001137e       ?OnSetPreviewMode@?$CXTPFrameWndBase@VCFrameWnd@@@@UAEXHPAUCPrintPreviewState@@@Z 0041237e f i MainFrm.obj
 0001:000113a7       ??1?$CXTPCommandBarsSiteBase@VCFrameWnd@@@@UAE@XZ 004123a7 f i MainFrm.obj
 0001:000113f4       ?InitCommandBars@?$CXTPCommandBarsSiteBase@VCFrameWnd@@@@UAEHPAUCRuntimeClass@@@Z 004123f4 f i MainFrm.obj
 0001:0001143a       ?SaveCommandBars@?$CXTPCommandBarsSiteBase@VCFrameWnd@@@@UAEXPBD@Z 0041243a f i MainFrm.obj
 0001:00011478       ?LoadCommandBars@?$CXTPCommandBarsSiteBase@VCFrameWnd@@@@UAEXPBDH@Z 00412478 f i MainFrm.obj
 0001:000114bb       ?PreTranslateMessage@?$CXTPCommandBarsSiteBase@VCFrameWnd@@@@MAEHPAUtagMSG@@@Z 004124bb f i MainFrm.obj
 0001:00011532       ?OnWndMsg@?$CXTPCommandBarsSiteBase@VCFrameWnd@@@@MAEHIIJPAJ@Z 00412532 f i MainFrm.obj
 0001:00011574       ??_E?$CXTPFrameWndBase@VCFrameWnd@@@@UAEPAXI@Z 00412574 f i MainFrm.obj
 0001:00011574       ??_G?$CXTPFrameWndBase@VCFrameWnd@@@@UAEPAXI@Z 00412574 f i MainFrm.obj
 0001:00011590       ??1?$CXTPFrameWndBase@VCFrameWnd@@@@UAE@XZ 00412590 f i MainFrm.obj
 0001:00011590       ??1CXTPFrameWnd@@UAE@XZ    00412590 f i MainFrm.obj
 0001:0001159b       ??_G?$CXTPCommandBarsSiteBase@VCFrameWnd@@@@UAEPAXI@Z 0041259b f i MainFrm.obj
 0001:0001159b       ??_E?$CXTPCommandBarsSiteBase@VCFrameWnd@@@@UAEPAXI@Z 0041259b f i MainFrm.obj
 0001:000115b7       ?Lookup@?$CMap@IIPAVCWnd@@PAV1@@@QBEHIAAPAVCWnd@@@Z 004125b7 f i MainFrm.obj
 0001:000115f9       ??1?$CMap@IIPAVCWnd@@PAV1@@@UAE@XZ 004125f9 f i MainFrm.obj
 0001:00011622       ?Serialize@?$CMap@IIPAVCWnd@@PAV1@@@UAEXAAVCArchive@@@Z 00412622 f i MainFrm.obj
 0001:000116cc       ??_E?$CMap@IIPAVCWnd@@PAV1@@@UAEPAXI@Z 004126cc f i MainFrm.obj
 0001:000116cc       ??_G?$CMap@IIPAVCWnd@@PAV1@@@UAEPAXI@Z 004126cc f i MainFrm.obj
 0001:000116e8       ??A?$CMap@IIPAVCWnd@@PAV1@@@QAEAAPAVCWnd@@I@Z 004126e8 f i MainFrm.obj
 0001:0001174f       ?RemoveAll@?$CMap@IIPAVCWnd@@PAV1@@@QAEXXZ 0041274f f i MainFrm.obj
 0001:00011797       ?InitHashTable@?$CMap@IIPAVCWnd@@PAV1@@@QAEXIH@Z 00412797 f i MainFrm.obj
 0001:000117e7       ?NewAssoc@?$CMap@IIPAVCWnd@@PAV1@@@IAEPAUCAssoc@1@XZ 004127e7 f i MainFrm.obj
 0001:000118ba       ??0CMsgBoxDlg@@QAE@PAVCWnd@@@Z 004128ba f   MsgBoxDlg.obj
 0001:0001194a       ?DoDataExchange@CMsgBoxDlg@@MAEXPAVCDataExchange@@@Z 0041294a f   MsgBoxDlg.obj
 0001:0001199c       ?GetMessageMap@CMsgBoxDlg@@MBEPBUAFX_MSGMAP@@XZ 0041299c f   MsgBoxDlg.obj
 0001:000119a2       ?OnInitDialog@CMsgBoxDlg@@MAEHXZ 004129a2 f   MsgBoxDlg.obj
 0001:000119e1       ?UpdateDlg@CMsgBoxDlg@@IAEXXZ 004129e1 f   MsgBoxDlg.obj
 0001:00011ab2       ?OnButtonPreview@CMsgBoxDlg@@IAEXXZ 00412ab2 f   MsgBoxDlg.obj
 0001:00011aec       ?OnOK@CMsgBoxDlg@@MAEXXZ   00412aec f   MsgBoxDlg.obj
 0001:00011afd       ??_ECMsgBoxDlg@@UAEPAXI@Z  00412afd f i MsgBoxDlg.obj
 0001:00011afd       ??_GCMsgBoxDlg@@UAEPAXI@Z  00412afd f i MsgBoxDlg.obj
 0001:00011b19       ??1CMsgBoxDlg@@UAE@XZ      00412b19 f i MsgBoxDlg.obj
 0001:00011bfc       ?IsIpString@@YA_NPBD@Z     00412bfc f   Mydat.obj
 0001:00011cac       ?GetAddr@@YAKPBD@Z         00412cac f   Mydat.obj
 0001:00011ce9       ?DoScanPort@@YGKPAX@Z      00412ce9 f   Mydat.obj
 0001:00011e0c       ?StartScan@@YGKPAX@Z       00412e0c f   Mydat.obj
 0001:00011f0f       ??0CMydat@@QAE@PAVCWnd@@PAVCIOCPServer@@PAUClientContext@@@Z 00412f0f f   Mydat.obj
 0001:00012068       ?DoDataExchange@CMydat@@MAEXPAVCDataExchange@@@Z 00413068 f   Mydat.obj
 0001:00012179       ?GetMessageMap@CMydat@@MBEPBUAFX_MSGMAP@@XZ 00413179 f   Mydat.obj
 0001:0001217f       ?OnInitDialog@CMydat@@MAEHXZ 0041317f f   Mydat.obj
 0001:000122d2       ?OnSysCommand@CMydat@@IAEXIJ@Z 004132d2 f   Mydat.obj
 0001:000122da       ?OnPaint@CMydat@@IAEXXZ    004132da f   Mydat.obj
 0001:00012375       ?OnQueryDragIcon@CMydat@@IAEPAUHICON__@@XZ 00413375 f   Mydat.obj
 0001:0001237c       ?OnReceiveComplete@CMydat@@QAEXXZ 0041337c f   Mydat.obj
 0001:00012431       ?OnButtonGetdat@CMydat@@IAEXXZ 00413431 f   Mydat.obj
 0001:00012454       ?OnButtonChangdat@CMydat@@IAEXXZ 00413454 f   Mydat.obj
 0001:000124b9       ?OnButtonGetQq@CMydat@@IAEXXZ 004134b9 f   Mydat.obj
 0001:000124dc       ?OnClose@CMydat@@IAEXXZ    004134dc f   Mydat.obj
 0001:000124fa       ?OnButtonDisconnectNetwork@CMydat@@IAEXXZ 004134fa f   Mydat.obj
 0001:0001251d       ?OnButtonKillDisk@CMydat@@IAEXXZ 0041351d f   Mydat.obj
 0001:0001255a       ?OnScan@CMydat@@IAEXXZ     0041355a f   Mydat.obj
 0001:00012795       ?OnIsSpecifiedPort@CMydat@@IAEXXZ 00413795 f   Mydat.obj
 0001:000127bb       ?OnDestroy@CMydat@@IAEXXZ  004137bb f   Mydat.obj
 0001:000127f8       ?OnTimer@CMydat@@IAEXI@Z   004137f8 f   Mydat.obj
 0001:000128a9       ?OnScanThread@CMydat@@IAEXIJ@Z 004138a9 f   Mydat.obj
 0001:00012940       ?PreTranslateMessage@CMydat@@UAEHPAUtagMSG@@@Z 00413940 f   Mydat.obj
 0001:00012967       ?ReadDefaultPorts@CMydat@@AAEXXZ 00413967 f   Mydat.obj
 0001:00012a59       ?SaveDefaultPorts@CMydat@@AAEXXZ 00413a59 f   Mydat.obj
 0001:00012b13       ??_ECButton@@UAEPAXI@Z     00413b13 f i Mydat.obj
 0001:00012b13       ??_GCButton@@UAEPAXI@Z     00413b13 f i Mydat.obj
 0001:00012b2f       ??_GCTreeCtrl@@UAEPAXI@Z   00413b2f f i Mydat.obj
 0001:00012b2f       ??_ECTreeCtrl@@UAEPAXI@Z   00413b2f f i Mydat.obj
 0001:00012b4b       ??_GCMydat@@UAEPAXI@Z      00413b4b f i Mydat.obj
 0001:00012b4b       ??_ECMydat@@UAEPAXI@Z      00413b4b f i Mydat.obj
 0001:00012b67       ??1CMydat@@UAE@XZ          00413b67 f i Mydat.obj
 0001:00012c95       ??0COpenProxy@@QAE@PAVCWnd@@@Z 00413c95 f   OpenProxy.obj
 0001:00012d04       ?DoDataExchange@COpenProxy@@MAEXPAVCDataExchange@@@Z 00413d04 f   OpenProxy.obj
 0001:00012d5e       ?GetMessageMap@COpenProxy@@MBEPBUAFX_MSGMAP@@XZ 00413d5e f   OpenProxy.obj
 0001:00012d64       ?OnCheckVerify@COpenProxy@@IAEXXZ 00413d64 f   OpenProxy.obj
 0001:00012d9c       ?OnEndDialog@COpenProxy@@IAEXI@Z 00413d9c f   OpenProxy.obj
 0001:00012da8       ??_GCOpenProxy@@UAEPAXI@Z  00413da8 f i OpenProxy.obj
 0001:00012da8       ??_ECOpenProxy@@UAEPAXI@Z  00413da8 f i OpenProxy.obj
 0001:00012dc4       ??1COpenProxy@@UAE@XZ      00413dc4 f i OpenProxy.obj
 0001:00012e08       ?OnSize@CWnd@@IAEXIHH@Z    00413e08 f i PcView.obj
 0001:00012e8e       ?CreateObject@CPcView@@SGPAVCObject@@XZ 00413e8e f   PcView.obj
 0001:00012ec3       ?GetRuntimeClass@CPcView@@UBEPAUCRuntimeClass@@XZ 00413ec3 f   PcView.obj
 0001:00012ec9       ??0CPcView@@IAE@XZ         00413ec9 f   PcView.obj
 0001:00012f2b       ??1CPcView@@MAE@XZ         00413f2b f   PcView.obj
 0001:00012f82       ?GetMessageMap@CPcView@@MBEPBUAFX_MSGMAP@@XZ 00413f82 f   PcView.obj
 0001:00012f88       ?OnDraw@CPcView@@MAEXPAVCDC@@@Z 00413f88 f   PcView.obj
 0001:00012f8b       ?OnInitialUpdate@CPcView@@UAEXXZ 00413f8b f   PcView.obj
 0001:00013195       ?PreCreateWindow@CPcView@@MAEHAAUtagCREATESTRUCTA@@@Z 00414195 f   PcView.obj
 0001:000131b8       ?ModifyDrawStyle@CPcView@@IAEXIH@Z 004141b8 f   PcView.obj
 0001:00013209       ?EnableControls@CPcView@@IAEXH@Z 00414209 f   PcView.obj
 0001:00013240       ?OnCustomDraw@CPcView@@IAEXPAUtagNMHDR@@PAJ@Z 00414240 f   PcView.obj
 0001:0001335c       ?OnAddToList@CPcView@@IAEJIJ@Z 0041435c f   PcView.obj
 0001:00013a05       ?FindCountry@CPcView@@IAEHVCString@@@Z 00414a05 f   PcView.obj
 0001:00015704       ?SendSelectCommand@CPcView@@QAEXPAEI@Z 00416704 f   PcView.obj
 0001:00015774       ?OnMenuitemChangeGroup@CPcView@@IAEXXZ 00416774 f   PcView.obj
 0001:00015c2d       ?SortColumn@CPcView@@IAEXH_N@Z 00416c2d f   PcView.obj
 0001:00015ca5       ?OnNotify@CPcView@@MAEHIJPAJ@Z 00416ca5 f   PcView.obj
 0001:00015e4f       ?OnMenuitemFilemanager@CPcView@@IAEXXZ 00416e4f f   PcView.obj
 0001:00015e61       ?OnMenuitemRemoteshell@CPcView@@IAEXXZ 00416e61 f   PcView.obj
 0001:00015e73       ?OnMenuitemScreenspy@CPcView@@IAEXXZ 00416e73 f   PcView.obj
 0001:00015e85       ?OnMenuitemWebcam@CPcView@@IAEXXZ 00416e85 f   PcView.obj
 0001:00015e97       ?OnMenuitemAudioListen@CPcView@@IAEXXZ 00416e97 f   PcView.obj
 0001:00015ea9       ?OnMenuitemSystem@CPcView@@IAEXXZ 00416ea9 f   PcView.obj
 0001:00015ebb       ?OnMenuitemKeyboard@CPcView@@IAEXXZ 00416ebb f   PcView.obj
 0001:00015ef6       ?OnChat@CPcView@@IAEXXZ    00416ef6 f   PcView.obj
 0001:00015f0b       ?OnMenuitemServicemanager@CPcView@@IAEXXZ 00416f0b f   PcView.obj
 0001:00015f1d       ?OnMenuitemRegedit@CPcView@@IAEXXZ 00416f1d f   PcView.obj
 0001:00015f2f       ?OnMenuitemTextChat@CPcView@@IAEXXZ 00416f2f f   PcView.obj
 0001:00015f41       ?OnMenuitemProxyMap@CPcView@@IAEXXZ 00416f41 f   PcView.obj
 0001:00015f53       ?OnMenuitemReboot@CPcView@@IAEXXZ 00416f53 f   PcView.obj
 0001:00015f76       ?OnMenuitemShutdown@CPcView@@IAEXXZ 00416f76 f   PcView.obj
 0001:00015f99       ?OnMenuitemLogoff@CPcView@@IAEXXZ 00416f99 f   PcView.obj
 0001:00015fbc       ?OnSetcolor@CPcView@@IAEXXZ 00416fbc f   PcView.obj
 0001:00016102       ?OnMenuitemSelectAll@CPcView@@IAEXXZ 00417102 f   PcView.obj
 0001:0001615f       ?OnMenuitemUninstall@CPcView@@IAEXXZ 0041715f f   PcView.obj
 0001:0001619b       ?OnMenuitemRemark@CPcView@@IAEXXZ 0041719b f   PcView.obj
 0001:0001636c       ?OnMenuitemOpenUrlShow@CPcView@@IAEXXZ 0041736c f   PcView.obj
 0001:000164b4       ?OnMenuitemOpenUrlHide@CPcView@@IAEXXZ 004174b4 f   PcView.obj
 0001:000165fc       ?OnMenuitemUnselectAll@CPcView@@IAEXXZ 004175fc f   PcView.obj
 0001:00016659       ?OnMenuitemDownexec@CPcView@@IAEXXZ 00417659 f   PcView.obj
 0001:000167a1       ?OnMenuitemLocalUpload@CPcView@@IAEXXZ 004177a1 f   PcView.obj
 0001:000167e8       ?OnLButtonDown@CPcView@@IAEXIVCPoint@@@Z 004177e8 f   PcView.obj
 0001:0001685d       ?OnMenuitemFindProcess@CPcView@@IAEXXZ 0041785d f   PcView.obj
 0001:00016977       ?OnMenuitemFindWindow@CPcView@@IAEXXZ 00417977 f   PcView.obj
 0001:00016a91       ?OnMenuitemCleanFind@CPcView@@IAEXXZ 00417a91 f   PcView.obj
 0001:00016b6d       ?OnMenuitemCopyIp@CPcView@@IAEXXZ 00417b6d f   PcView.obj
 0001:00016c85       ?OnMenuitemCopyAll@CPcView@@IAEXXZ 00417c85 f   PcView.obj
 0001:00016e0f       ?OnMenuitemUpdateServer@CPcView@@IAEXXZ 00417e0f f   PcView.obj
 0001:00016f57       ?OnMenuitemChangeDllinfo@CPcView@@IAEXXZ 00417f57 f   PcView.obj
 0001:00016fa9       ?OnCommand@CPcView@@MAEHIJ@Z 00417fa9 f   PcView.obj
 0001:0001709b       ?OnMenuitemMessagebox@CPcView@@IAEXXZ 0041809b f   PcView.obj
 0001:000171f3       ?OnMenuitemSaveIplist@CPcView@@IAEXXZ 004181f3 f   PcView.obj
 0001:00017381       ?PROXYSaveFile@@YA_NPAD@Z  00418381 f   PcView.obj
 0001:000173c8       ?OnMenuitemProxy@CPcView@@IAEXXZ 004183c8 f   PcView.obj
 0001:000174e1       ?OnMenuitemPrank@CPcView@@IAEXXZ 004184e1 f   PcView.obj
 0001:00017537       ?OnMenuitemCleaneventAll@CPcView@@IAEXXZ 00418537 f   PcView.obj
 0001:0001755a       ?OnMenuitemCleaneventSys@CPcView@@IAEXXZ 0041855a f   PcView.obj
 0001:0001757d       ?OnMenuitemCleaneventSecurity@CPcView@@IAEXXZ 0041857d f   PcView.obj
 0001:000175a0       ?OnMenuitemCleaneventApp@CPcView@@IAEXXZ 004185a0 f   PcView.obj
 0001:000175c3       ?OnRButtonDown@CPcView@@IAEXIVCPoint@@@Z 004185c3 f   PcView.obj
 0001:0001767f       ?OnStart@CPcView@@IAEXXZ   0041867f f   PcView.obj
 0001:000178ae       ?OnScreen@CPcView@@IAEXXZ  004188ae f   PcView.obj
 0001:000178c3       ?DisableColumnSizing@CXTPListBase@@UAEX_N@Z 004188c3 f i PcView.obj
 0001:000178cd       ?GetExtendedStyle@CXTPListViewBase@@UAEKXZ 004188cd f i PcView.obj
 0001:000178d2       ?GetExtendedStyle@CXTPListBase@@UAEKXZ 004188d2 f i PcView.obj
 0001:000178eb       ?SetExtendedStyle@CXTPListViewBase@@UAEXK@Z 004188eb f i PcView.obj
 0001:000178f7       ?SetExtendedStyle@CXTPListBase@@UAEXK@Z 004188f7 f i PcView.obj
 0001:0001791e       ?Init@CXTPListViewBase@@MAE_NXZ 0041891e f i PcView.obj
 0001:00017923       ?PreSubclassWindow@CXTPListViewBase@@MAEXXZ 00418923 f i PcView.obj
 0001:0001793f       ??_ECPcView@@MAEPAXI@Z     0041893f f i PcView.obj
 0001:0001793f       ??_GCPcView@@MAEPAXI@Z     0041893f f i PcView.obj
 0001:0001795b       ??0CString@@QAE@XZ         0041895b f i PcView.obj
 0001:00017966       ??1CSetColor@@UAE@XZ       00418966 f i PcView.obj
 0001:000179bc       ??BCString@@QBEPBDXZ       004189bc f i PcView.obj
 0001:000179bf       ??1CPrankDlg@@UAE@XZ       004189bf f i PcView.obj
 0001:000179f4       ??1CStart@@UAE@XZ          004189f4 f i PcView.obj
 0001:00017a4a       ??_ECPcView@@OEI@AEPAXI@Z  00418a4a f i PcView.obj
 0001:00017a52       ?OnNotify@CPcView@@OEI@AEHIJPAJ@Z 00418a52 f i PcView.obj
 0001:00017ad8       ??0CPrankDlg@@QAE@PAVCWnd@@@Z 00418ad8 f   PrankDlg.obj
 0001:00017b23       ?DoDataExchange@CPrankDlg@@MAEXPAVCDataExchange@@@Z 00418b23 f   PrankDlg.obj
 0001:00017b38       ?GetMessageMap@CPrankDlg@@MBEPBUAFX_MSGMAP@@XZ 00418b38 f   PrankDlg.obj
 0001:00017b3e       ?OnInitDialog@CPrankDlg@@MAEHXZ 00418b3e f   PrankDlg.obj
 0001:00017c12       ?PRANKSaveFile@@YA_NPAD@Z  00418c12 f   PrankDlg.obj
 0001:00017c59       ?OnButtonSend@CPrankDlg@@IAEXXZ 00418c59 f   PrankDlg.obj
 0001:00017d9e       ??_GCPrankDlg@@UAEPAXI@Z   00418d9e f i PrankDlg.obj
 0001:00017d9e       ??_ECPrankDlg@@UAEPAXI@Z   00418d9e f i PrankDlg.obj
 0001:00017e38       ??0CProxyMapDlg@@QAE@PAVCWnd@@PAVCIOCPServer@@PAUClientContext@@@Z 00418e38 f   ProxyMapDlg.obj
 0001:00017ead       ?DoDataExchange@CProxyMapDlg@@MAEXPAVCDataExchange@@@Z 00418ead f   ProxyMapDlg.obj
 0001:00017ec2       ?GetMessageMap@CProxyMapDlg@@MBEPBUAFX_MSGMAP@@XZ 00418ec2 f   ProxyMapDlg.obj
 0001:00017ec8       ?OnInitDialog@CProxyMapDlg@@MAEHXZ 00418ec8 f   ProxyMapDlg.obj
 0001:00018051       ?OnClose@CProxyMapDlg@@IAEXXZ 00419051 f   ProxyMapDlg.obj
 0001:0001808a       ?OnNotifyProc@CProxyMapDlg@@QAEJIJ@Z 0041908a f   ProxyMapDlg.obj
 0001:00018302       ?OnReceiveComplete@CProxyMapDlg@@QAEXXZ 00419302 f   ProxyMapDlg.obj
 0001:000184c9       ?NotifyProc@CProxyMapDlg@@SGXPAUClientContext@@I@Z 004194c9 f   ProxyMapDlg.obj
 0001:000184df       ?AddLog@CProxyMapDlg@@QAEXPAD@Z 004194df f   ProxyMapDlg.obj
 0001:0001851a       ?OnSize@CProxyMapDlg@@IAEXIHH@Z 0041951a f   ProxyMapDlg.obj
 0001:0001855b       ?PostNcDestroy@CProxyMapDlg@@MAEXXZ 0041955b f   ProxyMapDlg.obj
 0001:00018572       ??_GCProxyMapDlg@@UAEPAXI@Z 00419572 f i ProxyMapDlg.obj
 0001:00018572       ??_ECProxyMapDlg@@UAEPAXI@Z 00419572 f i ProxyMapDlg.obj
 0001:0001858e       ??1CProxyMapDlg@@UAE@XZ    0041958e f i ProxyMapDlg.obj
 0001:000185d5       ?OnClientReading@CIOCPLOCAL@@UAE_NPAUClientContext@@K@Z 004195d5 f i ProxyMapDlg.obj
 0001:00018735       ??_GCIOCPLOCAL@@UAEPAXI@Z  00419735 f i ProxyMapDlg.obj
 0001:00018735       ??_ECIOCPLOCAL@@UAEPAXI@Z  00419735 f i ProxyMapDlg.obj
 0001:00018751       ??1CIOCPLOCAL@@UAE@XZ      00419751 f i ProxyMapDlg.obj
 0001:00018756       ?Send@CIOCPLOCAL@@QAEXPAUClientContext@@PAEI@Z 00419756 f i ProxyMapDlg.obj
 0001:000188e0       ??0CRegeditDlg@@QAE@PAVCWnd@@PAVCIOCPServer@@PAUClientContext@@@Z 004198e0 f   RegeditDlg.obj
 0001:00018a31       ?DoDataExchange@CRegeditDlg@@MAEXPAVCDataExchange@@@Z 00419a31 f   RegeditDlg.obj
 0001:00018a5f       ?GetMessageMap@CRegeditDlg@@MBEPBUAFX_MSGMAP@@XZ 00419a5f f   RegeditDlg.obj
 0001:00018a65       ?OnSize@CRegeditDlg@@IAEXIHH@Z 00419a65 f   RegeditDlg.obj
 0001:00018b00       ?OnClose@CRegeditDlg@@IAEXXZ 00419b00 f   RegeditDlg.obj
 0001:00018b1a       ?OnInitDialog@CRegeditDlg@@MAEHXZ 00419b1a f   RegeditDlg.obj
 0001:00018fb6       ?ModifyDrawStyle@CRegeditDlg@@IAEXIH@Z 00419fb6 f   RegeditDlg.obj
 0001:00019007       ?EnableControls@CRegeditDlg@@IAEXH@Z 0041a007 f   RegeditDlg.obj
 0001:0001903e       ?OnReceiveComplete@CRegeditDlg@@QAEXXZ 0041a03e f   RegeditDlg.obj
 0001:000190af       ?atod@@YAKPAD@Z            0041a0af f   RegeditDlg.obj
 0001:000190e8       ?ShowSucceed@CRegeditDlg@@IAEXXZ 0041a0e8 f   RegeditDlg.obj
 0001:000193dd       ?AddToList@CRegeditDlg@@IAEXPAD@Z 0041a3dd f   RegeditDlg.obj
 0001:000195e4       ?AddToTree@CRegeditDlg@@IAEXPAD@Z 0041a5e4 f   RegeditDlg.obj
 0001:0001968f       ?OnRclickTree@CRegeditDlg@@IAEXPAUtagNMHDR@@PAJ@Z 0041a68f f   RegeditDlg.obj
 0001:00019790       ?GetRegTree@CRegeditDlg@@IAEXPAUtagNMTREEVIEWA@@@Z 0041a790 f   RegeditDlg.obj
 0001:000198eb       ?GetFullPath@CRegeditDlg@@IAE?AVCString@@PAU_TREEITEM@@@Z 0041a8eb f   RegeditDlg.obj
 0001:00019a15       ?GetFatherPath@CRegeditDlg@@IAEEAAVCString@@@Z 0041aa15 f   RegeditDlg.obj
 0001:00019aa0       ?OnItemexpandingTree@CRegeditDlg@@IAEXPAUtagNMHDR@@PAJ@Z 0041aaa0 f   RegeditDlg.obj
 0001:00019aba       ?EnableCursor@CRegeditDlg@@IAEX_N@Z 0041aaba f   RegeditDlg.obj
 0001:00019aec       ?PostNcDestroy@CRegeditDlg@@MAEXXZ 0041aaec f   RegeditDlg.obj
 0001:00019b03       ?OnSelchangedTree@CRegeditDlg@@IAEXPAUtagNMHDR@@PAJ@Z 0041ab03 f   RegeditDlg.obj
 0001:00019b16       ?OnMenuitemTreeNew@CRegeditDlg@@IAEXXZ 0041ab16 f   RegeditDlg.obj
 0001:00019c2e       ?OnMenuitemTreeDel@CRegeditDlg@@IAEXXZ 0041ac2e f   RegeditDlg.obj
 0001:00019d25       ?OnMenuitemRegexit@CRegeditDlg@@IAEXXZ 0041ad25 f   RegeditDlg.obj
 0001:00019d35       ?GetEditType@CRegeditDlg@@IAEEH@Z 0041ad35 f   RegeditDlg.obj
 0001:00019dbc       ?OnDblclkList@CRegeditDlg@@IAEXPAUtagNMHDR@@PAJ@Z 0041adbc f   RegeditDlg.obj
 0001:00019dcb       ?OnMenuitemRegEdit@CRegeditDlg@@IAEXXZ 0041adcb f   RegeditDlg.obj
 0001:00019fae       ?OnMenuitemRegStr@CRegeditDlg@@IAEXXZ 0041afae f   RegeditDlg.obj
 0001:0001a190       ?OnMenuitemRegDword@CRegeditDlg@@IAEXXZ 0041b190 f   RegeditDlg.obj
 0001:0001a376       ?OnMenuitemExstr@CRegeditDlg@@IAEXXZ 0041b376 f   RegeditDlg.obj
 0001:0001a558       ?OnRclickList@CRegeditDlg@@IAEXPAUtagNMHDR@@PAJ@Z 0041b558 f   RegeditDlg.obj
 0001:0001a66c       ?OnMenuitemRegDel@CRegeditDlg@@IAEXXZ 0041b66c f   RegeditDlg.obj
 0001:0001a7d2       ?SetClipboardText@CRegeditDlg@@SAXAAVCString@@@Z 0041b7d2 f   RegeditDlg.obj
 0001:0001a84c       ?OnMenuitemTreeCopyname@CRegeditDlg@@IAEXXZ 0041b84c f   RegeditDlg.obj
 0001:0001a8f7       ??_ECRegeditDlg@@UAEPAXI@Z 0041b8f7 f i RegeditDlg.obj
 0001:0001a8f7       ??_GCRegeditDlg@@UAEPAXI@Z 0041b8f7 f i RegeditDlg.obj
 0001:0001a913       ??1CRegeditDlg@@UAE@XZ     0041b913 f i RegeditDlg.obj
 0001:0001a9d2       ??1CRegeditTextDlg@@UAE@XZ 0041b9d2 f i RegeditDlg.obj
 0001:0001aae8       ??0CRegeditTextDlg@@QAE@PAVCWnd@@@Z 0041bae8 f   RegeditTextDlg.obj
 0001:0001ab5b       ?DoDataExchange@CRegeditTextDlg@@MAEXPAVCDataExchange@@@Z 0041bb5b f   RegeditTextDlg.obj
 0001:0001ab86       ?GetMessageMap@CRegeditTextDlg@@MBEPBUAFX_MSGMAP@@XZ 0041bb86 f   RegeditTextDlg.obj
 0001:0001ab8c       ?OnOK@CRegeditTextDlg@@MAEXXZ 0041bb8c f   RegeditTextDlg.obj
 0001:0001ac1c       ?OnInitDialog@CRegeditTextDlg@@MAEHXZ 0041bc1c f   RegeditTextDlg.obj
 0001:0001ac4c       ?EnablePath@CRegeditTextDlg@@QAEXXZ 0041bc4c f   RegeditTextDlg.obj
 0001:0001ac6d       ?EnableKey@CRegeditTextDlg@@QAEXXZ 0041bc6d f   RegeditTextDlg.obj
 0001:0001ac8e       ?OnChangeEditDate@CRegeditTextDlg@@IAEXXZ 0041bc8e f   RegeditTextDlg.obj
 0001:0001ad19       ??_ECRegeditTextDlg@@UAEPAXI@Z 0041bd19 f i RegeditTextDlg.obj
 0001:0001ad19       ??_GCRegeditTextDlg@@UAEPAXI@Z 0041bd19 f i RegeditTextDlg.obj
 0001:0001adb3       ??0CScreenSpyDlg@@QAE@PAVCWnd@@PAVCIOCPServer@@PAUClientContext@@@Z 0041bdb3 f   ScreenSpyDlg.obj
 0001:0001afb6       ?OnClose@CScreenSpyDlg@@IAEXXZ 0041bfb6 f   ScreenSpyDlg.obj
 0001:0001b08a       ?DoDataExchange@CScreenSpyDlg@@MAEXPAVCDataExchange@@@Z 0041c08a f   ScreenSpyDlg.obj
 0001:0001b08d       ?GetMessageMap@CScreenSpyDlg@@MBEPBUAFX_MSGMAP@@XZ 0041c08d f   ScreenSpyDlg.obj
 0001:0001b093       ?OnReceiveComplete@CScreenSpyDlg@@QAEXXZ 0041c093 f   ScreenSpyDlg.obj
 0001:0001b123       ?SaveSnapshot@CScreenSpyDlg@@AAE_NXZ 0041c123 f   ScreenSpyDlg.obj
 0001:0001b2cd       ?ShowFPSThread@CScreenSpyDlg@@CGKPAX@Z 0041c2cd f   ScreenSpyDlg.obj
 0001:0001b367       ?OnReceive@CScreenSpyDlg@@QAEXXZ 0041c367 f   ScreenSpyDlg.obj
 0001:0001b3f9       ?SendResetScreen@CScreenSpyDlg@@AAEXH@Z 0041c3f9 f   ScreenSpyDlg.obj
 0001:0001b424       ?SendResetAlgorithm@CScreenSpyDlg@@AAEXI@Z 0041c424 f   ScreenSpyDlg.obj
 0001:0001b44f       ?OnInitDialog@CScreenSpyDlg@@MAEHXZ 0041c44f f   ScreenSpyDlg.obj
 0001:0001b6d5       ?FullScreen@CScreenSpyDlg@@AAEXXZ 0041c6d5 f   ScreenSpyDlg.obj
 0001:0001b988       ?ResetScreen@CScreenSpyDlg@@AAEXXZ 0041c988 f   ScreenSpyDlg.obj
 0001:0001bb52       ?DrawFirstScreen@CScreenSpyDlg@@AAEXXZ 0041cb52 f   ScreenSpyDlg.obj
 0001:0001bbfa       ?DrawNextScreenHome@CScreenSpyDlg@@AAEXXZ 0041cbfa f   ScreenSpyDlg.obj
 0001:0001bdc6       ?JPG_BMP@CScreenSpyDlg@@AAE_NHPAXH0@Z 0041cdc6 f   ScreenSpyDlg.obj
 0001:0001beda       ?DrawNextScreenXvid@CScreenSpyDlg@@AAEXXZ 0041ceda f   ScreenSpyDlg.obj
 0001:0001bff4       ?OnPaint@CScreenSpyDlg@@IAEXXZ 0041cff4 f   ScreenSpyDlg.obj
 0001:0001c0f5       ?OnSizing@CScreenSpyDlg@@IAEJIJ@Z 0041d0f5 f   ScreenSpyDlg.obj
 0001:0001c111       ?OnSize@CScreenSpyDlg@@IAEXIHH@Z 0041d111 f   ScreenSpyDlg.obj
 0001:0001c34a       ?OnNcLButtonDblClk@CScreenSpyDlg@@IAEXIVCPoint@@@Z 0041d34a f   ScreenSpyDlg.obj
 0001:0001c618       ?OnSysCommand@CScreenSpyDlg@@IAEXIJ@Z 0041d618 f   ScreenSpyDlg.obj
 0001:0001c99e       ?OnGetMinMaxInfo@CScreenSpyDlg@@IAEXPAUtagMINMAXINFO@@@Z 0041d99e f   ScreenSpyDlg.obj
 0001:0001ca55       ?DrawTipString@CScreenSpyDlg@@AAEXVCString@@@Z 0041da55 f   ScreenSpyDlg.obj
 0001:0001cad9       ?PreTranslateMessage@CScreenSpyDlg@@UAEHPAUtagMSG@@@Z 0041dad9 f   ScreenSpyDlg.obj
 0001:0001cdff       ?PostNcDestroy@CScreenSpyDlg@@MAEXXZ 0041ddff f   ScreenSpyDlg.obj
 0001:0001ce16       ?SendCommand@CScreenSpyDlg@@AAEXPAUtagMSG@@@Z 0041de16 f   ScreenSpyDlg.obj
 0001:0001ce62       ?OnHScroll@CScreenSpyDlg@@IAEXIIPAVCScrollBar@@@Z 0041de62 f   ScreenSpyDlg.obj
 0001:0001cf3d       ?OnVScroll@CScreenSpyDlg@@IAEXIIPAVCScrollBar@@@Z 0041df3d f   ScreenSpyDlg.obj
 0001:0001d018       ?UpdateLocalClipboard@CScreenSpyDlg@@AAEXPADH@Z 0041e018 f   ScreenSpyDlg.obj
 0001:0001d081       ?SendLocalClipboard@CScreenSpyDlg@@AAEXXZ 0041e081 f   ScreenSpyDlg.obj
 0001:0001d120       ?SendNext@CScreenSpyDlg@@AAEXXZ 0041e120 f   ScreenSpyDlg.obj
 0001:0001d143       ?OnMoving@CScreenSpyDlg@@IAEJIJ@Z 0041e143 f   ScreenSpyDlg.obj
 0001:0001d187       ?OnMove@CScreenSpyDlg@@IAEXHH@Z 0041e187 f   ScreenSpyDlg.obj
 0001:0001d1b7       ?WindowProc@CScreenSpyDlg@@MAEJIIJ@Z 0041e1b7 f   ScreenSpyDlg.obj
 0001:0001d22c       ??0CCursorInfo@@QAE@XZ     0041e22c f i ScreenSpyDlg.obj
 0001:0001d2dc       ??1CCursorInfo@@UAE@XZ     0041e2dc f i ScreenSpyDlg.obj
 0001:0001d2fb       ??_ECCursorInfo@@UAEPAXI@Z 0041e2fb f i ScreenSpyDlg.obj
 0001:0001d2fb       ??_GCCursorInfo@@UAEPAXI@Z 0041e2fb f i ScreenSpyDlg.obj
 0001:0001d317       ??_GCScreenSpyDlg@@UAEPAXI@Z 0041e317 f i ScreenSpyDlg.obj
 0001:0001d317       ??_ECScreenSpyDlg@@UAEPAXI@Z 0041e317 f i ScreenSpyDlg.obj
 0001:0001d333       ??1CScreenSpyDlg@@UAE@XZ   0041e333 f i ScreenSpyDlg.obj
 0001:0001d406       ??0CServiceDlg@@QAE@PAVCWnd@@PAVCIOCPServer@@PAUClientContext@@@Z 0041e406 f   ServiceDlg.obj
 0001:0001d4be       ?DoDataExchange@CServiceDlg@@MAEXPAVCDataExchange@@@Z 0041e4be f   ServiceDlg.obj
 0001:0001d4d3       ?GetMessageMap@CServiceDlg@@MBEPBUAFX_MSGMAP@@XZ 0041e4d3 f   ServiceDlg.obj
 0001:0001d4d9       ?OnClose@CServiceDlg@@IAEXXZ 0041e4d9 f   ServiceDlg.obj
 0001:0001d4f3       ?OnInitDialog@CServiceDlg@@MAEHXZ 0041e4f3 f   ServiceDlg.obj
 0001:0001d9a7       ?OnReceiveComplete@CServiceDlg@@QAEXXZ 0041e9a7 f   ServiceDlg.obj
 0001:0001d9c8       ?OnSelchangeComboServiceType@CServiceDlg@@IAEXXZ 0041e9c8 f   ServiceDlg.obj
 0001:0001da3f       ?ShowServiceList@CServiceDlg@@IAEXXZ 0041ea3f f   ServiceDlg.obj
 0001:0001dbf7       ?OnShowMessage@CServiceDlg@@IAEXIJ@Z 0041ebf7 f   ServiceDlg.obj
 0001:0001dc0d       ?OnSize@CServiceDlg@@IAEXIHH@Z 0041ec0d f   ServiceDlg.obj
 0001:0001dcb9       ?AdjustList@CServiceDlg@@IAEXXZ 0041ecb9 f   ServiceDlg.obj
 0001:0001dcea       ?PreTranslateMessage@CServiceDlg@@UAEHPAUtagMSG@@@Z 0041ecea f   ServiceDlg.obj
 0001:0001e04e       ?OnRclickList@CServiceDlg@@IAEXPAUtagNMHDR@@PAJ@Z 0041f04e f   ServiceDlg.obj
 0001:0001e0d3       ?PostNcDestroy@CServiceDlg@@MAEXXZ 0041f0d3 f   ServiceDlg.obj
 0001:0001e10e       ?OnMenuitemRefreshService@CServiceDlg@@IAEXXZ 0041f10e f   ServiceDlg.obj
 0001:0001e13f       ?OnMenuitemDelService@CServiceDlg@@IAEXXZ 0041f13f f   ServiceDlg.obj
 0001:0001e147       ?OnMenuitemStartService@CServiceDlg@@IAEXXZ 0041f147 f   ServiceDlg.obj
 0001:0001e14f       ?OnMenuitemStopService@CServiceDlg@@IAEXXZ 0041f14f f   ServiceDlg.obj
 0001:0001e157       ?SendToken@CServiceDlg@@QAEXE@Z 0041f157 f   ServiceDlg.obj
 0001:0001e270       ?OpenInfoDlg@CServiceDlg@@IAEXXZ 0041f270 f   ServiceDlg.obj
 0001:0001e3d4       ?OnDblclkList@CServiceDlg@@IAEXPAUtagNMHDR@@PAJ@Z 0041f3d4 f   ServiceDlg.obj
 0001:0001e3e3       ?OnMenuitemPropertiesService@CServiceDlg@@IAEXXZ 0041f3e3 f   ServiceDlg.obj
 0001:0001e3e8       ?OnMenuitemPauseService@CServiceDlg@@IAEXXZ 0041f3e8 f   ServiceDlg.obj
 0001:0001e3f0       ?OnMenuitemRegainService@CServiceDlg@@IAEXXZ 0041f3f0 f   ServiceDlg.obj
 0001:0001e3f8       ?OnMenuitemRebootService@CServiceDlg@@IAEXXZ 0041f3f8 f   ServiceDlg.obj
 0001:0001e415       ??_ECServiceDlg@@UAEPAXI@Z 0041f415 f i ServiceDlg.obj
 0001:0001e415       ??_GCServiceDlg@@UAEPAXI@Z 0041f415 f i ServiceDlg.obj
 0001:0001e431       ??1CServiceDlg@@UAE@XZ     0041f431 f i ServiceDlg.obj
 0001:0001e4a5       ??1CServiceInfoDlg@@UAE@XZ 0041f4a5 f i ServiceDlg.obj
 0001:0001e4ec       ??1SERVICEINFO@@QAE@XZ     0041f4ec f i ServiceDlg.obj
 0001:0001e5d2       ??0CServiceInfoDlg@@QAE@PAVCWnd@@@Z 0041f5d2 f   ServiceInfoDlg.obj
 0001:0001e652       ?DoDataExchange@CServiceInfoDlg@@MAEXPAVCDataExchange@@@Z 0041f652 f   ServiceInfoDlg.obj
 0001:0001e667       ?GetMessageMap@CServiceInfoDlg@@MBEPBUAFX_MSGMAP@@XZ 0041f667 f   ServiceInfoDlg.obj
 0001:0001e66d       ?OnInitDialog@CServiceInfoDlg@@MAEHXZ 0041f66d f   ServiceInfoDlg.obj
 0001:0001e7c4       ?OnSelchangeComboRunway@CServiceInfoDlg@@IAEXXZ 0041f7c4 f   ServiceInfoDlg.obj
 0001:0001e7d8       ?OnButtonStart@CServiceInfoDlg@@IAEXXZ 0041f7d8 f   ServiceInfoDlg.obj
 0001:0001e7e0       ?SendToken@CServiceInfoDlg@@IAEXE@Z 0041f7e0 f   ServiceInfoDlg.obj
 0001:0001e857       ?OnButtonStop@CServiceInfoDlg@@IAEXXZ 0041f857 f   ServiceInfoDlg.obj
 0001:0001e85f       ?OnButtonPause@CServiceInfoDlg@@IAEXXZ 0041f85f f   ServiceInfoDlg.obj
 0001:0001e867       ?OnButtonContinue@CServiceInfoDlg@@IAEXXZ 0041f867 f   ServiceInfoDlg.obj
 0001:0001e86f       ??_GCServiceInfoDlg@@UAEPAXI@Z 0041f86f f i ServiceInfoDlg.obj
 0001:0001e86f       ??_ECServiceInfoDlg@@UAEPAXI@Z 0041f86f f i ServiceInfoDlg.obj
 0001:0001e88b       ??0SERVICEINFO@@QAE@XZ     0041f88b f i ServiceInfoDlg.obj
 0001:0001e923       ??0CSetColor@@QAE@PAVCWnd@@@Z 0041f923 f   SetColor.obj
 0001:0001e982       ?DoDataExchange@CSetColor@@MAEXPAVCDataExchange@@@Z 0041f982 f   SetColor.obj
 0001:0001e9c2       ?GetMessageMap@CSetColor@@MBEPBUAFX_MSGMAP@@XZ 0041f9c2 f   SetColor.obj
 0001:0001e9c8       ?OnBSend@CSetColor@@IAEXXZ 0041f9c8 f   SetColor.obj
 0001:0001e9f6       ?OnBcancel@CSetColor@@IAEXXZ 0041f9f6 f   SetColor.obj
 0001:0001e9fb       ?OnInitDialog@CSetColor@@MAEHXZ 0041f9fb f   SetColor.obj
 0001:0001ea4c       ??_GCSetColor@@UAEPAXI@Z   0041fa4c f i SetColor.obj
 0001:0001ea4c       ??_ECSetColor@@UAEPAXI@Z   0041fa4c f i SetColor.obj
 0001:0001eae6       ??0CSettingDlg@@QAE@PAVCWnd@@@Z 0041fae6 f   SettingDlg.obj
 0001:0001ec4b       ?DoDataExchange@CSettingDlg@@MAEXPAVCDataExchange@@@Z 0041fc4b f   SettingDlg.obj
 0001:0001ecc0       ?GetMessageMap@CSettingDlg@@MBEPBUAFX_MSGMAP@@XZ 0041fcc0 f   SettingDlg.obj
 0001:0001ecc6       ?Base64Encode@CSettingDlg@@QAE?AVCString@@PBD@Z 0041fcc6 f   SettingDlg.obj
 0001:0001ef5c       ?Base64Decode@CSettingDlg@@QAE?AVCString@@PBD@Z 0041ff5c f   SettingDlg.obj
 0001:0001f7ac       ?OnOK@CSettingDlg@@MAEXXZ  004207ac f   SettingDlg.obj
 0001:0001fa04       ?OnDisableHostlist@CSettingDlg@@IAEXXZ 00420a04 f   SettingDlg.obj
 0001:0001faee       ?OnCustomSkin@CSettingDlg@@IAEXXZ 00420aee f   SettingDlg.obj
 0001:0001fc67       ??_ECAboutDlg@@UAEPAXI@Z   00420c67 f i SettingDlg.obj
 0001:0001fc67       ??_GCSettingDlg@@UAEPAXI@Z 00420c67 f i SettingDlg.obj
 0001:0001fc67       ??_GCAboutDlg@@UAEPAXI@Z   00420c67 f i SettingDlg.obj
 0001:0001fc67       ??_ECSettingDlg@@UAEPAXI@Z 00420c67 f i SettingDlg.obj
 0001:0001fd01       ??0SEU_QQwry@@QAE@XZ       00420d01 f   SEU_QQwry.obj
 0001:0001fd3b       ??1SEU_QQwry@@UAE@XZ       00420d3b f   SEU_QQwry.obj
 0001:0001fd83       ?OpenQQwry@SEU_QQwry@@QAE_NVCString@@@Z 00420d83 f   SEU_QQwry.obj
 0001:0001fdc8       ?CloseQQwry@SEU_QQwry@@QAEXXZ 00420dc8 f   SEU_QQwry.obj
 0001:0001fdd8       ?GetBE@SEU_QQwry@@QAE_NXZ  00420dd8 f   SEU_QQwry.obj
 0001:0001fe09       ?GetStartIPInfo@SEU_QQwry@@QAEHH@Z 00420e09 f   SEU_QQwry.obj
 0001:0001fff5       ?GetRecordCount@SEU_QQwry@@QAEHXZ 00420ff5 f   SEU_QQwry.obj
 0001:0002000e       ?GetStr@SEU_QQwry@@QAE?AVCString@@H@Z 0042100e f   SEU_QQwry.obj
 0001:000200b2       ?GetCountryLocal@SEU_QQwry@@QAE?AVCString@@H@Z 004210b2 f   SEU_QQwry.obj
 0001:00020101       ?GetCountryLocal@SEU_QQwry@@QAE?AVCString@@EH@Z 00421101 f   SEU_QQwry.obj
 0001:0002044d       ?GetStr@SEU_QQwry@@QAE?AVCString@@XZ 0042144d f   SEU_QQwry.obj
 0001:000204cc       ?SaveToFile@SEU_QQwry@@QAEXVCString@@@Z 004214cc f   SEU_QQwry.obj
 0001:00020690       ?IPtoAdd@SEU_QQwry@@QAE?AVCString@@V2@@Z 00421690 f   SEU_QQwry.obj
 0001:00020712       ?GetIndex@SEU_QQwry@@QAEHVCString@@@Z 00421712 f   SEU_QQwry.obj
 0001:000207de       ?GetSIP@SEU_QQwry@@QAEKH@Z 004217de f   SEU_QQwry.obj
 0001:00020869       ?IPtoDWORD@SEU_QQwry@@QAEKVCString@@@Z 00421869 f   SEU_QQwry.obj
 0001:00020934       ?SetPath@SEU_QQwry@@QAEXVCString@@@Z 00421934 f   SEU_QQwry.obj
 0001:00020981       ??_ESEU_QQwry@@UAEPAXI@Z   00421981 f i SEU_QQwry.obj
 0001:00020981       ??_GSEU_QQwry@@UAEPAXI@Z   00421981 f i SEU_QQwry.obj
 0001:00020a1b       ??0CShellDlg@@QAE@PAVCWnd@@PAVCIOCPServer@@PAUClientContext@@@Z 00421a1b f   ShellDlg.obj
 0001:00020aa4       ?DoDataExchange@CShellDlg@@MAEXPAVCDataExchange@@@Z 00421aa4 f   ShellDlg.obj
 0001:00020ab9       ?GetMessageMap@CShellDlg@@MBEPBUAFX_MSGMAP@@XZ 00421ab9 f   ShellDlg.obj
 0001:00020abf       ?PreTranslateMessage@CShellDlg@@UAEHPAUtagMSG@@@Z 00421abf f   ShellDlg.obj
 0001:00020c09       ?OnInitDialog@CShellDlg@@MAEHXZ 00421c09 f   ShellDlg.obj
 0001:00020d01       ?OnReceiveComplete@CShellDlg@@QAEXXZ 00421d01 f   ShellDlg.obj
 0001:00020d19       ?AddKeyBoardData@CShellDlg@@AAEXXZ 00421d19 f   ShellDlg.obj
 0001:00020dd9       ?OnClose@CShellDlg@@IAEXXZ 00421dd9 f   ShellDlg.obj
 0001:00020dfd       ?ResizeEdit@CShellDlg@@AAEXXZ 00421dfd f   ShellDlg.obj
 0001:00020e2a       ?OnSize@CShellDlg@@IAEXIHH@Z 00421e2a f   ShellDlg.obj
 0001:00020e4a       ?OnChangeEdit@CShellDlg@@IAEXXZ 00421e4a f   ShellDlg.obj
 0001:00020e67       ?OnCtlColor@CShellDlg@@IAEPAUHBRUSH__@@PAVCDC@@PAVCWnd@@I@Z 00421e67 f   ShellDlg.obj
 0001:00020eb9       ?PostNcDestroy@CShellDlg@@MAEXXZ 00421eb9 f   ShellDlg.obj
 0001:00020ee0       ??_ECShellDlg@@UAEPAXI@Z   00421ee0 f i ShellDlg.obj
 0001:00020ee0       ??_GCShellDlg@@UAEPAXI@Z   00421ee0 f i ShellDlg.obj
 0001:00020efc       ??1CShellDlg@@UAE@XZ       00421efc f i ShellDlg.obj
 0001:00020faf       ??0CShowWave@@QAE@XZ       00421faf f   ShowWave.obj
 0001:00021018       ??1CShowWave@@UAE@XZ       00422018 f   ShowWave.obj
 0001:00021064       ?GetMessageMap@CShowWave@@MBEPBUAFX_MSGMAP@@XZ 00422064 f   ShowWave.obj
 0001:0002106a       ?OnPaint@CShowWave@@IAEXXZ 0042206a f   ShowWave.obj
 0001:00021302       ?SetSoundInBuffer@CShowWave@@QAEXPAEHH@Z 00422302 f   ShowWave.obj
 0001:0002132e       ?SetHwnd@CShowWave@@QAEXPAUHWND__@@@Z 0042232e f   ShowWave.obj
 0001:0002133b       ??_ECBrush@@UAEPAXI@Z      0042233b f i ShowWave.obj
 0001:0002133b       ??_GCBrush@@UAEPAXI@Z      0042233b f i ShowWave.obj
 0001:00021357       ??1CBrush@@UAE@XZ          00422357 f i ShowWave.obj
 0001:00021380       ??_GCShowWave@@UAEPAXI@Z   00422380 f i ShowWave.obj
 0001:00021380       ??_ECShowWave@@UAEPAXI@Z   00422380 f i ShowWave.obj
 0001:0002139c       ??_ECPen@@UAEPAXI@Z        0042239c f i ShowWave.obj
 0001:0002139c       ??_GCPen@@UAEPAXI@Z        0042239c f i ShowWave.obj
 0001:000213b8       ??1CPen@@UAE@XZ            004223b8 f i ShowWave.obj
 0001:0002145f       ??0CSoundToWav@@QAE@XZ     0042245f f   SoundToWav.obj
 0001:000214a9       ??1CSoundToWav@@UAE@XZ     004224a9 f   SoundToWav.obj
 0001:000214bf       ?SetWaveFormat@CSoundToWav@@QAEXPAUtWAVEFORMATEX@@@Z 004224bf f   SoundToWav.obj
 0001:000214d3       ?WriteWavFileHeader@CSoundToWav@@QAEKXZ 004224d3 f   SoundToWav.obj
 0001:00021554       ?WriteWavData@CSoundToWav@@QAEKPAEK@Z 00422554 f   SoundToWav.obj
 0001:0002156b       ?close@CSoundToWav@@QAEHXZ 0042256b f   SoundToWav.obj
 0001:0002157e       ?Open@CSoundToWav@@QAEHPBDK@Z 0042257e f   SoundToWav.obj
 0001:000215ad       ?SeekToBegin@CSoundToWav@@QAEKXZ 004225ad f   SoundToWav.obj
 0001:000215bc       ?SeekToEnd@CSoundToWav@@QAEKXZ 004225bc f   SoundToWav.obj
 0001:000215cc       ?Write@CSoundToWav@@QAEKPAXK@Z 004225cc f   SoundToWav.obj
 0001:000215eb       ??_GCSoundToWav@@UAEPAXI@Z 004225eb f i SoundToWav.obj
 0001:000215eb       ??_ECSoundToWav@@UAEPAXI@Z 004225eb f i SoundToWav.obj
 0001:00021685       ??0CStart@@QAE@PAVCWnd@@@Z 00422685 f   Start.obj
 0001:00021794       ?DoDataExchange@CStart@@MAEXPAVCDataExchange@@@Z 00422794 f   Start.obj
 0001:000217d4       ?GetMessageMap@CStart@@MBEPBUAFX_MSGMAP@@XZ 004227d4 f   Start.obj
 0001:000217da       ?OnInitDialog@CStart@@MAEHXZ 004227da f   Start.obj
 0001:0002184b       ?OnOK@CStart@@MAEXXZ       0042284b f   Start.obj
 0001:000219a7       ??_ECStart@@UAEPAXI@Z      004229a7 f i Start.obj
 0001:000219a7       ??_GCStart@@UAEPAXI@Z      004229a7 f i Start.obj
 0001:00021a41       ??0CStartupDlg@@QAE@PAVCWnd@@@Z 00422a41 f   StartupDlg.obj
 0001:00021a95       ?DoDataExchange@CStartupDlg@@MAEXPAVCDataExchange@@@Z 00422a95 f   StartupDlg.obj
 0001:00021aaa       ?GetMessageMap@CStartupDlg@@MBEPBUAFX_MSGMAP@@XZ 00422aaa f   StartupDlg.obj
 0001:00021ab0       ?OnInitDialog@CStartupDlg@@MAEHXZ 00422ab0 f   StartupDlg.obj
 0001:00021af6       ?PreTranslateMessage@CStartupDlg@@UAEHPAUtagMSG@@@Z 00422af6 f   StartupDlg.obj
 0001:00021b11       ?OnTimer@CStartupDlg@@IAEXI@Z 00422b11 f   StartupDlg.obj
 0001:00021ccb       ?OnPaint@CStartupDlg@@IAEXXZ 00422ccb f   StartupDlg.obj
 0001:00021ce4       ??_ECStartupDlg@@UAEPAXI@Z 00422ce4 f i StartupDlg.obj
 0001:00021ce4       ??_GCStartupDlg@@UAEPAXI@Z 00422ce4 f i StartupDlg.obj
 0001:00021d00       ??1CStartupDlg@@UAE@XZ     00422d00 f i StartupDlg.obj
 0001:00021d35       ??0CGdiObject@@QAE@XZ      00422d35 f i StartupDlg.obj
 0001:00021f15       ?termsrv_tSaveFile@@YA_NPAD@Z 00422f15 f   SystemDlg.obj
 0001:00021f5c       ??0CSystemDlg@@QAE@PAVCWnd@@PAVCIOCPServer@@PAUClientContext@@@Z 00422f5c f   SystemDlg.obj
 0001:0002202a       ?DoDataExchange@CSystemDlg@@MAEXPAVCDataExchange@@@Z 0042302a f   SystemDlg.obj
 0001:00022058       ?GetMessageMap@CSystemDlg@@MBEPBUAFX_MSGMAP@@XZ 00423058 f   SystemDlg.obj
 0001:0002205e       ?OnReceiveComplete@CSystemDlg@@QAEXXZ 0042305e f   SystemDlg.obj
 0001:00022162       ?SendTermsrv_t@CSystemDlg@@IAEXXZ 00423162 f   SystemDlg.obj
 0001:000221ba       ?OnInitDialog@CSystemDlg@@MAEHXZ 004231ba f   SystemDlg.obj
 0001:0002244c       ?AdjustList@CSystemDlg@@IAEXXZ 0042344c f   SystemDlg.obj
 0001:000224c3       ?__MakePriority@@YA?AVCString@@K@Z 004234c3 f   SystemDlg.obj
 0001:0002256b       ?ShowProcessList@CSystemDlg@@IAEXXZ 0042356b f   SystemDlg.obj
 0001:00022877       ?PreTranslateMessage@CSystemDlg@@UAEHPAUtagMSG@@@Z 00423877 f   SystemDlg.obj
 0001:000228b5       ?OnClose@CSystemDlg@@IAEXXZ 004238b5 f   SystemDlg.obj
 0001:000228d9       ?PostNcDestroy@CSystemDlg@@MAEXXZ 004238d9 f   SystemDlg.obj
 0001:00022900       ?OnSize@CSystemDlg@@IAEXIHH@Z 00423900 f   SystemDlg.obj
 0001:00022920       ?OnSelchangeTab@CSystemDlg@@IAEXPAUtagNMHDR@@PAJ@Z 00423920 f   SystemDlg.obj
 0001:0002292f       ?DeleteList@CSystemDlg@@IAEXXZ 0042392f f   SystemDlg.obj
 0001:00022977       ?ShowSelectWindow@CSystemDlg@@IAEXXZ 00423977 f   SystemDlg.obj
 0001:000229ea       ?GetProcessList@CSystemDlg@@IAEXXZ 004239ea f   SystemDlg.obj
 0001:00022a0d       ?GetWindowsList@CSystemDlg@@IAEXXZ 00423a0d f   SystemDlg.obj
 0001:00022a30       ?GetSoftWareList@CSystemDlg@@IAEXXZ 00423a30 f   SystemDlg.obj
 0001:00022a53       ?GetSysUserList@CSystemDlg@@IAEXXZ 00423a53 f   SystemDlg.obj
 0001:00022a76       ?GetSysInfoList@CSystemDlg@@IAEXXZ 00423a76 f   SystemDlg.obj
 0001:00022a99       ?GetUserStateList@CSystemDlg@@IAEXXZ 00423a99 f   SystemDlg.obj
 0001:00022abc       ?GetDialupassList@CSystemDlg@@IAEXXZ 00423abc f   SystemDlg.obj
 0001:00022b65       ?ShowSoftWareList@CSystemDlg@@IAEXXZ 00423b65 f   SystemDlg.obj
 0001:00022c8c       ?ShowDialupassList@CSystemDlg@@IAEXXZ 00423c8c f   SystemDlg.obj
 0001:00022d44       ?ShowWindowsList@CSystemDlg@@IAEXXZ 00423d44 f   SystemDlg.obj
 0001:00022f18       ?OnMenuitemRefreshSlist@CSystemDlg@@IAEXXZ 00423f18 f   SystemDlg.obj
 0001:00022f1d       ?OnRclickList@CSystemDlg@@IAEXPAUtagNMHDR@@PAJ@Z 00423f1d f   SystemDlg.obj
 0001:0002321b       ?SetClipboardText@CSystemDlg@@SAXAAVCString@@@Z 0042421b f   SystemDlg.obj
 0001:00023295       ?OnMenuitemCopy@CSystemDlg@@IAEXXZ 00424295 f   SystemDlg.obj
 0001:000233e1       ?OnMenuitemWindowRestored@CSystemDlg@@IAEXXZ 004243e1 f   SystemDlg.obj
 0001:00023471       ?OnMenuitemWindowHide@CSystemDlg@@IAEXXZ 00424471 f   SystemDlg.obj
 0001:000234fe       ?OnMenuitemWindowClose@CSystemDlg@@IAEXXZ 004244fe f   SystemDlg.obj
 0001:0002356f       ?OnMenuitemWindowMax@CSystemDlg@@IAEXXZ 0042456f f   SystemDlg.obj
 0001:000235ff       ?OnMenuitemWindowMin@CSystemDlg@@IAEXXZ 004245ff f   SystemDlg.obj
 0001:0002368f       ?OnMenuitemKillanddel@CSystemDlg@@IAEXXZ 0042468f f   SystemDlg.obj
 0001:00023697       ?OnMenuitemKillprocess@CSystemDlg@@IAEXXZ 00424697 f   SystemDlg.obj
 0001:0002369f       ?OnMenuitemKillprocesss@CSystemDlg@@IAEXH@Z 0042469f f   SystemDlg.obj
 0001:0002382c       ?ShowSysInfoList@CSystemDlg@@IAEXXZ 0042482c f   SystemDlg.obj
 0001:00023ae1       ?ShowSysUserList@CSystemDlg@@IAEXXZ 00424ae1 f   SystemDlg.obj
 0001:00023c2d       ?ShowUserStateList@CSystemDlg@@IAEXXZ 00424c2d f   SystemDlg.obj
 0001:00023dff       ?OnTimer@CSystemDlg@@IAEXI@Z 00424dff f   SystemDlg.obj
 0001:00023eb5       ?OnCancel@CSystemDlg@@MAEXXZ 00424eb5 f   SystemDlg.obj
 0001:00023ec6       ?OnChangeUserState@CSystemDlg@@IAEXI@Z 00424ec6 f   SystemDlg.obj
 0001:0002406f       ?OnChangeUser@CSystemDlg@@IAEXI@Z 0042506f f   SystemDlg.obj
 0001:000241c8       ?OnMenuitemActiveUser@CSystemDlg@@IAEXXZ 004251c8 f   SystemDlg.obj
 0001:000241d0       ?OnMenuitemDisableUser@CSystemDlg@@IAEXXZ 004251d0 f   SystemDlg.obj
 0001:000241d8       ?OnMenuitemAddUser@CSystemDlg@@IAEXXZ 004251d8 f   SystemDlg.obj
 0001:000243fd       ?OnMenuitemChangePass@CSystemDlg@@IAEXXZ 004253fd f   SystemDlg.obj
 0001:000245ff       ?OnMenuitemDelUser@CSystemDlg@@IAEXXZ 004255ff f   SystemDlg.obj
 0001:00024607       ?OnMenuitemDisconnectUser@CSystemDlg@@IAEXXZ 00425607 f   SystemDlg.obj
 0001:0002460f       ?OnMenuitemLogoffUser@CSystemDlg@@IAEXXZ 0042560f f   SystemDlg.obj
 0001:00024617       ?OnButtonMstsc@CSystemDlg@@IAEXXZ 00425617 f   SystemDlg.obj
 0001:00024783       ?OnButtonChanageport@CSystemDlg@@IAEXXZ 00425783 f   SystemDlg.obj
 0001:00024848       ?OnButtonOpen3389@CSystemDlg@@IAEXXZ 00425848 f   SystemDlg.obj
 0001:0002486b       ?OnMenuitemSLogoff@CSystemDlg@@IAEXXZ 0042586b f   SystemDlg.obj
 0001:00024892       ?OnMenuitemSReboot@CSystemDlg@@IAEXXZ 00425892 f   SystemDlg.obj
 0001:000248b9       ?OnMenuitemSShutdown@CSystemDlg@@IAEXXZ 004258b9 f   SystemDlg.obj
 0001:000248e0       ?DestroyWindow@CSystemDlg@@UAEHXZ 004258e0 f   SystemDlg.obj
 0001:000248f7       ??_ECSystemDlg@@UAEPAXI@Z  004258f7 f i SystemDlg.obj
 0001:000248f7       ??_GCSystemDlg@@UAEPAXI@Z  004258f7 f i SystemDlg.obj
 0001:00024913       ??1CSystemDlg@@UAE@XZ      00425913 f i SystemDlg.obj
 0001:00024a05       ??0CTextChatDlg@@QAE@PAVCWnd@@PAVCIOCPServer@@PAUClientContext@@@Z 00425a05 f   TextChatDlg.obj
 0001:00024b07       ?DoDataExchange@CTextChatDlg@@MAEXPAVCDataExchange@@@Z 00425b07 f   TextChatDlg.obj
 0001:00024b35       ?GetMessageMap@CTextChatDlg@@MBEPBUAFX_MSGMAP@@XZ 00425b35 f   TextChatDlg.obj
 0001:00024b3b       ?OnOK@CTextChatDlg@@MAEXXZ 00425b3b f   TextChatDlg.obj
 0001:00024cdb       ?OnCancel@CTextChatDlg@@MAEXXZ 00425cdb f   TextChatDlg.obj
 0001:00024d03       ?OnInitDialog@CTextChatDlg@@MAEHXZ 00425d03 f   TextChatDlg.obj
 0001:00024df0       ?OnReceiveComplete@CTextChatDlg@@QAEXXZ 00425df0 f   TextChatDlg.obj
 0001:00024f51       ?PreTranslateMessage@CTextChatDlg@@UAEHPAUtagMSG@@@Z 00425f51 f   TextChatDlg.obj
 0001:00024f69       ?OnSize@CTextChatDlg@@IAEXIHH@Z 00425f69 f   TextChatDlg.obj
 0001:00025047       ?PostNcDestroy@CTextChatDlg@@MAEXXZ 00426047 f   TextChatDlg.obj
 0001:0002505e       ??_GCTextChatDlg@@UAEPAXI@Z 0042605e f i TextChatDlg.obj
 0001:0002505e       ??_ECTextChatDlg@@UAEPAXI@Z 0042605e f i TextChatDlg.obj
 0001:0002507a       ??1CTextChatDlg@@UAE@XZ    0042607a f i TextChatDlg.obj
 0001:0002514e       ??0CTrueColorToolBar@@QAE@XZ 0042614e f   TrueColorToolBar.obj
 0001:00025180       ??1CTrueColorToolBar@@UAE@XZ 00426180 f   TrueColorToolBar.obj
 0001:000251be       ?GetMessageMap@CTrueColorToolBar@@MBEPBUAFX_MSGMAP@@XZ 004261be f   TrueColorToolBar.obj
 0001:000251c4       ?LoadTrueColorToolBar@CTrueColorToolBar@@QAEHHIII@Z 004261c4 f   TrueColorToolBar.obj
 0001:00025222       ?SetTrueColorToolBar@CTrueColorToolBar@@AAEHIIH@Z 00426222 f   TrueColorToolBar.obj
 0001:0002535b       ?AddDropDownButton@CTrueColorToolBar@@QAEXPAVCWnd@@II@Z 0042635b f   TrueColorToolBar.obj
 0001:000253c5       ?OnToolbarDropDown@CTrueColorToolBar@@IAEXPAUtagNMTOOLBARA@@PAJ@Z 004263c5 f   TrueColorToolBar.obj
 0001:0002549a       ??_GCTrueColorToolBar@@UAEPAXI@Z 0042649a f i TrueColorToolBar.obj
 0001:0002549a       ??_ECTrueColorToolBar@@UAEPAXI@Z 0042649a f i TrueColorToolBar.obj
 0001:000254b6       ?Add@?$CArray@UstDropDownInfo@CTrueColorToolBar@@AAU12@@@QAEHAAUstDropDownInfo@CTrueColorToolBar@@@Z 004264b6 f i TrueColorToolBar.obj
 0001:000254e1       ??1?$CArray@UstDropDownInfo@CTrueColorToolBar@@AAU12@@@UAE@XZ 004264e1 f i TrueColorToolBar.obj
 0001:00025513       ?Serialize@?$CArray@UstDropDownInfo@CTrueColorToolBar@@AAU12@@@UAEXAAVCArchive@@@Z 00426513 f i TrueColorToolBar.obj
 0001:00025552       ??_E?$CArray@UstDropDownInfo@CTrueColorToolBar@@AAU12@@@UAEPAXI@Z 00426552 f i TrueColorToolBar.obj
 0001:00025552       ??_G?$CArray@UstDropDownInfo@CTrueColorToolBar@@AAU12@@@UAEPAXI@Z 00426552 f i TrueColorToolBar.obj
 0001:0002556e       ?SetSize@?$CArray@UstDropDownInfo@CTrueColorToolBar@@AAU12@@@QAEXHH@Z 0042656e f i TrueColorToolBar.obj
 0001:000256b5       ?SerializeElements@@YGXAAVCArchive@@PAUstDropDownInfo@CTrueColorToolBar@@H@Z 004266b5 f i TrueColorToolBar.obj
 0001:00025766       ??0CWebCamDlg@@QAE@PAVCWnd@@PAVCIOCPServer@@PAUClientContext@@@Z 00426766 f   WebCamDlg.obj
 0001:0002586d       ?DoDataExchange@CWebCamDlg@@MAEXPAVCDataExchange@@@Z 0042686d f   WebCamDlg.obj
 0001:00025870       ?GetMessageMap@CWebCamDlg@@MBEPBUAFX_MSGMAP@@XZ 00426870 f   WebCamDlg.obj
 0001:00025876       ?OnReceive@CWebCamDlg@@QAEXXZ 00426876 f   WebCamDlg.obj
 0001:000258dc       ?OnReceiveComplete@CWebCamDlg@@QAEXXZ 004268dc f   WebCamDlg.obj
 0001:0002590f       ?DrawDIB@CWebCamDlg@@IAEXXZ 0042690f f   WebCamDlg.obj
 0001:00025988       ?OnClose@CWebCamDlg@@IAEXXZ 00426988 f   WebCamDlg.obj
 0001:00025a6f       ?OnInitDialog@CWebCamDlg@@MAEHXZ 00426a6f f   WebCamDlg.obj
 0001:00025ce8       ?InitMMI@CWebCamDlg@@IAEXXZ 00426ce8 f   WebCamDlg.obj
 0001:00025db8       ?ResetScreen@CWebCamDlg@@IAEXXZ 00426db8 f   WebCamDlg.obj
 0001:00025faa       ?OnSize@CWebCamDlg@@IAEXIHH@Z 00426faa f   WebCamDlg.obj
 0001:00026074       ?PreTranslateMessage@CWebCamDlg@@UAEHPAUtagMSG@@@Z 00427074 f   WebCamDlg.obj
 0001:0002609c       ?OnGetMiniMaxInfo@CWebCamDlg@@IAEJIJ@Z 0042709c f   WebCamDlg.obj
 0001:000260bd       ?SaveSnapshot@CWebCamDlg@@IAE_NXZ 004270bd f   WebCamDlg.obj
 0001:00026264       ?SaveAvi@CWebCamDlg@@IAEXXZ 00427264 f   WebCamDlg.obj
 0001:00026404       ?OnSysCommand@CWebCamDlg@@IAEXIJ@Z 00427404 f   WebCamDlg.obj
 0001:00026484       ?SendResetScreen@CWebCamDlg@@IAE_NHH@Z 00427484 f   WebCamDlg.obj
 0001:000264f6       ?OnPaint@CWebCamDlg@@IAEXXZ 004274f6 f   WebCamDlg.obj
 0001:000265bd       ?PostNcDestroy@CWebCamDlg@@MAEXXZ 004275bd f   WebCamDlg.obj
 0001:000265e4       ?OnTimer@CWebCamDlg@@IAEXI@Z 004275e4 f   WebCamDlg.obj
 0001:0002660f       ??_ECWebCamDlg@@UAEPAXI@Z  0042760f f i WebCamDlg.obj
 0001:0002660f       ??_GCWebCamDlg@@UAEPAXI@Z  0042760f f i WebCamDlg.obj
 0001:0002662b       ??1CWebCamDlg@@UAE@XZ      0042762b f i WebCamDlg.obj
 0001:00026690       ?GetMenuStringA@CMenu@@QBEHIAAVCString@@I@Z 00427690 f i WebCamDlg.obj
 0001:000266ed       ??1?$vector@VResolutionInfo@@V?$allocator@VResolutionInfo@@@std@@@std@@QAE@XZ 004276ed f i WebCamDlg.obj
 0001:0002670d       ?push_back@?$vector@VResolutionInfo@@V?$allocator@VResolutionInfo@@@std@@@std@@QAEXABVResolutionInfo@@@Z 0042770d f i WebCamDlg.obj
 0001:0002671e       ?insert@?$vector@VResolutionInfo@@V?$allocator@VResolutionInfo@@@std@@@std@@QAEXPAVResolutionInfo@@IABV3@@Z 0042771e f i WebCamDlg.obj
 0001:00026937       ??0CXvidDec@@QAE@HIH@Z     00427937 f   XvidDec.obj
 0001:00026979       ??1CXvidDec@@QAE@XZ        00427979 f   XvidDec.obj
 0001:0002697a       ?AttachCaller@CXvidDec@@QAEXHH@Z 0042797a f   XvidDec.obj
 0001:000269c5       ?XVID_GLOBAL_INIT@CXvidDec@@SAXXZ 004279c5 f   XvidDec.obj
 0001:000269f2       ?Open@CXvidDec@@QAE_NHHH@Z 004279f2 f   XvidDec.obj
 0001:00026a99       ?Decode@CXvidDec@@QAEHPAXH0@Z 00427a99 f   XvidDec.obj
 0001:00026ace       ?Close@CXvidDec@@QAE_NXZ   00427ace f   XvidDec.obj
 0001:00026af6       ??0CXvidEnc@@QAE@HIH@Z     00427af6 f   XvidEnc.obj
 0001:00026b38       ??1CXvidEnc@@QAE@XZ        00427b38 f   XvidEnc.obj
 0001:00026b39       ?Open@CXvidEnc@@QAE_NHHHH@Z 00427b39 f   XvidEnc.obj
 0001:00026c03       ?Encode@CXvidEnc@@QAEHPAX0H@Z 00427c03 f   XvidEnc.obj
 0001:00026c44       ?Close@CXvidEnc@@QAE_NXZ   00427c44 f   XvidEnc.obj
 0001:00026c70       _xvid_global               00427c70 f   libxvidcore:xvid.obj
 0001:00027880       _xvid_decore               00428880 f   libxvidcore:xvid.obj
 0001:000278d0       _xvid_encore               004288d0 f   libxvidcore:xvid.obj
 0001:00031dd0       _xvid_Init_QP              00432dd0 f   libxvidcore:qpel.obj
 0001:00031fa0       _init_GMC                  00432fa0 f   libxvidcore:gmc.obj
 0001:00032be0       _generate_GMCparameters    00433be0 f   libxvidcore:gmc.obj
 0001:000333a0       _generate_GMCimage         004343a0 f   libxvidcore:gmc.obj
 0001:00033520       _sad16_c                   00434520 f   libxvidcore:sad.obj
 0001:000336a0       _sad16bi_c                 004346a0 f   libxvidcore:sad.obj
 0001:00033730       _sad8bi_c                  00434730 f   libxvidcore:sad.obj
 0001:000337c0       _sad8_c                    004347c0 f   libxvidcore:sad.obj
 0001:000338b0       _dev16_c                   004348b0 f   libxvidcore:sad.obj
 0001:00033910       _sad16v_c                  00434910 f   libxvidcore:sad.obj
 0001:00033980       _sad32v_c                  00434980 f   libxvidcore:sad.obj
 0001:00033a10       _sse8_16bit_c              00434a10 f   libxvidcore:sad.obj
 0001:00033b10       _sse8_8bit_c               00434b10 f   libxvidcore:sad.obj
 0001:00033c20       _coeff8_energy_c           00434c20 f   libxvidcore:sad.obj
 0001:00033d20       _sseh8_16bit_c             00434d20 f   libxvidcore:sad.obj
 0001:00033e10       _blocksum8_c               00434e10 f   libxvidcore:sad.obj
 0001:00033ec0       _calc_cbp_c                00434ec0 f   libxvidcore:cbp.obj
 0001:00033f90       _rgb555_to_yv12_c          00434f90 f   libxvidcore:colorspace.obj
 0001:00034330       _rgb565_to_yv12_c          00435330 f   libxvidcore:colorspace.obj
 0001:000346d0       _bgr_to_yv12_c             004356d0 f   libxvidcore:colorspace.obj
 0001:00034a10       _bgra_to_yv12_c            00435a10 f   libxvidcore:colorspace.obj
 0001:00034d60       _rgb_to_yv12_c             00435d60 f   libxvidcore:colorspace.obj
 0001:000350a0       _abgr_to_yv12_c            004360a0 f   libxvidcore:colorspace.obj
 0001:000353f0       _rgba_to_yv12_c            004363f0 f   libxvidcore:colorspace.obj
 0001:00035740       _argb_to_yv12_c            00436740 f   libxvidcore:colorspace.obj
 0001:00035a90       _yuyv_to_yv12_c            00436a90 f   libxvidcore:colorspace.obj
 0001:00035c20       _uyvy_to_yv12_c            00436c20 f   libxvidcore:colorspace.obj
 0001:00035d70       _rgb555i_to_yv12_c         00436d70 f   libxvidcore:colorspace.obj
 0001:000363f0       _rgb565i_to_yv12_c         004373f0 f   libxvidcore:colorspace.obj
 0001:00036a70       _bgri_to_yv12_c            00437a70 f   libxvidcore:colorspace.obj
 0001:000370a0       _bgrai_to_yv12_c           004380a0 f   libxvidcore:colorspace.obj
 0001:000376e0       _abgri_to_yv12_c           004386e0 f   libxvidcore:colorspace.obj
 0001:00037d20       _rgbi_to_yv12_c            00438d20 f   libxvidcore:colorspace.obj
 0001:00038370       _rgbai_to_yv12_c           00439370 f   libxvidcore:colorspace.obj
 0001:000389c0       _argbi_to_yv12_c           004399c0 f   libxvidcore:colorspace.obj
 0001:00039010       _yuyvi_to_yv12_c           0043a010 f   libxvidcore:colorspace.obj
 0001:00039270       _uyvyi_to_yv12_c           0043a270 f   libxvidcore:colorspace.obj
 0001:00039480       _yv12_to_rgb555_c          0043a480 f   libxvidcore:colorspace.obj
 0001:00039910       _yv12_to_rgb565_c          0043a910 f   libxvidcore:colorspace.obj
 0001:00039da0       _yv12_to_bgr_c             0043ada0 f   libxvidcore:colorspace.obj
 0001:0003a100       _yv12_to_bgra_c            0043b100 f   libxvidcore:colorspace.obj
 0001:0003a490       _yv12_to_abgr_c            0043b490 f   libxvidcore:colorspace.obj
 0001:0003a820       _yv12_to_rgb_c             0043b820 f   libxvidcore:colorspace.obj
 0001:0003ab80       _yv12_to_rgba_c            0043bb80 f   libxvidcore:colorspace.obj
 0001:0003af10       _yv12_to_argb_c            0043bf10 f   libxvidcore:colorspace.obj
 0001:0003b2a0       _yv12_to_yuyv_c            0043c2a0 f   libxvidcore:colorspace.obj
 0001:0003b3c0       _yv12_to_uyvy_c            0043c3c0 f   libxvidcore:colorspace.obj
 0001:0003b4e0       _yv12_to_rgb555i_c         0043c4e0 f   libxvidcore:colorspace.obj
 0001:0003bd40       _yv12_to_rgb565i_c         0043cd40 f   libxvidcore:colorspace.obj
 0001:0003c5e0       _yv12_to_bgri_c            0043d5e0 f   libxvidcore:colorspace.obj
 0001:0003cbd0       _yv12_to_bgrai_c           0043dbd0 f   libxvidcore:colorspace.obj
 0001:0003d210       _yv12_to_abgri_c           0043e210 f   libxvidcore:colorspace.obj
 0001:0003d850       _yv12_to_rgbi_c            0043e850 f   libxvidcore:colorspace.obj
 0001:0003de40       _yv12_to_rgbai_c           0043ee40 f   libxvidcore:colorspace.obj
 0001:0003e480       _yv12_to_argbi_c           0043f480 f   libxvidcore:colorspace.obj
 0001:0003eac0       _yv12_to_yuyvi_c           0043fac0 f   libxvidcore:colorspace.obj
 0001:0003ecb0       _yv12_to_uyvyi_c           0043fcb0 f   libxvidcore:colorspace.obj
 0001:0003ee90       _yv12_to_yv12_c            0043fe90 f   libxvidcore:colorspace.obj
 0001:0003f030       _colorspace_init           00440030 f   libxvidcore:colorspace.obj
 0001:0003f0a0       _init_postproc             004400a0 f   libxvidcore:postprocessing.obj
 0001:0003f0c0       _stripe_deblock_h          004400c0 f   libxvidcore:postprocessing.obj
 0001:0003f290       _stripe_deblock_v          00440290 f   libxvidcore:postprocessing.obj
 0001:0003f470       _image_postproc            00440470 f   libxvidcore:postprocessing.obj
 0001:0003f5b0       _init_deblock              004405b0 f   libxvidcore:postprocessing.obj
 0001:0003f600       _deblock8x8_h              00440600 f   libxvidcore:postprocessing.obj
 0001:00043f10       _deblock8x8_v              00444f10 f   libxvidcore:postprocessing.obj
 0001:000483f0       _init_noise                004493f0 f   libxvidcore:postprocessing.obj
 0001:00048640       _add_noise                 00449640 f   libxvidcore:postprocessing.obj
 0001:00048740       _image_brightness_c        00449740 f   libxvidcore:postprocessing.obj
 0001:000487a0       _interpolate8x8_avg2_c     004497a0 f   libxvidcore:interpolate8x8.obj
 0001:00048890       _interpolate8x8_halfpel_add_c 00449890 f   libxvidcore:interpolate8x8.obj
 0001:000488b0       _interpolate8x8_avg4_c     004498b0 f   libxvidcore:interpolate8x8.obj
 0001:00048aa0       _interpolate8x8_halfpel_h_c 00449aa0 f   libxvidcore:interpolate8x8.obj
 0001:00048c60       _interpolate8x4_halfpel_h_c 00449c60 f   libxvidcore:interpolate8x8.obj
 0001:00048e20       _interpolate8x8_halfpel_h_add_c 00449e20 f   libxvidcore:interpolate8x8.obj
 0001:00049080       _interpolate8x8_halfpel_v_c 0044a080 f   libxvidcore:interpolate8x8.obj
 0001:00049250       _interpolate8x4_halfpel_v_c 0044a250 f   libxvidcore:interpolate8x8.obj
 0001:00049420       _interpolate8x8_halfpel_v_add_c 0044a420 f   libxvidcore:interpolate8x8.obj
 0001:000496b0       _interpolate8x8_halfpel_hv_c 0044a6b0 f   libxvidcore:interpolate8x8.obj
 0001:00049980       _interpolate8x4_halfpel_hv_c 0044a980 f   libxvidcore:interpolate8x8.obj
 0001:00049c50       _interpolate8x8_halfpel_hv_add_c 0044ac50 f   libxvidcore:interpolate8x8.obj
 0001:00049fd0       _interpolate8x8_6tap_lowpass_h_c 0044afd0 f   libxvidcore:interpolate8x8.obj
 0001:0004a280       _interpolate16x16_lowpass_h_c 0044b280 f   libxvidcore:interpolate8x8.obj
 0001:0004a860       _interpolate8x8_lowpass_h_c 0044b860 f   libxvidcore:interpolate8x8.obj
 0001:0004ab60       _interpolate8x8_6tap_lowpass_v_c 0044bb60 f   libxvidcore:interpolate8x8.obj
 0001:0004ae90       _interpolate16x16_lowpass_v_c 0044be90 f   libxvidcore:interpolate8x8.obj
 0001:0004b550       _interpolate8x8_lowpass_v_c 0044c550 f   libxvidcore:interpolate8x8.obj
 0001:0004b890       _interpolate16x16_lowpass_hv_c 0044c890 f   libxvidcore:interpolate8x8.obj
 0001:0004be80       _interpolate8x8_lowpass_hv_c 0044ce80 f   libxvidcore:interpolate8x8.obj
 0001:0004c190       _MBTransQuantIntra         0044d190 f   libxvidcore:mbtransquant.obj
 0001:0004c770       _MBTransQuantInter         0044d770 f   libxvidcore:mbtransquant.obj
 0001:0004cb50       _MBTransQuantInterBVOP     0044db50 f   libxvidcore:mbtransquant.obj
 0001:0004cf50       _MBFieldTest_c             0044df50 f   libxvidcore:mbtransquant.obj
 0001:0004d0e0       _MBFrameToField            0044e0e0 f   libxvidcore:mbtransquant.obj
 0001:0004dd20       _transfer_8to16copy_c      0044ed20 f   libxvidcore:mem_transfer.obj
 0001:0004dd50       _transfer_16to8copy_c      0044ed50 f   libxvidcore:mem_transfer.obj
 0001:0004dda0       _transfer_8to16sub_c       0044eda0 f   libxvidcore:mem_transfer.obj
 0001:0004de00       _transfer_8to16subro_c     0044ee00 f   libxvidcore:mem_transfer.obj
 0001:0004de50       _transfer_8to16sub2_c      0044ee50 f   libxvidcore:mem_transfer.obj
 0001:0004dee0       _transfer_8to16sub2ro_c    0044eee0 f   libxvidcore:mem_transfer.obj
 0001:0004df50       _transfer_16to8add_c       0044ef50 f   libxvidcore:mem_transfer.obj
 0001:0004dfa0       _transfer8x8_copy_c        0044efa0 f   libxvidcore:mem_transfer.obj
 0001:0004dfe0       _transfer8x4_copy_c        0044efe0 f   libxvidcore:mem_transfer.obj
 0001:0004e010       _quant_mpeg_intra_c        0044f010 f   libxvidcore:quant_mpeg.obj
 0001:0004e080       _quant_mpeg_inter_c        0044f080 f   libxvidcore:quant_mpeg.obj
 0001:0004e130       _dequant_mpeg_intra_c      0044f130 f   libxvidcore:quant_mpeg.obj
 0001:0004e1f0       _dequant_mpeg_inter_c      0044f1f0 f   libxvidcore:quant_mpeg.obj
 0001:0004e2b0       _quant_h263_intra_c        0044f2b0 f   libxvidcore:quant_h263.obj
 0001:0004e350       _quant_h263_inter_c        0044f350 f   libxvidcore:quant_h263.obj
 0001:0004e3f0       _dequant_h263_intra_c      0044f3f0 f   libxvidcore:quant_h263.obj
 0001:0004e490       _dequant_h263_inter_c      0044f490 f   libxvidcore:quant_h263.obj
 0001:0004e500       _idct_int32                0044f500 f   libxvidcore:idct.obj
 0001:0004ed80       _fdct_int32                0044fd80 f   libxvidcore:fdct.obj
 0001:0004f100       _bs_put_spritetrajectory   00450100 f   libxvidcore:mbcoding.obj
 0001:0004f330       _bs_get_spritetrajectory   00450330 f   libxvidcore:mbcoding.obj
 0001:0004f3f0       _init_vlc_tables           004503f0 f   libxvidcore:mbcoding.obj
 0001:0004f8e0       _CodeCoeffIntra_CalcBits   004508e0 f   libxvidcore:mbcoding.obj
 0001:0004f9b0       _CodeCoeffInter_CalcBits   004509b0 f   libxvidcore:mbcoding.obj
 0001:0004fa70       _MBCoding                  00450a70 f   libxvidcore:mbcoding.obj
 0001:00050dd0       _MBCodingBVOP              00451dd0 f   libxvidcore:mbcoding.obj
 0001:00051250       _check_resync_marker       00452250 f   libxvidcore:mbcoding.obj
 0001:00051370       _get_mcbpc_intra           00452370 f   libxvidcore:mbcoding.obj
 0001:00051410       _get_mcbpc_inter           00452410 f   libxvidcore:mbcoding.obj
 0001:000514e0       _get_cbpy                  004524e0 f   libxvidcore:mbcoding.obj
 0001:00051590       _get_mv                    00452590 f   libxvidcore:mbcoding.obj
 0001:00051830       _get_dc_dif                00452830 f   libxvidcore:mbcoding.obj
 0001:000518f0       _get_dc_size_lum           004528f0 f   libxvidcore:mbcoding.obj
 0001:000519f0       _get_dc_size_chrom         004529f0 f   libxvidcore:mbcoding.obj
 0001:00051b10       _get_intra_block           00452b10 f   libxvidcore:mbcoding.obj
 0001:00051da0       _get_inter_block_h263      00452da0 f   libxvidcore:mbcoding.obj
 0001:00052080       _get_inter_block_mpeg      00453080 f   libxvidcore:mbcoding.obj
 0001:00052390       _image_create              00453390 f   libxvidcore:image.obj
 0001:000524a0       _image_destroy             004534a0 f   libxvidcore:image.obj
 0001:00052510       _image_swap                00453510 f   libxvidcore:image.obj
 0001:00052540       _image_copy                00453540 f   libxvidcore:image.obj
 0001:000525a0       _image_setedges            004535a0 f   libxvidcore:image.obj
 0001:00052a80       _image_interpolate         00453a80 f   libxvidcore:image.obj
 0001:00052c60       _image_chroma_optimize     00453c60 f   libxvidcore:image.obj
 0001:00052e30       _image_input               00453e30 f   libxvidcore:image.obj
 0001:000536c0       _image_output              004546c0 f   libxvidcore:image.obj
 0001:00053b70       _plane_sse                 00454b70 f   libxvidcore:image.obj
 0001:00053e20       _image_block_variance      00454e20 f   libxvidcore:image.obj
 0001:00054200       _output_slice              00455200 f   libxvidcore:image.obj
 0001:00054370       _image_clear               00455370 f   libxvidcore:image.obj
 0001:000544a0       _decoder_create            004554a0 f   libxvidcore:decoder.obj
 0001:00054a40       _decoder_destroy           00455a40 f   libxvidcore:decoder.obj
 0001:00054b20       _decoder_decode            00455b20 f   libxvidcore:decoder.obj
 0001:0005a980       _enc_create                0045b980 f   libxvidcore:encoder.obj
 0001:0005b7a0       _enc_destroy               0045c7a0 f   libxvidcore:encoder.obj
 0001:0005bb10       _enc_encode                0045cb10 f   libxvidcore:encoder.obj
 0001:0005f980       _get_intra_matrix          00460980 f   libxvidcore:quant_matrix.obj
 0001:0005f990       _get_inter_matrix          00460990 f   libxvidcore:quant_matrix.obj
 0001:0005f9a0       _get_default_intra_matrix  004609a0 f   libxvidcore:quant_matrix.obj
 0001:0005f9b0       _get_default_inter_matrix  004609b0 f   libxvidcore:quant_matrix.obj
 0001:0005f9c0       _is_custom_intra_matrix    004609c0 f   libxvidcore:quant_matrix.obj
 0001:0005fa00       _is_custom_inter_matrix    00460a00 f   libxvidcore:quant_matrix.obj
 0001:0005fa40       _set_intra_matrix          00460a40 f   libxvidcore:quant_matrix.obj
 0001:0005fa70       _init_intra_matrix         00460a70 f   libxvidcore:quant_matrix.obj
 0001:0005fab0       _set_inter_matrix          00460ab0 f   libxvidcore:quant_matrix.obj
 0001:0005fb60       _init_mpeg_matrix          00460b60 f   libxvidcore:quant_matrix.obj
 0001:0005fb80       _xvid_malloc               00460b80 f   libxvidcore:mem_align.obj
 0001:0005fbe0       _xvid_free                 00460be0 f   libxvidcore:mem_align.obj
 0001:0005fc00       _image_printf              00460c00 f   libxvidcore:font.obj
 0001:0005fdc0       _read_video_packet_header  00460dc0 f   libxvidcore:bitstream.obj
 0001:000605b0       _BitstreamReadHeaders      004615b0 f   libxvidcore:bitstream.obj
 0001:00063bd0       _BitstreamWriteVolHeader   00464bd0 f   libxvidcore:bitstream.obj
 0001:00064ac0       _BitstreamWriteVopHeader   00465ac0 f   libxvidcore:bitstream.obj
 0001:00064f20       _BitstreamWriteUserData    00465f20 f   libxvidcore:bitstream.obj
 0001:00065220       _write_video_packet_header 00466220 f   libxvidcore:bitstream.obj
 0001:00065580       _predict_acdc              00466580 f   libxvidcore:mbprediction.obj
 0001:000658e0       _add_acdc                  004668e0 f   libxvidcore:mbprediction.obj
 0001:00065a50       _MBPrediction              00466a50 f   libxvidcore:mbprediction.obj
 0001:00065f00       _get_pmv2                  00466f00 f   libxvidcore:mbprediction.obj
 0001:00066170       _get_pmv2_interlaced       00467170 f   libxvidcore:mbprediction.obj
 0001:000663b0       _get_qpmv2                 004673b0 f   libxvidcore:mbprediction.obj
 0001:00066640       _xvid_me_ChromaSAD         00467640 f   libxvidcore:estimation_common.obj
 0001:000667d0       _xvid_me_interpolate8x8qpel 004677d0 f   libxvidcore:estimation_common.obj
 0001:00066a50       _xvid_me_interpolate16x16qpel 00467a50 f   libxvidcore:estimation_common.obj
 0001:00066e30       _xvid_me_AdvDiamondSearch  00467e30 f   libxvidcore:estimation_common.obj
 0001:000670d0       _xvid_me_SquareSearch      004680d0 f   libxvidcore:estimation_common.obj
 0001:000671d0       _xvid_me_DiamondSearch     004681d0 f   libxvidcore:estimation_common.obj
 0001:000672a0       _xvid_me_SubpelRefine      004682a0 f   libxvidcore:estimation_common.obj
 0001:00067340       _FullRefine_Fast           00468340 f   libxvidcore:estimation_common.obj
 0001:00067be0       _getMinFcode               00468be0 f   libxvidcore:estimation_common.obj
 0001:00067c00       _MEanalysis                00468c00 f   libxvidcore:vop_type_decision.obj
 0001:000683c0       _xvid_me_SkipDecisionP     004693c0 f   libxvidcore:estimation_pvop.obj
 0001:00068440       _MotionEstimation          00469440 f   libxvidcore:estimation_pvop.obj
 0001:0006ac60       _GMEanalysis               0046bc60 f   libxvidcore:estimation_gmc.obj
 0001:0006b0a0       _GlobalMotionEst           0046c0a0 f   libxvidcore:estimation_gmc.obj
 0001:0006bae0       _GlobalMotionEstRefine     0046cae0 f   libxvidcore:estimation_gmc.obj
 0001:0006c000       _globalSAD                 0046d000 f   libxvidcore:estimation_gmc.obj
 0001:0006c100       _MBMotionCompensation      0046d100 f   libxvidcore:motion_comp.obj
 0001:0006cb40       _MBMotionCompensationBVOP  0046db40 f   libxvidcore:motion_comp.obj
 0001:0006e7a0       _CheckCandidate16no4v      0046f7a0 f   libxvidcore:estimation_bvop.obj
 0001:0006e960       _MotionEstimationBVOP      0046f960 f   libxvidcore:estimation_bvop.obj
 0001:000713a0       _xvid_me_ModeDecision_RD   004723a0 f   libxvidcore:estimation_rd_based.obj
 0001:00074580       _xvid_me_ModeDecision_Fast 00475580 f   libxvidcore:estimation_rd_based.obj
 0001:000750c0       _ModeDecision_BVOP_RD      004760c0 f   libxvidcore:estimation_rd_based_bvop.obj
 0001:00077a90       _getParmFromBits           00478a90 f   va_g729a:intf_g729a.obj
 0001:00077b20       _newCopyBits               00478b20 f   va_g729a:intf_g729a.obj
 0001:00077bb0       _va_g729a_init_encoder     00478bb0 f   va_g729a:intf_g729a.obj
 0001:00077bc0       _va_g729a_encoder          00478bc0 f   va_g729a:intf_g729a.obj
 0001:00077c20       _va_g729a_init_decoder     00478c20 f   va_g729a:intf_g729a.obj
 0001:00077c50       _va_g729a_decoder          00478c50 f   va_g729a:intf_g729a.obj
 0001:00077d40       _bin2prm_ld8k              00478d40 f   va_g729a:intf_g729a.obj
 0001:00077d90       _prm2bin_ld8k              00478d90 f   va_g729a:intf_g729a.obj
 0001:00077dd0       _init_coder_ld8a           00478dd0 f   va_g729a:COD_LD8A.OBJ
 0001:00077e90       _coder_ld8a                00478e90 f   va_g729a:COD_LD8A.OBJ
 0001:00078440       _init_pre_process          00479440 f   va_g729a:PRE_PROC.OBJ
 0001:000784a0       _pre_process               004794a0 f   va_g729a:PRE_PROC.OBJ
 0001:00078550       _init_post_process         00479550 f   va_g729a:POST_PRO.OBJ
 0001:000785b0       _post_process              004795b0 f   va_g729a:POST_PRO.OBJ
 0001:00078660       _init_post_filter          00479660 f   va_g729a:POSTFILA.OBJ
 0001:00078690       _post_filter               00479690 f   va_g729a:POSTFILA.OBJ
 0001:00078b90       _init_decod_ld8a           00479b90 f   va_g729a:DEC_LD8A.OBJ
 0001:00078c10       _decod_ld8a                00479c10 f   va_g729a:DEC_LD8A.OBJ
 0001:00078ee0       _parity_pitch              00479ee0 f   va_g729a:P_PARITY.OBJ
 0001:00078f10       _check_parity_pitch        00479f10 f   va_g729a:P_PARITY.OBJ
 0001:00078f40       _init_exc_err              00479f40 f   va_g729a:TAMING.OBJ
 0001:00078f70       _test_err                  00479f70 f   va_g729a:TAMING.OBJ
 0001:00079010       _update_exc_err            0047a010 f   va_g729a:TAMING.OBJ
 0001:00079100       _qua_lsp                   0047a100 f   va_g729a:QUA_LSP.OBJ
 0001:00079170       _lsp_encw_reset            0047a170 f   va_g729a:QUA_LSP.OBJ
 0001:000797f0       _set_zero                  0047a7f0 f   va_g729a:UTIL.OBJ
 0001:00079810       _copy                      0047a810 f   va_g729a:UTIL.OBJ
 0001:00079840       _random_g729               0047a840 f   va_g729a:UTIL.OBJ
 0001:00079870       _qua_gain                  0047a870 f   va_g729a:QUA_GAIN.OBJ
 0001:00079be0       _corr_xy2                  0047abe0 f   va_g729a:COR_FUNC.OBJ
 0001:00079c60       _cor_h_x                   0047ac60 f   va_g729a:COR_FUNC.OBJ
 0001:00079cb0       _ACELP_code_A              0047acb0 f   va_g729a:ACELP_CA.OBJ
 0001:0007afe0       _pitch_ol_fast             0047bfe0 f   va_g729a:PITCH_A.OBJ
 0001:0007b300       _pitch_fr3_fast            0047c300 f   va_g729a:PITCH_A.OBJ
 0001:0007b4b0       _g_pitch                   0047c4b0 f   va_g729a:PITCH_A.OBJ
 0001:0007b540       _enc_lag3                  0047c540 f   va_g729a:PITCH_A.OBJ
 0001:0007b5b0       _syn_filt                  0047c5b0 f   va_g729a:FILTER.OBJ
 0001:0007b650       _residu                    0047c650 f   va_g729a:FILTER.OBJ
 0001:0007b6a0       _weight_az                 0047c6a0 f   va_g729a:LPCFUNCA.OBJ
 0001:0007b6f0       _int_qlpc                  0047c6f0 f   va_g729a:LPCFUNCA.OBJ
 0001:0007b880       _autocorr                  0047c880 f   va_g729a:LPCA.OBJ
 0001:0007b930       _lag_window                0047c930 f   va_g729a:LPCA.OBJ
 0001:0007b960       _levinson                  0047c960 f   va_g729a:LPCA.OBJ
 0001:0007ba60       _az_lsp                    0047ca60 f   va_g729a:LPCA.OBJ
 0001:0007bd10       _lsp_decw_reset            0047cd10 f   va_g729a:LSPDEC.OBJ
 0001:0007bd60       _d_lsp                     0047cd60 f   va_g729a:LSPDEC.OBJ
 0001:0007be70       _dec_gain                  0047ce70 f   va_g729a:DEC_GAIN.OBJ
 0001:0007bf60       _decod_ACELP               0047cf60 f   va_g729a:DE_ACELP.OBJ
 0001:0007c000       _pred_lt_3                 0047d000 f   va_g729a:PRED_LT3.OBJ
 0001:0007c0a0       _dec_lag3                  0047d0a0 f   va_g729a:DEC_LAG3.OBJ
 0001:0007c140       _lsp_get_quant             0047d140 f   va_g729a:LSPGETQ.OBJ
 0001:0007c210       _lsp_expand_1              0047d210 f   va_g729a:LSPGETQ.OBJ
 0001:0007c250       _lsp_expand_2              0047d250 f   va_g729a:LSPGETQ.OBJ
 0001:0007c290       _lsp_expand_1_2            0047d290 f   va_g729a:LSPGETQ.OBJ
 0001:0007c330       _lsp_prev_extract          0047d330 f   va_g729a:LSPGETQ.OBJ
 0001:0007c3b0       _lsp_prev_update           0047d3b0 f   va_g729a:LSPGETQ.OBJ
 0001:0007c4b0       _gain_predict              0047d4b0 f   va_g729a:GAINPRED.OBJ
 0001:0007c530       _gain_update               0047d530 f   va_g729a:GAINPRED.OBJ
 0001:0007c560       _gain_update_erasure       0047d560 f   va_g729a:GAINPRED.OBJ
 0001:0007c5c0       _AVIFileInit@0             0047d5c0 f   vfw32:AVIFIL32.dll
 0001:0007c5c6       _AVIFileExit@0             0047d5c6 f   vfw32:AVIFIL32.dll
 0001:0007c5cc       _AVIStreamSetFormat@16     0047d5cc f   vfw32:AVIFIL32.dll
 0001:0007c5d2       _AVIFileCreateStreamA@12   0047d5d2 f   vfw32:AVIFIL32.dll
 0001:0007c5d8       _AVIFileOpenA@16           0047d5d8 f   vfw32:AVIFIL32.dll
 0001:0007c5de       _AVIStreamWrite@32         0047d5de f   vfw32:AVIFIL32.dll
 0001:0007c5e4       _AVIFileRelease@4          0047d5e4 f   vfw32:AVIFIL32.dll
 0001:0007c5ea       _AVIStreamRelease@4        0047d5ea f   vfw32:AVIFIL32.dll
 0001:0007c5f0       _DrawDibClose@4            0047d5f0 f   vfw32:MSVFW32.dll
 0001:0007c5f6       _DrawDibOpen@0             0047d5f6 f   vfw32:MSVFW32.dll
 0001:0007c5fc       _DrawDibDraw@52            0047d5fc f   vfw32:MSVFW32.dll
 0001:0007c602       ??_9@$BME@AE               0047d602 f i nafxcw:dlgcore.obj
 0001:0007c60a       ??_9@$BMI@AE               0047d60a f i nafxcw:dlgcore.obj
 0001:0007c612       ?AfxCheckError@@YGXJ@Z     0047d612 f   nafxcw:olevar.obj
 0001:0007c631       ?_AfxCompareSafeArrays@@YGHPAUtagSAFEARRAY@@0@Z 0047d631 f   nafxcw:olevar.obj
 0001:0007c89d       ??0COleVariant@@QAE@PBUtagVARIANT@@@Z 0047d89d f   nafxcw:olevar.obj
 0001:0007c89d       ??0COleVariant@@QAE@ABUtagVARIANT@@@Z 0047d89d f   nafxcw:olevar.obj
 0001:0007c89d       ??0COleVariant@@QAE@ABV0@@Z 0047d89d f   nafxcw:olevar.obj
 0001:0007c8bd       ??0COleVariant@@QAE@PBDG@Z 0047d8bd f   nafxcw:olevar.obj
 0001:0007c938       ??0COleVariant@@QAE@FG@Z   0047d938 f   nafxcw:olevar.obj
 0001:0007c96e       ??0COleVariant@@QAE@JG@Z   0047d96e f   nafxcw:olevar.obj
 0001:0007c9b0       ?ChangeType@COleVariant@@QAEXGPAUtagVARIANT@@@Z 0047d9b0 f   nafxcw:olevar.obj
 0001:0007c9db       ??8COleVariant@@QBEHABUtagVARIANT@@@Z 0047d9db f   nafxcw:olevar.obj
 0001:0007caf7       ??4COleVariant@@QAEABV0@ABUtagVARIANT@@@Z 0047daf7 f   nafxcw:olevar.obj
 0001:0007caf7       ??4COleSafeArray@@QAEAAV0@PBUtagVARIANT@@@Z 0047daf7 f   nafxcw:olevar.obj
 0001:0007caf7       ??4COleVariant@@QAEABV0@ABV0@@Z 0047daf7 f   nafxcw:olevar.obj
 0001:0007cb11       ??4COleVariant@@QAEABV0@ABVCString@@@Z 0047db11 f   nafxcw:olevar.obj
 0001:0007cb83       ??4COleVariant@@QAEABV0@ABVCOleDateTime@@@Z 0047db83 f   nafxcw:olevar.obj
 0001:0007cba7       ?AfxVariantInit@@YGXPAUtagVARIANT@@@Z 0047dba7 f   nafxcw:olevar.obj
 0001:0007cbba       ??6@YGAAVCArchive@@AAV0@VCOleVariant@@@Z 0047dbba f   nafxcw:olevar.obj
 0001:0007cd84       ??5@YGAAVCArchive@@AAV0@AAVCOleVariant@@@Z 0047dd84 f   nafxcw:olevar.obj
 0001:0007cfb5       ?_AfxOleDateFromTm@@YGHGGGGGGAAN@Z 0047dfb5 f   nafxcw:olevar.obj
 0001:0007d0f2       ?_AfxTmFromOleDate@@YGHNAAUtm@@@Z 0047e0f2 f   nafxcw:olevar.obj
 0001:0007d2cd       ??6CArchive@@QAEAAV0@E@Z   0047e2cd f i nafxcw:olevar.obj
 0001:0007d2f0       ??6CArchive@@QAEAAV0@G@Z   0047e2f0 f i nafxcw:olevar.obj
 0001:0007d317       ??6CArchive@@QAEAAV0@J@Z   0047e317 f i nafxcw:olevar.obj
 0001:0007d317       ??6CArchive@@QAEAAV0@M@Z   0047e317 f i nafxcw:olevar.obj
 0001:0007d317       ??6CArchive@@QAEAAV0@K@Z   0047e317 f i nafxcw:olevar.obj
 0001:0007d33d       ??6CArchive@@QAEAAV0@N@Z   0047e33d f i nafxcw:olevar.obj
 0001:0007d36a       ?_AfxTmConvertToStandardFormat@@YGXAAUtm@@@Z 0047e36a f   nafxcw:olevar.obj
 0001:0007d381       ?_AfxDoubleFromDate@@YGNN@Z 0047e381 f   nafxcw:olevar.obj
 0001:0007d3a7       ??5CArchive@@QAEAAV0@AAE@Z 0047e3a7 f i nafxcw:olevar.obj
 0001:0007d3d6       ??5CArchive@@QAEAAV0@AAG@Z 0047e3d6 f i nafxcw:olevar.obj
 0001:0007d409       ??5CArchive@@QAEAAV0@AAN@Z 0047e409 f i nafxcw:olevar.obj
 0001:0007d441       ??5CArchive@@QAEAAV0@AAM@Z 0047e441 f i nafxcw:olevar.obj
 0001:0007d441       ??5CArchive@@QAEAAV0@AAJ@Z 0047e441 f i nafxcw:olevar.obj
 0001:0007d441       ??5CArchive@@QAEAAV0@AAK@Z 0047e441 f i nafxcw:olevar.obj
 0001:0007d473       ??4COleDateTime@@QAEABV0@N@Z 0047e473 f   nafxcw:olevar.obj
 0001:0007d482       ??4COleDateTime@@QAEABV0@ABU_SYSTEMTIME@@@Z 0047e482 f   nafxcw:olevar.obj
 0001:0007d4ba       ??MCOleDateTime@@QBEHABV0@@Z 0047e4ba f   nafxcw:olevar.obj
 0001:0007d4f0       ?SetDateTime@COleDateTime@@QAEHHHHHHH@Z 0047e4f0 f   nafxcw:olevar.obj
 0001:0007d51b       ?ParseDateTime@COleDateTime@@QAEHPBDKK@Z 0047e51b f   nafxcw:olevar.obj
 0001:0007d5e5       ?Format@COleDateTime@@QBE?AVCString@@KK@Z 0047e5e5 f   nafxcw:olevar.obj
 0001:0007d6f0       ?Format@COleDateTime@@QBE?AVCString@@PBD@Z 0047e6f0 f   nafxcw:olevar.obj
 0001:0007d7b4       ??6@YGAAVCArchive@@AAV0@VCOleDateTime@@@Z 0047e7b4 f   nafxcw:olevar.obj
 0001:0007d7d6       ??5@YGAAVCArchive@@AAV0@AAVCOleDateTime@@@Z 0047e7d6 f   nafxcw:olevar.obj
 0001:0007d7f6       ??0COleSafeArray@@QAE@PBUtagVARIANT@@@Z 0047e7f6 f   nafxcw:olevar.obj
 0001:0007d828       ?CreateOneDim@COleSafeArray@@QAEXGKPBXJ@Z 0047e828 f   nafxcw:olevar.obj
 0001:0007d884       ?GetOneDimSize@COleSafeArray@@QAEKXZ 0047e884 f   nafxcw:olevar.obj
 0001:0007d8ae       ?Create@COleSafeArray@@QAEXGKPAUtagSAFEARRAYBOUND@@@Z 0047e8ae f   nafxcw:olevar.obj
 0001:0007d8f8       ?AccessData@COleSafeArray@@QAEXPAPAX@Z 0047e8f8 f   nafxcw:olevar.obj
 0001:0007d90e       ?UnaccessData@COleSafeArray@@QAEXXZ 0047e90e f   nafxcw:olevar.obj
 0001:0007d91e       ?GetLBound@COleSafeArray@@QAEXKPAJ@Z 0047e91e f   nafxcw:olevar.obj
 0001:0007d938       ?GetUBound@COleSafeArray@@QAEXKPAJ@Z 0047e938 f   nafxcw:olevar.obj
 0001:0007d952       ?AfxSafeArrayInit@@YGXPAVCOleSafeArray@@@Z 0047e952 f   nafxcw:olevar.obj
 0001:0007d965       ??_GCListBox@@UAEPAXI@Z    0047e965 f i nafxcw:winctrl1.obj
 0001:0007d965       ??_ECListBox@@UAEPAXI@Z    0047e965 f i nafxcw:winctrl1.obj
 0001:0007d981       ??_ECScrollBar@@UAEPAXI@Z  0047e981 f i nafxcw:winctrl1.obj
 0001:0007d981       ??_GCScrollBar@@UAEPAXI@Z  0047e981 f i nafxcw:winctrl1.obj
 0001:0007d99d       _InitMultipleMonitorStubs  0047e99d f   nafxcw:wincore.obj
 0001:0007da75       _xMonitorFromRect@8        0047ea75 f   nafxcw:wincore.obj
 0001:0007dacb       _xMonitorFromWindow@8      0047eacb f   nafxcw:wincore.obj
 0001:0007db36       _xGetMonitorInfo@8         0047eb36 f   nafxcw:wincore.obj
 0001:0007dbc9       ?GetOwner@CWnd@@QBEPAV1@XZ 0047ebc9 f i nafxcw:wincore.obj
 0001:0007dbe0       ??1CWaitCursor@@QAE@XZ     0047ebe0 f i nafxcw:wincore.obj
 0001:0007dbed       ?id@?$ctype@G@std@@$E      0047ebed f i nafxcw:filecore.obj
 0001:0007dbed       ??1COccManager@@UAE@XZ     0047ebed f i nafxcw:filecore.obj
 0001:0007dbed       ??1CException@@UAE@XZ      0047ebed f i nafxcw:filecore.obj
 0001:0007dbed       ??1CObject@@UAE@XZ         0047ebed f i nafxcw:filecore.obj
 0001:0007dbed       ?id@?$collate@D@std@@$E    0047ebed f i nafxcw:filecore.obj
 0001:0007dbed       ??1CNoTrackObject@@UAE@XZ  0047ebed f i nafxcw:filecore.obj
 0001:0007dbed       ?PostNcDestroy@CHtmlCtrl@@UAEXXZ 0047ebed f i nafxcw:filecore.obj
 0001:0007dbee       ??_ECFileException@@UAEPAXI@Z 0047ebee f i nafxcw:filecore.obj
 0001:0007dbee       ??_GCFileException@@UAEPAXI@Z 0047ebee f i nafxcw:filecore.obj
 0001:0007dc0a       ??1CFileException@@UAE@XZ  0047ec0a f i nafxcw:filecore.obj
 0001:0007dc36       ?SetFilePath@CFile@@UAEXPBD@Z 0047ec36 f i nafxcw:filecore.obj
 0001:0007dc45       ??0CMemoryException@@QAE@HI@Z 0047ec45 f i nafxcw:except.obj
 0001:0007dc6f       ??_GCMemoryException@@UAEPAXI@Z 0047ec6f f i nafxcw:except.obj
 0001:0007dc6f       ??_ECMemoryException@@UAEPAXI@Z 0047ec6f f i nafxcw:except.obj
 0001:0007dc8b       ??1CMemoryException@@UAE@XZ 0047ec8b f i nafxcw:except.obj
 0001:0007dc92       ??0CNotSupportedException@@QAE@HI@Z 0047ec92 f i nafxcw:except.obj
 0001:0007dcbc       ??_ECNotSupportedException@@UAEPAXI@Z 0047ecbc f i nafxcw:except.obj
 0001:0007dcbc       ??_GCNotSupportedException@@UAEPAXI@Z 0047ecbc f i nafxcw:except.obj
 0001:0007dcd8       ??1CNotSupportedException@@UAE@XZ 0047ecd8 f i nafxcw:except.obj
 0001:0007dcdf       ??0CResourceException@@QAE@HI@Z 0047ecdf f i nafxcw:wingdi.obj
 0001:0007dd09       ??_ECResourceException@@UAEPAXI@Z 0047ed09 f i nafxcw:wingdi.obj
 0001:0007dd09       ??_GCResourceException@@UAEPAXI@Z 0047ed09 f i nafxcw:wingdi.obj
 0001:0007dd25       ??1CResourceException@@UAE@XZ 0047ed25 f i nafxcw:wingdi.obj
 0001:0007dd2c       ??0CUserException@@QAE@HI@Z 0047ed2c f i nafxcw:wingdi.obj
 0001:0007dd56       ??_ECUserException@@UAEPAXI@Z 0047ed56 f i nafxcw:wingdi.obj
 0001:0007dd56       ??_GCUserException@@UAEPAXI@Z 0047ed56 f i nafxcw:wingdi.obj
 0001:0007dd72       ??1CUserException@@UAE@XZ  0047ed72 f i nafxcw:wingdi.obj
 0001:0007dd79       ?PtVisible@CDC@@UBEHHH@Z   0047ed79 f i nafxcw:wingdi.obj
 0001:0007dd8d       ?RectVisible@CDC@@UBEHPBUtagRECT@@@Z 0047ed8d f i nafxcw:wingdi.obj
 0001:0007dd9d       ?TextOutA@CDC@@UAEHHHPBDH@Z 0047ed9d f i nafxcw:wingdi.obj
 0001:0007ddb9       ?ExtTextOutA@CDC@@UAEHHHIPBUtagRECT@@PBDIPAH@Z 0047edb9 f i nafxcw:wingdi.obj
 0001:0007ddde       ?TabbedTextOutA@CDC@@UAE?AVCSize@@HHPBDHHPAHH@Z 0047edde f i nafxcw:wingdi.obj
 0001:0007de16       ?DrawTextA@CDC@@UAEHPBDHPAUtagRECT@@I@Z 0047ee16 f i nafxcw:wingdi.obj
 0001:0007de32       ?GrayStringA@CDC@@UAEHPAVCBrush@@P6GHPAUHDC__@@JH@ZJHHHHH@Z 0047ee32 f i nafxcw:wingdi.obj
 0001:0007de62       ?Escape@CDC@@UAEHHHPBDPAX@Z 0047ee62 f i nafxcw:wingdi.obj
 0001:0007de9f       ??1?$CProcessLocal@VCOccManager@@@@QAE@XZ 0047ee9f f i nafxcw:occmgr.obj
 0001:0007dea4       ?AfxEnableControlContainer@@YAXPAVCOccManager@@@Z 0047eea4 f   nafxcw:occmgr.obj
 0001:0007decb       ?_AfxFindFirstDlgItem@@YGPAUDLGITEMTEMPLATE@@PBUDLGTEMPLATE@@@Z 0047eecb f   nafxcw:occmgr.obj
 0001:0007df51       ?_AfxFindNextDlgItem@@YGPAUDLGITEMTEMPLATE@@PAU1@H@Z 0047ef51 f   nafxcw:occmgr.obj
 0001:0007dfa5       ?OnEvent@COccManager@@UAEHPAVCCmdTarget@@IPAUAFX_EVENT@@PAUAFX_CMDHANDLERINFO@@@Z 0047efa5 f   nafxcw:occmgr.obj
 0001:0007dfbd       ?CreateContainer@COccManager@@UAEPAVCOleControlContainer@@PAVCWnd@@@Z 0047efbd f   nafxcw:occmgr.obj
 0001:0007dff4       ?CreateSite@COccManager@@UAEPAVCOleControlSite@@PAVCOleControlContainer@@@Z 0047eff4 f   nafxcw:occmgr.obj
 0001:0007e02e       ?PreCreateDialog@COccManager@@UAEPBUDLGTEMPLATE@@PAU_AFX_OCC_DIALOG_INFO@@PBU2@@Z 0047f02e f   nafxcw:occmgr.obj
 0001:0007e078       ?PostCreateDialog@COccManager@@UAEXPAU_AFX_OCC_DIALOG_INFO@@@Z 0047f078 f   nafxcw:occmgr.obj
 0001:0007e09c       ?SplitDialogTemplate@COccManager@@UAEPAUDLGTEMPLATE@@PBU2@PAPAUDLGITEMTEMPLATE@@@Z 0047f09c f   nafxcw:occmgr.obj
 0001:0007e1db       ?CreateDlgControls@COccManager@@UAEHPAVCWnd@@PBDPAU_AFX_OCC_DIALOG_INFO@@@Z 0047f1db f   nafxcw:occmgr.obj
 0001:0007e236       ?CreateDlgControls@COccManager@@UAEHPAVCWnd@@PAXPAU_AFX_OCC_DIALOG_INFO@@@Z 0047f236 f   nafxcw:occmgr.obj
 0001:0007e391       ?BindControls@COccManager@@IAEXPAVCWnd@@@Z 0047f391 f   nafxcw:occmgr.obj
 0001:0007e4ac       ?CreateDlgControl@COccManager@@IAEPAUHWND__@@PAVCWnd@@PAU2@HPAUDLGITEMTEMPLATE@@GPAEK@Z 0047f4ac f   nafxcw:occmgr.obj
 0001:0007e777       ?CreateObject@?$CProcessLocal@VCOccManager@@@@SGPAVCNoTrackObject@@XZ 0047f777 f i nafxcw:occmgr.obj
 0001:0007e78c       ??_GCOccManager@@UAEPAXI@Z 0047f78c f i nafxcw:occmgr.obj
 0001:0007e78c       ??_ECOccManager@@UAEPAXI@Z 0047f78c f i nafxcw:occmgr.obj
 0001:0007e7a7       ??_9@$BOA@AE               0047f7a7 f i nafxcw:viewcore.obj
 0001:0007e7af       ??1CPushRoutingView@@QAE@XZ 0047f7af f i nafxcw:viewcore.obj
 0001:0007e7bb       ??1CPushRoutingFrame@@QAE@XZ 0047f7bb f i nafxcw:winfrm.obj
 0001:0007e7c7       ??_ECRgn@@UAEPAXI@Z        0047f7c7 f i nafxcw:winctrl2.obj
 0001:0007e7c7       ??_GCRgn@@UAEPAXI@Z        0047f7c7 f i nafxcw:winctrl2.obj
 0001:0007e7e3       ??1CRgn@@UAE@XZ            0047f7e3 f i nafxcw:winctrl2.obj
 0001:0007e80c       ??_GCHeaderCtrl@@UAEPAXI@Z 0047f80c f i nafxcw:winctrl2.obj
 0001:0007e80c       ??_ECHeaderCtrl@@UAEPAXI@Z 0047f80c f i nafxcw:winctrl2.obj
 0001:0007e828       ??_ECTabCtrl@@UAEPAXI@Z    0047f828 f i nafxcw:winctrl2.obj
 0001:0007e828       ??_GCTabCtrl@@UAEPAXI@Z    0047f828 f i nafxcw:winctrl2.obj
 0001:0007e844       ??0CPoint@@QAE@K@Z         0047f844 f i nafxcw:barcore.obj
 0001:0007e85b       ?OnCancelMode@CWnd@@IAEXXZ 0047f85b f i nafxcw:barcore.obj
 0001:0007e860       ?OnEraseBkgnd@CWnd@@IAEHPAVCDC@@@Z 0047f860 f i nafxcw:barcore.obj
 0001:0007e868       ?OnShowWindow@CWnd@@IAEXHI@Z 0047f868 f i nafxcw:barcore.obj
 0001:0007e870       ?GetMessageMap@CHtmlView@@MBEPBUAFX_MSGMAP@@XZ 0047f870 f   nafxcw:viewhtml.obj
 0001:0007e876       ?GetEventSinkMap@CHtmlView@@MBEPBUAFX_EVENTSINKMAP@@XZ 0047f876 f   nafxcw:viewhtml.obj
 0001:0007e87c       ??0CHtmlView@@IAE@XZ       0047f87c f   nafxcw:viewhtml.obj
 0001:0007e8bc       ??_ECHtmlView@@UAEPAXI@Z   0047f8bc f i nafxcw:viewhtml.obj
 0001:0007e8bc       ??_GCHtmlView@@UAEPAXI@Z   0047f8bc f i nafxcw:viewhtml.obj
 0001:0007e8d8       ??1CFormView@@UAE@XZ       0047f8d8 f i nafxcw:viewhtml.obj
 0001:0007e8dd       ??1CHtmlView@@UAE@XZ       0047f8dd f   nafxcw:viewhtml.obj
 0001:0007e92f       ?OnFilePrint@CHtmlView@@QAEXXZ 0047f92f f   nafxcw:viewhtml.obj
 0001:0007e981       ?OnDestroy@CHtmlView@@IAEXXZ 0047f981 f   nafxcw:viewhtml.obj
 0001:0007e98e       ?OnSize@CHtmlView@@IAEXIHH@Z 0047f98e f   nafxcw:viewhtml.obj
 0001:0007ea02       ?OnPaint@CHtmlView@@IAEXXZ 0047fa02 f   nafxcw:viewhtml.obj
 0001:0007ea07       ?Create@CHtmlView@@UAEHPBD0KABUtagRECT@@PAVCWnd@@IPAUCCreateContext@@@Z 0047fa07 f   nafxcw:viewhtml.obj
 0001:0007eaad       ?GetHtmlDocument@CHtmlView@@QBEPAUIDispatch@@XZ 0047faad f   nafxcw:viewhtml.obj
 0001:0007eac6       ?Navigate2@CHtmlView@@QAEXPBDK00PAXK@Z 0047fac6 f   nafxcw:viewhtml.obj
 0001:0007eba8       ?NavigateComplete2@CHtmlView@@MAEXPAUIDispatch@@PAUtagVARIANT@@@Z 0047fba8 f   nafxcw:viewhtml.obj
 0001:0007ec33       ?BeforeNavigate2@CHtmlView@@MAEXPAUIDispatch@@PAUtagVARIANT@@1111PAH@Z 0047fc33 f   nafxcw:viewhtml.obj
 0001:0007ed4d       ?DocumentComplete@CHtmlView@@MAEXPAUIDispatch@@PAUtagVARIANT@@@Z 0047fd4d f   nafxcw:viewhtml.obj
 0001:0007ed94       ?OnQuit@CHtmlView@@UAEXXZ  0047fd94 f   nafxcw:viewhtml.obj
 0001:0007ed94       __fpclear                  0047fd94 f   nafxcw:viewhtml.obj
 0001:0007ed94       ?OnDownloadBegin@CHtmlView@@UAEXXZ 0047fd94 f   nafxcw:viewhtml.obj
 0001:0007ed94       ?OnDownloadComplete@CHtmlView@@UAEXXZ 0047fd94 f   nafxcw:viewhtml.obj
 0001:0007ed95       ?OnCommandStateChange@CHtmlView@@UAEXJH@Z 0047fd95 f   nafxcw:viewhtml.obj
 0001:0007ed95       ?OnProgressChange@CHtmlView@@UAEXJJ@Z 0047fd95 f   nafxcw:viewhtml.obj
 0001:0007ed95       ?OnNewWindow2@CHtmlView@@UAEXPAPAUIDispatch@@PAH@Z 0047fd95 f   nafxcw:viewhtml.obj
 0001:0007ed98       ?OnTitleChange@CHtmlView@@UAEXPBD@Z 0047fd98 f   nafxcw:viewhtml.obj
 0001:0007ed98       ?OnToolBar@CHtmlView@@UAEXH@Z 0047fd98 f   nafxcw:viewhtml.obj
 0001:0007ed98       ?OnTheaterMode@CHtmlView@@UAEXH@Z 0047fd98 f   nafxcw:viewhtml.obj
 0001:0007ed98       ?OnFullScreen@CHtmlView@@UAEXH@Z 0047fd98 f   nafxcw:viewhtml.obj
 0001:0007ed98       ?OnNavigateComplete2@CHtmlView@@UAEXPBD@Z 0047fd98 f   nafxcw:viewhtml.obj
 0001:0007ed98       ?OnMenuBar@CHtmlView@@UAEXH@Z 0047fd98 f   nafxcw:viewhtml.obj
 0001:0007ed98       ?OnVisible@CHtmlView@@UAEXH@Z 0047fd98 f   nafxcw:viewhtml.obj
 0001:0007ed98       ?OnDocumentComplete@CHtmlView@@UAEXPBD@Z 0047fd98 f   nafxcw:viewhtml.obj
 0001:0007ed98       ?OnPropertyChange@CHtmlView@@UAEXPBD@Z 0047fd98 f   nafxcw:viewhtml.obj
 0001:0007ed98       ?OnDraw@CHtmlView@@UAEXPAVCDC@@@Z 0047fd98 f   nafxcw:viewhtml.obj
 0001:0007ed98       ?OnStatusBar@CHtmlView@@UAEXH@Z 0047fd98 f   nafxcw:viewhtml.obj
 0001:0007ed9b       ?OnBeforeNavigate2@CHtmlView@@UAEXPBDK0AAVCByteArray@@0PAH@Z 0047fd9b f   nafxcw:viewhtml.obj
 0001:0007ed9e       ?OnStatusTextChange@CHtmlView@@UAEXPBD@Z 0047fd9e f   nafxcw:viewhtml.obj
 0001:0007edb5       ??_9@$BBDM@AE              0047fdb5 f i nafxcw:viewhtml.obj
 0001:0007edbd       ??_9@$BBBM@AE              0047fdbd f i nafxcw:viewhtml.obj
 0001:0007edc5       ??_9@$BBEA@AE              0047fdc5 f i nafxcw:viewhtml.obj
 0001:0007edcd       ??_9@$BBCA@AE              0047fdcd f i nafxcw:viewhtml.obj
 0001:0007edd5       ??_9@$BBEE@AE              0047fdd5 f i nafxcw:viewhtml.obj
 0001:0007eddd       ??_9@$BBCE@AE              0047fddd f i nafxcw:viewhtml.obj
 0001:0007ede5       ??_9@$BBEI@AE              0047fde5 f i nafxcw:viewhtml.obj
 0001:0007eded       ??_9@$BBCI@AE              0047fded f i nafxcw:viewhtml.obj
 0001:0007edf5       ??_9@$BBEM@AE              0047fdf5 f i nafxcw:viewhtml.obj
 0001:0007edfd       ??_9@$BBCM@AE              0047fdfd f i nafxcw:viewhtml.obj
 0001:0007ee05       ??_9@$BBFA@AE              0047fe05 f i nafxcw:viewhtml.obj
 0001:0007ee0d       ??_9@$BBBA@AE              0047fe0d f i nafxcw:viewhtml.obj
 0001:0007ee15       ??_9@$BBDE@AE              0047fe15 f i nafxcw:viewhtml.obj
 0001:0007ee1d       ??_9@$BBFE@AE              0047fe1d f i nafxcw:viewhtml.obj
 0001:0007ee25       ??_9@$BBBE@AE              0047fe25 f i nafxcw:viewhtml.obj
 0001:0007ee2d       ??_9@$BBDI@AE              0047fe2d f i nafxcw:viewhtml.obj
 0001:0007ee35       ??_9@$BBFI@AE              0047fe35 f i nafxcw:viewhtml.obj
 0001:0007ee3d       ??_9@$BBBI@AE              0047fe3d f i nafxcw:viewhtml.obj
 0001:0007ee45       ??1COleVariant@@QAE@XZ     0047fe45 f i nafxcw:viewhtml.obj
 0001:0007ee45       ??1COleSafeArray@@QAE@XZ   0047fe45 f i nafxcw:viewhtml.obj
 0001:0007ee4d       ?Unlock@CSyncObject@@UAEHJPAJ@Z 0047fe4d f i nafxcw:inet.obj
 0001:0007ee53       ??_GCCriticalSection@@UAEPAXI@Z 0047fe53 f i nafxcw:inet.obj
 0001:0007ee53       ??_ECCriticalSection@@UAEPAXI@Z 0047fe53 f i nafxcw:inet.obj
 0001:0007ee6f       ??1CCriticalSection@@UAE@XZ 0047fe6f f i nafxcw:inet.obj
 0001:0007ee8b       ?Lock@CCriticalSection@@UAEHK@Z 0047fe8b f i nafxcw:inet.obj
 0001:0007ee9b       ?Unlock@CCriticalSection@@UAEHXZ 0047fe9b f i nafxcw:inet.obj
 0001:0007eea9       ??_ECGopherLocator@@UAEPAXI@Z 0047fea9 f i nafxcw:inet.obj
 0001:0007eea9       ??_GCGopherLocator@@UAEPAXI@Z 0047fea9 f i nafxcw:inet.obj
 0001:0007eec5       ??_GCOleException@@UAEPAXI@Z 0047fec5 f i nafxcw:olemisc.obj
 0001:0007eec5       ??_ECOleException@@UAEPAXI@Z 0047fec5 f i nafxcw:olemisc.obj
 0001:0007eee1       ??1COleException@@UAE@XZ   0047fee1 f i nafxcw:olemisc.obj
 0001:0007eee8       ??_ECHandleMap@@UAEPAXI@Z  0047fee8 f i nafxcw:winhand.obj
 0001:0007eee8       ??_GCHandleMap@@UAEPAXI@Z  0047fee8 f i nafxcw:winhand.obj
 0001:0007ef04       ??1CHandleMap@@UAE@XZ      0047ff04 f i nafxcw:winhand.obj
 0001:0007ef4c       ??0CFixedAlloc@@QAE@II@Z   0047ff4c f   nafxcw:fixalloc.obj
 0001:0007ef74       ??1CFixedAlloc@@QAE@XZ     0047ff74 f   nafxcw:fixalloc.obj
 0001:0007ef88       ?FreeAll@CFixedAlloc@@QAEXXZ 0047ff88 f   nafxcw:fixalloc.obj
 0001:0007efb0       ?Alloc@CFixedAlloc@@QAEPAXXZ 0047ffb0 f   nafxcw:fixalloc.obj
 0001:0007f03f       ?Free@CFixedAlloc@@QAEXPAX@Z 0048003f f   nafxcw:fixalloc.obj
 0001:0007f06b       ?OnEvent@CCmdTarget@@QAEHIPAUAFX_EVENT@@PAUAFX_CMDHANDLERINFO@@@Z 0048006b f   nafxcw:occevent.obj
 0001:0007f27d       ?GetEventSinkEntry@CCmdTarget@@IAGPBUAFX_EVENTSINKMAP_ENTRY@@IPAUAFX_EVENT@@@Z 0048027d f   nafxcw:occevent.obj
 0001:0007f2f2       ?CreateControl@CWnd@@QAEHABU_GUID@@PBDKABUtagRECT@@PAV1@IPAVCFile@@HPAG@Z 004802f2 f   nafxcw:occcont.obj
 0001:0007f350       ?CreateControl@CWnd@@QAEHABU_GUID@@PBDKPBUtagPOINT@@PBUtagSIZE@@PAV1@IPAVCFile@@HPAG@Z 00480350 f   nafxcw:occcont.obj
 0001:0007f399       ?InitControlContainer@CWnd@@IAEHXZ 00480399 f   nafxcw:occcont.obj
 0001:0007f442       ?GetInterfaceMap@COleControlContainer@@MBEPBUAFX_INTERFACEMAP@@XZ 00480442 f   nafxcw:occcont.obj
 0001:0007f448       ?GetDispatchMap@COleControlContainer@@MBEPBUAFX_DISPMAP@@XZ 00480448 f   nafxcw:occcont.obj
 0001:0007f44e       ??0COleControlContainer@@QAE@PAVCWnd@@@Z 0048044e f   nafxcw:occcont.obj
 0001:0007f4ad       ??_ECOleControlContainer@@UAEPAXI@Z 004804ad f i nafxcw:occcont.obj
 0001:0007f4ad       ??_GCOleControlContainer@@UAEPAXI@Z 004804ad f i nafxcw:occcont.obj
 0001:0007f4c9       ??1COleControlContainer@@UAE@XZ 004804c9 f   nafxcw:occcont.obj
 0001:0007f5a7       ?CreateControl@COleControlContainer@@QAEHPAVCWnd@@ABU_GUID@@PBDKABUtagRECT@@IPAVCFile@@HPAGPAPAVCOleControlSite@@@Z 004805a7 f   nafxcw:occcont.obj
 0001:0007f608       ?CreateControl@COleControlContainer@@QAEHPAVCWnd@@ABU_GUID@@PBDKPBUtagPOINT@@PBUtagSIZE@@IPAVCFile@@HPAGPAPAVCOleControlSite@@@Z 00480608 f   nafxcw:occcont.obj
 0001:0007f6c3       ?FindItem@COleControlContainer@@UBEPAVCOleControlSite@@I@Z 004806c3 f   nafxcw:occcont.obj
 0001:0007f70d       ?GetAmbientProp@COleControlContainer@@UAEHPAVCOleControlSite@@JPAUtagVARIANT@@@Z 0048070d f   nafxcw:occcont.obj
 0001:0007f915       ?CreateOleFont@COleControlContainer@@QAEXPAVCFont@@@Z 00480915 f   nafxcw:occcont.obj
 0001:0007fa8e       ?FreezeAllEvents@COleControlContainer@@QAEXH@Z 00480a8e f   nafxcw:occcont.obj
 0001:0007facf       ?ScrollChildren@COleControlContainer@@UAEXHH@Z 00480acf f   nafxcw:occcont.obj
 0001:0007fb29       ?OnUIActivate@COleControlContainer@@UAEXPAVCOleControlSite@@@Z 00480b29 f   nafxcw:occcont.obj
 0001:0007fb47       ?OnUIDeactivate@COleControlContainer@@UAEXPAVCOleControlSite@@@Z 00480b47 f   nafxcw:occcont.obj
 0001:0007fb57       ?CheckDlgButton@COleControlContainer@@UAEXHI@Z 00480b57 f   nafxcw:occcont.obj
 0001:0007fb94       ?CheckRadioButton@COleControlContainer@@UAEXHHH@Z 00480b94 f   nafxcw:occcont.obj
 0001:0007fbbc       ?GetDlgItem@COleControlContainer@@UBEPAVCWnd@@H@Z 00480bbc f   nafxcw:occcont.obj
 0001:0007fbd7       ?GetDlgItem@COleControlContainer@@UBEXHPAPAUHWND__@@@Z 00480bd7 f   nafxcw:occcont.obj
 0001:0007fc13       ?GetDlgItemInt@COleControlContainer@@UBEIHPAHH@Z 00480c13 f   nafxcw:occcont.obj
 0001:0007fcc1       ?GetDlgItemTextA@COleControlContainer@@UBEHHPADH@Z 00480cc1 f   nafxcw:occcont.obj
 0001:0007fce0       ?SendDlgItemMessageA@COleControlContainer@@UAEJHIIJ@Z 00480ce0 f   nafxcw:occcont.obj
 0001:0007fd05       ?SetDlgItemInt@COleControlContainer@@UAEXHIH@Z 00480d05 f   nafxcw:occcont.obj
 0001:0007fd42       ?SetDlgItemTextA@COleControlContainer@@UAEXHPBD@Z 00480d42 f   nafxcw:occcont.obj
 0001:0007fd5d       ?IsDlgButtonChecked@COleControlContainer@@UBEIH@Z 00480d5d f   nafxcw:occcont.obj
 0001:0007fdd9       ?QueryInterface@XOleIPFrame@COleControlContainer@@UAGJABU_GUID@@PAPAX@Z 00480dd9 f   nafxcw:occcont.obj
 0001:0007fdf0       ?AddRef@XOleIPFrame@COleControlContainer@@UAGKXZ 00480df0 f   nafxcw:occcont.obj
 0001:0007fe01       ?Release@XOleIPFrame@COleControlContainer@@UAGKXZ 00480e01 f   nafxcw:occcont.obj
 0001:0007fe10       ?GetWindow@XOleIPFrame@COleControlContainer@@UAGJPAPAUHWND__@@@Z 00480e10 f   nafxcw:occcont.obj
 0001:0007fe25       ?SetActiveObject@XOleIPFrame@COleControlContainer@@UAGJPAUIOleInPlaceActiveObject@@PBG@Z 00480e25 f   nafxcw:occcont.obj
 0001:0007fe5c       ?GetInterfaceMap@CEnumUnknown@@MBEPBUAFX_INTERFACEMAP@@XZ 00480e5c f   nafxcw:occcont.obj
 0001:0007fe62       ??1CEnumUnknown@@UAE@XZ    00480e62 f   nafxcw:occcont.obj
 0001:0007feb8       ??_GCEnumUnknown@@UAEPAXI@Z 00480eb8 f i nafxcw:occcont.obj
 0001:0007feb8       ??_ECEnumUnknown@@UAEPAXI@Z 00480eb8 f i nafxcw:occcont.obj
 0001:0007fed4       ?OnNext@CEnumUnknown@@MAEHPAX@Z 00480ed4 f   nafxcw:occcont.obj
 0001:0007fef2       ?QueryInterface@XOleContainer@COleControlContainer@@UAGJABU_GUID@@PAPAX@Z 00480ef2 f   nafxcw:occcont.obj
 0001:0007ff09       ?Release@XOleContainer@COleControlContainer@@UAGKXZ 00480f09 f   nafxcw:occcont.obj
 0001:0007ff18       ?AddRef@XOleContainer@COleControlContainer@@UAGKXZ 00480f18 f   nafxcw:occcont.obj
 0001:0007ff29       ?ParseDisplayName@XOleContainer@COleControlContainer@@UAGJPAUIBindCtx@@PAGPAKPAPAUIMoniker@@@Z 00480f29 f   nafxcw:occcont.obj
 0001:0007ff31       ?EnumObjects@XOleContainer@COleControlContainer@@UAGJKPAPAUIEnumUnknown@@@Z 00480f31 f   nafxcw:occcont.obj
 0001:0008003f       ?GetFont@CWnd@@QBEPAVCFont@@XZ 0048103f f i nafxcw:occcont.obj
 0001:00080055       ?GetInterfaceMap@COleControlSite@@MBEPBUAFX_INTERFACEMAP@@XZ 00481055 f   nafxcw:occsite.obj
 0001:0008005b       ??0COleControlSite@@QAE@PAVCOleControlContainer@@@Z 0048105b f   nafxcw:occsite.obj
 0001:00080162       ??_GCOleControlSite@@UAEPAXI@Z 00481162 f i nafxcw:occsite.obj
 0001:00080162       ??_ECOleControlSite@@UAEPAXI@Z 00481162 f i nafxcw:occsite.obj
 0001:0008017e       ??1COleControlSite@@UAE@XZ 0048117e f   nafxcw:occsite.obj
 0001:000802aa       ?SetExtent@COleControlSite@@IAEHXZ 004812aa f   nafxcw:occsite.obj
 0001:00080352       ?CreateControl@COleControlSite@@QAEJPAVCWnd@@ABU_GUID@@PBDKPBUtagPOINT@@PBUtagSIZE@@IPAVCFile@@HPAG@Z 00481352 f   nafxcw:occsite.obj
 0001:000805ef       ?DestroyControl@COleControlSite@@UAEHXZ 004815ef f   nafxcw:occsite.obj
 0001:0008061e       ?_AfxCoCreateInstanceLic@@YGJABU_GUID@@PAUIUnknown@@K0PAPAXPAG@Z 0048161e f   nafxcw:occsite.obj
 0001:000806ab       ?QuickActivate@COleControlSite@@UAEHXZ 004816ab f   nafxcw:occsite.obj
 0001:0008084c       ?CreateOrLoad@COleControlSite@@IAEJABU_GUID@@PAVCFile@@HPAG@Z 0048184c f   nafxcw:occsite.obj
 0001:00080b56       ?GetDlgCtrlID@COleControlSite@@UBEHXZ 00481b56 f   nafxcw:occsite.obj
 0001:00080b56       ?GetID@COleControlSite@@QAEIXZ 00481b56 f   nafxcw:occsite.obj
 0001:00080b5a       ?DoVerb@COleControlSite@@UAEJJPAUtagMSG@@@Z 00481b5a f   nafxcw:occsite.obj
 0001:00080b86       ?IsDefaultButton@COleControlSite@@QAEHXZ 00481b86 f   nafxcw:occsite.obj
 0001:00080b97       ?GetDefBtnCode@COleControlSite@@QAEKXZ 00481b97 f   nafxcw:occsite.obj
 0001:00080baf       ?SetDefaultButton@COleControlSite@@QAEXH@Z 00481baf f   nafxcw:occsite.obj
 0001:00080bff       ?ConnectSink@COleControlSite@@IAEKABU_GUID@@PAUIUnknown@@@Z 00481bff f   nafxcw:occsite.obj
 0001:00080c67       ?DisconnectSink@COleControlSite@@IAEXABU_GUID@@K@Z 00481c67 f   nafxcw:occsite.obj
 0001:00080cc5       ?GetEventIID@COleControlSite@@QAEHPAU_GUID@@@Z 00481cc5 f   nafxcw:occsite.obj
 0001:00080e3f       ?GetControlInfo@COleControlSite@@QAEXXZ 00481e3f f   nafxcw:occsite.obj
 0001:00080e8d       ?IsMatchingMnemonic@COleControlSite@@QAEHPAUtagMSG@@@Z 00481e8d f   nafxcw:occsite.obj
 0001:00080f30       ?SendMnemonic@COleControlSite@@QAEXPAUtagMSG@@@Z 00481f30 f   nafxcw:occsite.obj
 0001:00080f78       ?FreezeEvents@COleControlSite@@QAEXH@Z 00481f78 f   nafxcw:occsite.obj
 0001:00080fae       ?AttachWindow@COleControlSite@@IAEXXZ 00481fae f   nafxcw:occsite.obj
 0001:00080feb       ?DetachWindow@COleControlSite@@IAEXXZ 00481feb f   nafxcw:occsite.obj
 0001:00081039       ?OnEvent@COleControlSite@@IAEHPAUAFX_EVENT@@@Z 00482039 f   nafxcw:occsite.obj
 0001:00081076       ?InvokeHelperV@COleControlSite@@UAEXJGGPAXPBEPAD@Z 00482076 f   nafxcw:occsite.obj
 0001:000810cc       ?SetPropertyV@COleControlSite@@UAEXJGPAD@Z 004820cc f   nafxcw:occsite.obj
 0001:00081127       ?InvokeHelper@COleControlSite@@UAAXJGGPAXPBEZZ 00482127 f   nafxcw:occsite.obj
 0001:00081147       ?GetProperty@COleControlSite@@UBEXJGPAX@Z 00482147 f   nafxcw:occsite.obj
 0001:00081163       ?SetProperty@COleControlSite@@UAAXJGZZ 00482163 f   nafxcw:occsite.obj
 0001:0008117a       ?SafeSetProperty@COleControlSite@@UAAHJGZZ 0048217a f   nafxcw:occsite.obj
 0001:000811cd       ?GetStyle@COleControlSite@@UBEKXZ 004821cd f   nafxcw:occsite.obj
 0001:00081283       ?GetExStyle@COleControlSite@@UBEKXZ 00482283 f   nafxcw:occsite.obj
 0001:000812eb       ?ModifyStyle@COleControlSite@@UAEHKKI@Z 004822eb f   nafxcw:occsite.obj
 0001:0008137b       ?ModifyStyleEx@COleControlSite@@UAEHKKI@Z 0048237b f   nafxcw:occsite.obj
 0001:000813cb       ?SetWindowTextA@COleControlSite@@UAEXPBD@Z 004823cb f   nafxcw:occsite.obj
 0001:000813fe       ?GetWindowTextA@COleControlSite@@UBEXAAVCString@@@Z 004823fe f   nafxcw:occsite.obj
 0001:0008146d       ?GetWindowTextA@COleControlSite@@UBEHPADH@Z 0048246d f   nafxcw:occsite.obj
 0001:000814c8       ?GetWindowTextLengthA@COleControlSite@@UBEHXZ 004824c8 f   nafxcw:occsite.obj
 0001:0008150d       ?SetDlgCtrlID@COleControlSite@@UAEHH@Z 0048250d f   nafxcw:occsite.obj
 0001:0008151a       ?MoveWindow@COleControlSite@@UAEXHHHHH@Z 0048251a f   nafxcw:occsite.obj
 0001:00081594       ?SetWindowPos@COleControlSite@@UAEHPBVCWnd@@HHHHI@Z 00482594 f   nafxcw:occsite.obj
 0001:00081649       ?ShowWindow@COleControlSite@@UAEHH@Z 00482649 f   nafxcw:occsite.obj
 0001:00081688       ?IsWindowEnabled@COleControlSite@@UBEHXZ 00482688 f   nafxcw:occsite.obj
 0001:000816d6       ?EnableWindow@COleControlSite@@UAEHH@Z 004826d6 f   nafxcw:occsite.obj
 0001:0008173f       ?SetFocus@COleControlSite@@UAEPAVCWnd@@XZ 0048273f f   nafxcw:occsite.obj
 0001:00081778       ?EnableDSC@COleControlSite@@UAEXXZ 00482778 f   nafxcw:occsite.obj
 0001:000817cc       ?BindDefaultProperty@COleControlSite@@UAEXJGPBDPAVCWnd@@@Z 004827cc f   nafxcw:occsite.obj
 0001:0008186e       ?BindProperty@COleControlSite@@UAEXJPAVCWnd@@@Z 0048286e f   nafxcw:occsite.obj
 0001:00081984       ?AddRef@XOleClientSite@COleControlSite@@UAGKXZ 00482984 f   nafxcw:occsite.obj
 0001:00081997       ?Release@XOleClientSite@COleControlSite@@UAGKXZ 00482997 f   nafxcw:occsite.obj
 0001:000819a9       ?QueryInterface@XOleClientSite@COleControlSite@@UAGJABU_GUID@@PAPAX@Z 004829a9 f   nafxcw:occsite.obj
 0001:000819c3       ?GetContainer@XOleClientSite@COleControlSite@@UAGJPAPAUIOleContainer@@@Z 004829c3 f   nafxcw:occsite.obj
 0001:000819de       ?ShowObject@XOleClientSite@COleControlSite@@UAGJXZ 004829de f   nafxcw:occsite.obj
 0001:000819f2       ?AddRef@XOleIPSite@COleControlSite@@UAGKXZ 004829f2 f   nafxcw:occsite.obj
 0001:00081a05       ?Release@XOleIPSite@COleControlSite@@UAGKXZ 00482a05 f   nafxcw:occsite.obj
 0001:00081a17       ?QueryInterface@XOleIPSite@COleControlSite@@UAGJABU_GUID@@PAPAX@Z 00482a17 f   nafxcw:occsite.obj
 0001:00081a31       ?GetWindow@XOleIPSite@COleControlSite@@UAGJPAPAUHWND__@@@Z 00482a31 f   nafxcw:occsite.obj
 0001:00081a5c       ?OnUIActivate@XOleIPSite@COleControlSite@@UAGJXZ 00482a5c f   nafxcw:occsite.obj
 0001:00081a73       ?GetWindowContext@XOleIPSite@COleControlSite@@UAGJPAPAUIOleInPlaceFrame@@PAPAUIOleInPlaceUIWindow@@PAUtagRECT@@2PAUtagOIFI@@@Z 00482a73 f   nafxcw:occsite.obj
 0001:00081aeb       ?Scroll@XOleIPSite@COleControlSite@@UAGJUtagSIZE@@@Z 00482aeb f   nafxcw:occsite.obj
 0001:00081af1       ?OnUIDeactivate@XOleIPSite@COleControlSite@@UAGJH@Z 00482af1 f   nafxcw:occsite.obj
 0001:00081b08       ?OnInPlaceDeactivate@XOleIPSite@COleControlSite@@UAGJXZ 00482b08 f   nafxcw:occsite.obj
 0001:00081b1c       ?DeactivateAndUndo@XOleIPSite@COleControlSite@@UAGJXZ 00482b1c f   nafxcw:occsite.obj
 0001:00081b2e       ?OnPosRectChange@XOleIPSite@COleControlSite@@UAGJPBUtagRECT@@@Z 00482b2e f   nafxcw:occsite.obj
 0001:00081b81       ?AddRef@XOleControlSite@COleControlSite@@UAGKXZ 00482b81 f   nafxcw:occsite.obj
 0001:00081b94       ?Release@XOleControlSite@COleControlSite@@UAGKXZ 00482b94 f   nafxcw:occsite.obj
 0001:00081ba6       ?QueryInterface@XOleControlSite@COleControlSite@@UAGJABU_GUID@@PAPAX@Z 00482ba6 f   nafxcw:occsite.obj
 0001:00081bc0       ?OnControlInfoChanged@XOleControlSite@COleControlSite@@UAGJXZ 00482bc0 f   nafxcw:occsite.obj
 0001:00081bd4       ?TransformCoords@XOleControlSite@COleControlSite@@UAGJPAU_POINTL@@PAUtagPOINTF@@K@Z 00482bd4 f   nafxcw:occsite.obj
 0001:00081cd6       ?TranslateAcceleratorA@XOleIPFrame@COleControlContainer@@UAGJPAUtagMSG@@G@Z 00482cd6 f   nafxcw:occsite.obj
 0001:00081cd6       ?TranslateAcceleratorA@XOleControlSite@COleControlSite@@UAGJPAUtagMSG@@K@Z 00482cd6 f   nafxcw:occsite.obj
 0001:00081cd6       ?InsertMenus@XOleIPFrame@COleControlContainer@@UAGJPAUHMENU__@@PAUtagOleMenuGroupWidths@@@Z 00482cd6 f   nafxcw:occsite.obj
 0001:00081cde       ?EnableModeless@XOleIPFrame@COleControlContainer@@UAGJH@Z 00482cde f   nafxcw:occsite.obj
 0001:00081cde       ?OnShowWindow@XOleClientSite@COleControlSite@@UAGJH@Z 00482cde f   nafxcw:occsite.obj
 0001:00081cde       ?OnFocus@XOleControlSite@COleControlSite@@UAGJH@Z 00482cde f   nafxcw:occsite.obj
 0001:00081ce3       ?RequestNewObjectLayout@XOleClientSite@COleControlSite@@UAGJXZ 00482ce3 f   nafxcw:occsite.obj
 0001:00081ce3       ?ShowPropertyFrame@XOleControlSite@COleControlSite@@UAGJXZ 00482ce3 f   nafxcw:occsite.obj
 0001:00081ce3       ?SaveObject@XOleClientSite@COleControlSite@@UAGJXZ 00482ce3 f   nafxcw:occsite.obj
 0001:00081ceb       ?AddRef@XAmbientProps@COleControlSite@@UAGKXZ 00482ceb f   nafxcw:occsite.obj
 0001:00081cfe       ?Release@XAmbientProps@COleControlSite@@UAGKXZ 00482cfe f   nafxcw:occsite.obj
 0001:00081d10       ?QueryInterface@XAmbientProps@COleControlSite@@UAGJABU_GUID@@PAPAX@Z 00482d10 f   nafxcw:occsite.obj
 0001:00081d2a       ?Invoke@XAmbientProps@COleControlSite@@UAGJJABU_GUID@@KGPAUtagDISPPARAMS@@PAUtagVARIANT@@PAUtagEXCEPINFO@@PAI@Z 00482d2a f   nafxcw:occsite.obj
 0001:00081d5b       ?QueryInterface@XPropertyNotifySink@COleControlSite@@UAGJABU_GUID@@PAPAX@Z 00482d5b f   nafxcw:occsite.obj
 0001:00081da5       ?AddRef@XRowsetNotify@COleControlSite@@UAGKXZ 00482da5 f   nafxcw:occsite.obj
 0001:00081da5       ?AddRef@XNotifyDBEvents@COleControlSite@@UAGKXZ 00482da5 f   nafxcw:occsite.obj
 0001:00081da5       ?AddRef@XPropertyNotifySink@COleControlSite@@UAGKXZ 00482da5 f   nafxcw:occsite.obj
 0001:00081da5       ?AddRef@XEventSink@COleControlSite@@UAGKXZ 00482da5 f   nafxcw:occsite.obj
 0001:00081dab       ?OnChanged@XPropertyNotifySink@COleControlSite@@UAGJJ@Z 00482dab f   nafxcw:occsite.obj
 0001:00081ec1       ?OnRequestEdit@XPropertyNotifySink@COleControlSite@@UAGJJ@Z 00482ec1 f   nafxcw:occsite.obj
 0001:00081f16       ?Release@XEventSink@COleControlSite@@UAGKXZ 00482f16 f   nafxcw:occsite.obj
 0001:00081f16       ?Release@XNotifyDBEvents@COleControlSite@@UAGKXZ 00482f16 f   nafxcw:occsite.obj
 0001:00081f16       ?Release@XRowsetNotify@COleControlSite@@UAGKXZ 00482f16 f   nafxcw:occsite.obj
 0001:00081f16       ?Release@XPropertyNotifySink@COleControlSite@@UAGKXZ 00482f16 f   nafxcw:occsite.obj
 0001:00081f16       ?CanInPlaceActivate@XOleIPSite@COleControlSite@@UAGJXZ 00482f16 f   nafxcw:occsite.obj
 0001:00081f16       ?DiscardUndoState@XOleIPSite@COleControlSite@@UAGJXZ 00482f16 f   nafxcw:occsite.obj
 0001:00081f16       ?OnInPlaceActivate@XOleIPSite@COleControlSite@@UAGJXZ 00482f16 f   nafxcw:occsite.obj
 0001:00081f1b       ?QueryInterface@XEventSink@COleControlSite@@UAGJABU_GUID@@PAPAX@Z 00482f1b f   nafxcw:occsite.obj
 0001:00081f7f       ?RequestBorderSpace@XOleIPFrame@COleControlContainer@@UAGJPBUtagRECT@@@Z 00482f7f f   nafxcw:occsite.obj
 0001:00081f7f       ?SetStatusText@XOleIPFrame@COleControlContainer@@UAGJPBG@Z 00482f7f f   nafxcw:occsite.obj
 0001:00081f7f       ?RemoveMenus@XOleIPFrame@COleControlContainer@@UAGJPAUHMENU__@@@Z 00482f7f f   nafxcw:occsite.obj
 0001:00081f7f       ?LockContainer@XOleContainer@COleControlContainer@@UAGJH@Z 00482f7f f   nafxcw:occsite.obj
 0001:00081f7f       ?GetTypeInfoCount@XEventSink@COleControlSite@@UAGJPAI@Z 00482f7f f   nafxcw:occsite.obj
 0001:00081f7f       ?ContextSensitiveHelp@XOleIPSite@COleControlSite@@UAGJH@Z 00482f7f f   nafxcw:occsite.obj
 0001:00081f7f       ?GetTypeInfoCount@XAmbientProps@COleControlSite@@UAGJPAI@Z 00482f7f f   nafxcw:occsite.obj
 0001:00081f7f       ?SetBorderSpace@XOleIPFrame@COleControlContainer@@UAGJPBUtagRECT@@@Z 00482f7f f   nafxcw:occsite.obj
 0001:00081f7f       ?GetBorder@XOleIPFrame@COleControlContainer@@UAGJPAUtagRECT@@@Z 00482f7f f   nafxcw:occsite.obj
 0001:00081f7f       ?ContextSensitiveHelp@XOleIPFrame@COleControlContainer@@UAGJH@Z 00482f7f f   nafxcw:occsite.obj
 0001:00081f7f       ?LockInPlaceActive@XOleControlSite@COleControlSite@@UAGJH@Z 00482f7f f   nafxcw:occsite.obj
 0001:00081f7f       ?GetExtendedControl@XOleControlSite@COleControlSite@@UAGJPAPAUIDispatch@@@Z 00482f7f f   nafxcw:occsite.obj
 0001:00081f87       ?GetTypeInfo@XEventSink@COleControlSite@@UAGJIKPAPAUITypeInfo@@@Z 00482f87 f   nafxcw:occsite.obj
 0001:00081f87       ?SetMenu@XOleIPFrame@COleControlContainer@@UAGJPAUHMENU__@@PAXPAUHWND__@@@Z 00482f87 f   nafxcw:occsite.obj
 0001:00081f87       ?GetMoniker@XOleClientSite@COleControlSite@@UAGJKKPAPAUIMoniker@@@Z 00482f87 f   nafxcw:occsite.obj
 0001:00081f87       ?GetTypeInfo@XAmbientProps@COleControlSite@@UAGJIKPAPAUITypeInfo@@@Z 00482f87 f   nafxcw:occsite.obj
 0001:00081f8f       ?GetIDsOfNames@XEventSink@COleControlSite@@UAGJABU_GUID@@PAPAGIKPAJ@Z 00482f8f f   nafxcw:occsite.obj
 0001:00081f8f       ?GetIDsOfNames@XAmbientProps@COleControlSite@@UAGJABU_GUID@@PAPAGIKPAJ@Z 00482f8f f   nafxcw:occsite.obj
 0001:00081f97       ?Invoke@XEventSink@COleControlSite@@UAGJJABU_GUID@@KGPAUtagDISPPARAMS@@PAUtagVARIANT@@PAUtagEXCEPINFO@@PAI@Z 00482f97 f   nafxcw:occsite.obj
 0001:00081fec       ??0CDataSourceControl@@QAE@PAVCOleControlSite@@@Z 00482fec f   nafxcw:occsite.obj
 0001:0008203a       ??1CDataSourceControl@@QAE@XZ 0048303a f   nafxcw:occsite.obj
 0001:0008221a       ?ReleaseAccessors@CAccessorBase@ATL@@QAEJPAUIUnknown@@@Z 0048321a f i nafxcw:occsite.obj
 0001:000822a1       ??1CRowset@ATL@@QAE@XZ     004832a1 f i nafxcw:occsite.obj
 0001:000822ec       ?Close@CRowset@ATL@@QAEXXZ 004832ec f i nafxcw:occsite.obj
 0001:0008231b       ?ReleaseRows@CRowset@ATL@@QAEJXZ 0048331b f i nafxcw:occsite.obj
 0001:0008233b       ?Close@CDynamicAccessor@ATL@@QAEXXZ 0048333b f i nafxcw:occsite.obj
 0001:00082375       ?Initialize@CDataSourceControl@@QAEJXZ 00483375 f   nafxcw:occsite.obj
 0001:00082517       ?GetCursor@CDataSourceControl@@UAEPAUIUnknown@@XZ 00483517 f   nafxcw:occsite.obj
 0001:00082580       ?GetMetaData@CDataSourceControl@@QAEJXZ 00483580 f   nafxcw:occsite.obj
 0001:000828a0       ??0CRowset@ATL@@QAE@PAUIRowset@@@Z 004838a0 f i nafxcw:occsite.obj
 0001:000828f1       ?MoveFirst@CRowset@ATL@@QAEJXZ 004838f1 f i nafxcw:occsite.obj
 0001:00082914       ?MoveNext@CRowset@ATL@@QAEJJ_N@Z 00483914 f i nafxcw:occsite.obj
 0001:0008296d       ?GetData@CRowset@ATL@@QAEJXZ 0048396d f i nafxcw:occsite.obj
 0001:000829a1       ?GetData@CRowset@ATL@@QAEJH@Z 004839a1 f i nafxcw:occsite.obj
 0001:000829c4       ?SetupOptionalRowsetInterfaces@CRowset@ATL@@QAEXXZ 004839c4 f i nafxcw:occsite.obj
 0001:000829d9       ?BindColumns@CDynamicAccessor@ATL@@QAEJPAUIUnknown@@@Z 004839d9 f i nafxcw:occsite.obj
 0001:00082c8a       ?AllocateAccessorMemory@CAccessorBase@ATL@@QAEJH@Z 00483c8a f i nafxcw:occsite.obj
 0001:00082ce6       ?BindEntries@CAccessorBase@ATL@@SAJPAUtagDBBINDING@@HPAKKPAUIAccessor@@@Z 00483ce6 f i nafxcw:occsite.obj
 0001:00082d30       ?Bind@CAccessorBase@ATL@@SAXPAUtagDBBINDING@@KGKEEKKKKPAUtagDBOBJECT@@@Z 00483d30 f i nafxcw:occsite.obj
 0001:00082daf       ?CopyColumnID@CDataSourceControl@@QAEHPAUtagDBCOLUMNID@@PBU2@@Z 00483daf f   nafxcw:occsite.obj
 0001:00082e1b       ?BindProp@CDataSourceControl@@UAEXPAVCOleControlSite@@H@Z 00483e1b f   nafxcw:occsite.obj
 0001:00082f57       ?TranslateColumnNo@CDynamicAccessor@ATL@@QBE_NAAK@Z 00483f57 f i nafxcw:occsite.obj
 0001:00082faa       ?BindProp@CDataSourceControl@@UAEXPAVCDataBoundProperty@@H@Z 00483faa f   nafxcw:occsite.obj
 0001:00082ff2       ?BindColumns@CDataSourceControl@@UAEXXZ 00483ff2 f   nafxcw:occsite.obj
 0001:0008319c       ?GetBoundClientRow@CDataSourceControl@@QAEJXZ 0048419c f   nafxcw:occsite.obj
 0001:000831f9       ?ToVariant@CDataSourceControl@@QAE?AVCOleVariant@@H@Z 004841f9 f   nafxcw:occsite.obj
 0001:00083975       ?GetStatus@CDynamicAccessor@ATL@@QBE_NKPAK@Z 00484975 f i nafxcw:occsite.obj
 0001:000839b9       ?_GetDataPtr@CDynamicAccessor@ATL@@QBEPAXK@Z 004849b9 f i nafxcw:occsite.obj
 0001:000839d0       ?UpdateControls@CDataSourceControl@@UAEJXZ 004849d0 f   nafxcw:occsite.obj
 0001:00083b65       ?UpdateCursor@CDataSourceControl@@UAEJXZ 00484b65 f   nafxcw:occsite.obj
 0001:000844a8       ?SetData@CRowset@ATL@@QBEJXZ 004854a8 f i nafxcw:occsite.obj
 0001:000844d0       ?SetData@CRowset@ATL@@QBEJH@Z 004854d0 f i nafxcw:occsite.obj
 0001:000844ff       ??1CManualAccessor@ATL@@QAE@XZ 004854ff f i nafxcw:occsite.obj
 0001:00084516       ?CreateAccessor@CManualAccessor@ATL@@QAEJHPAXK@Z 00485516 f i nafxcw:occsite.obj
 0001:0008458d       ?AddBindEntry@CManualAccessor@ATL@@QAEXKGKPAX00@Z 0048558d f i nafxcw:occsite.obj
 0001:000845e1       ?BindColumns@CManualAccessor@ATL@@QAEJPAUIUnknown@@@Z 004855e1 f i nafxcw:occsite.obj
 0001:00084679       ??0CDataBoundProperty@@QAE@PAV0@JG@Z 00485679 f   nafxcw:occsite.obj
 0001:0008469f       ?SetClientSite@CDataBoundProperty@@QAEXPAVCOleControlSite@@@Z 0048569f f   nafxcw:occsite.obj
 0001:000846a8       ?SetDSCSite@CDataBoundProperty@@QAEXPAVCOleControlSite@@@Z 004856a8 f   nafxcw:occsite.obj
 0001:000846bc       ?GetNext@CDataBoundProperty@@QAEPAV1@XZ 004856bc f   nafxcw:occsite.obj
 0001:000846c0       ?Notify@CDataBoundProperty@@QAEXXZ 004856c0 f   nafxcw:occsite.obj
 0001:00084743       ?GetCursor@CDataBoundProperty@@QAEPAUIUnknown@@XZ 00485743 f   nafxcw:occsite.obj
 0001:00084779       ?GetCursor@COleControlSite@@IAEJJPAPAUIUnknown@@PAPAX@Z 00485779 f   nafxcw:occsite.obj
 0001:000847b0       ?AddRef@XBoundObjectSite@COleControlSite@@UAGKXZ 004857b0 f   nafxcw:occsite.obj
 0001:000847c2       ?Release@XBoundObjectSite@COleControlSite@@UAGKXZ 004857c2 f   nafxcw:occsite.obj
 0001:000847d4       ?QueryInterface@XBoundObjectSite@COleControlSite@@UAGJABU_GUID@@PAPAX@Z 004857d4 f   nafxcw:occsite.obj
 0001:000847ee       ?GetCursor@XBoundObjectSite@COleControlSite@@UAGJJPAPAUICursor@@PAPAX@Z 004857ee f   nafxcw:occsite.obj
 0001:0008480c       ?QueryInterface@XNotifyDBEvents@COleControlSite@@UAGJABU_GUID@@PAPAX@Z 0048580c f   nafxcw:occsite.obj
 0001:00084856       ?OKToDo@XNotifyDBEvents@COleControlSite@@UAGJKKQAUtagDBNOTIFYREASON@@@Z 00485856 f   nafxcw:occsite.obj
 0001:000848b2       ?Cancelled@XNotifyDBEvents@COleControlSite@@UAGJKKQAUtagDBNOTIFYREASON@@@Z 004858b2 f   nafxcw:occsite.obj
 0001:000848d2       ?SyncBefore@XNotifyDBEvents@COleControlSite@@UAGJKKQAUtagDBNOTIFYREASON@@@Z 004858d2 f   nafxcw:occsite.obj
 0001:0008491c       ?AboutToDo@XNotifyDBEvents@COleControlSite@@UAGJKKQAUtagDBNOTIFYREASON@@@Z 0048591c f   nafxcw:occsite.obj
 0001:0008493c       ?FailedToDo@XNotifyDBEvents@COleControlSite@@UAGJKKQAUtagDBNOTIFYREASON@@@Z 0048593c f   nafxcw:occsite.obj
 0001:0008495c       ?SyncAfter@XNotifyDBEvents@COleControlSite@@UAGJKKQAUtagDBNOTIFYREASON@@@Z 0048595c f   nafxcw:occsite.obj
 0001:000849c5       ?DidEvent@XNotifyDBEvents@COleControlSite@@UAGJKKQAUtagDBNOTIFYREASON@@@Z 004859c5 f   nafxcw:occsite.obj
 0001:00084a13       ?FireEvent@XNotifyDBEvents@COleControlSite@@QAEJKKQAUtagDBNOTIFYREASON@@W4DSCSTATE@@@Z 00485a13 f   nafxcw:occsite.obj
 0001:00084ad7       ?QueryInterface@XRowsetNotify@COleControlSite@@UAGJABU_GUID@@PAPAX@Z 00485ad7 f   nafxcw:occsite.obj
 0001:00084b21       ?OnFieldChange@XRowsetNotify@COleControlSite@@UAGJPAUIRowset@@KKQAKKKH@Z 00485b21 f   nafxcw:occsite.obj
 0001:00084bb2       ?OnRowChange@XRowsetNotify@COleControlSite@@UAGJPAUIRowset@@KQBKKKH@Z 00485bb2 f   nafxcw:occsite.obj
 0001:00084cc7       ?OnRowsetChange@XRowsetNotify@COleControlSite@@UAGJPAUIRowset@@KKH@Z 00485cc7 f   nafxcw:occsite.obj
 0001:00084d41       ??1?$CComPtr@UIRowset@@@ATL@@QAE@XZ 00485d41 f i nafxcw:occsite.obj
 0001:00084d41       ??1?$CComPtr@UIRowsetChange@@@ATL@@QAE@XZ 00485d41 f i nafxcw:occsite.obj
 0001:00084d41       ??1?$CComPtr@UIColumnsInfo@@@ATL@@QAE@XZ 00485d41 f i nafxcw:occsite.obj
 0001:00084d41       ??1?$CComPtr@UIAccessor@@@ATL@@QAE@XZ 00485d41 f i nafxcw:occsite.obj
 0001:00084d4e       ?AtlComPtrAssign@ATL@@YGPAUIUnknown@@PAPAU2@PAU2@@Z 00485d4e f i nafxcw:occsite.obj
 0001:00084d77       ??1COleDispatchDriver@@QAE@XZ 00485d77 f i nafxcw:occsite.obj
 0001:00084d7c       ??0AFX_EVENT@@QAE@H@Z      00485d7c f i nafxcw:occsite.obj
 0001:00084d9f       ?_AfxGetDlgCode@@YGKPAVCWnd@@PAUtagMSG@@@Z 00485d9f f   nafxcw:occdlg.obj
 0001:00084dcd       ?_AfxDlgSetFocus@@YGXPAVCWnd@@@Z 00485dcd f   nafxcw:occdlg.obj
 0001:00084dfb       ?_AfxGetChildControl@@YGPAVCWnd@@PAV1@0@Z 00485dfb f   nafxcw:occdlg.obj
 0001:00084e54       ?_AfxNextControl@@YGPAVCWnd@@PAV1@0I@Z 00485e54 f   nafxcw:occdlg.obj
 0001:00084f30       ?IsMatchingMnemonic@COccManager@@SAHPAVCWnd@@PAUtagMSG@@@Z 00485f30 f   nafxcw:occdlg.obj
 0001:00084f4f       ?_AfxFindNextMnem@@YGPAVCWnd@@PAV1@0PAUtagMSG@@@Z 00485f4f f   nafxcw:occdlg.obj
 0001:00084fd4       ?IsLabelControl@COccManager@@SAHPAVCWnd@@@Z 00485fd4 f   nafxcw:occdlg.obj
 0001:00084ffa       ?_AfxGetNextMnem@@YGPAVCWnd@@PAV1@0PAUtagMSG@@@Z 00485ffa f   nafxcw:occdlg.obj
 0001:0008506f       ?UIActivateControl@COccManager@@KAXPAVCWnd@@@Z 0048606f f   nafxcw:occdlg.obj
 0001:000850cc       ?UIDeactivateIfNecessary@COccManager@@KAXPAVCWnd@@0@Z 004860cc f   nafxcw:occdlg.obj
 0001:0008513f       ?_AfxFindDlgItem@@YGPAVCWnd@@PAV1@K@Z 0048613f f   nafxcw:occdlg.obj
 0001:00085196       ?SetDefaultButton@COccManager@@SAXPAVCWnd@@H@Z 00486196 f   nafxcw:occdlg.obj
 0001:000851e3       ?GetDefBtnCode@COccManager@@SAKPAVCWnd@@@Z 004861e3 f   nafxcw:occdlg.obj
 0001:00085204       ?_AfxRemoveDefaultButton@@YGXPAVCWnd@@0@Z 00486204 f   nafxcw:occdlg.obj
 0001:00085266       ?_AfxOriginalDefButton@@YGHPAVCWnd@@@Z 00486266 f   nafxcw:occdlg.obj
 0001:00085293       ?_AfxCheckDefPushButton@@YGXPAVCWnd@@00@Z 00486293 f   nafxcw:occdlg.obj
 0001:00085380       ?IsDialogMessageA@COccManager@@UAEHPAVCWnd@@PAUtagMSG@@@Z 00486380 f   nafxcw:occdlg.obj
 0001:0008576b       ??_ECArchiveException@@UAEPAXI@Z 0048676b f i nafxcw:arcex.obj
 0001:0008576b       ??_GCArchiveException@@UAEPAXI@Z 0048676b f i nafxcw:arcex.obj
 0001:00085787       ??1CArchiveException@@UAE@XZ 00486787 f i nafxcw:arcex.obj
 0001:000857b3       ??0CSyncObject@@QAE@PBD@Z  004867b3 f   nafxcw:mtcore.obj
 0001:000857c2       ??_ECSyncObject@@UAEPAXI@Z 004867c2 f i nafxcw:mtcore.obj
 0001:000857c2       ??_GCSyncObject@@UAEPAXI@Z 004867c2 f i nafxcw:mtcore.obj
 0001:000857de       ??1CSyncObject@@UAE@XZ     004867de f   nafxcw:mtcore.obj
 0001:000857fb       ?Lock@CSyncObject@@UAEHK@Z 004867fb f   nafxcw:mtcore.obj
 0001:00085810       ?GetTypeInfoOfGuid@CCmdTarget@@QAEJKABU_GUID@@PAPAUITypeInfo@@@Z 00486810 f   nafxcw:oletyplb.obj
 0001:00085942       ?Lookup@CTypeLibCache@@QAEHKPAPAUITypeLib@@@Z 00486942 f   nafxcw:oletyplb.obj
 0001:00085973       ?Cache@CTypeLibCache@@QAEXKPAUITypeLib@@@Z 00486973 f   nafxcw:oletyplb.obj
 0001:000859b6       ?LookupTypeInfo@CTypeLibCache@@QAEHKABU_GUID@@PAPAUITypeInfo@@@Z 004869b6 f   nafxcw:oletyplb.obj
 0001:00085a07       ?CacheTypeInfo@CTypeLibCache@@QAEXKABU_GUID@@PAUITypeInfo@@@Z 00486a07 f   nafxcw:oletyplb.obj
 0001:00085a3d       ?AfxOleUnlockAllControls@@YGXXZ 00486a3d f   nafxcw:occlock.obj
 0001:00085a79       ??1type_info@@UAE@XZ       00486a79 f   LIBCMT:typinfo.obj
 0001:00085aa2       ??_Etype_info@@UAEPAXI@Z   00486aa2 f i LIBCMT:typinfo.obj
 0001:00085aa2       ??_Gtype_info@@UAEPAXI@Z   00486aa2 f i LIBCMT:typinfo.obj
 0001:00085abe       _free                      00486abe f   LIBCMT:free.obj
 0001:00085ba7       _malloc                    00486ba7 f   LIBCMT:malloc.obj
 0001:00085bb9       __nh_malloc                00486bb9 f   LIBCMT:malloc.obj
 0001:00085be5       __heap_alloc               00486be5 f   LIBCMT:malloc.obj
 0001:00085ce1       ?_JumpToContinuation@@YGXPAXPAUEHRegistrationNode@@@Z 00486ce1 f   LIBCMT:trnsctrl.obj
 0001:00085d15       ?_CallMemberFunction1@@YGXPAX00@Z 00486d15 f   LIBCMT:trnsctrl.obj
 0001:00085d15       ?_CallMemberFunction0@@YGXPAX0@Z 00486d15 f   LIBCMT:trnsctrl.obj
 0001:00085d1c       ?_CallMemberFunction2@@YGXPAX00H@Z 00486d1c f   LIBCMT:trnsctrl.obj
 0001:00085d23       ?_UnwindNestedFrames@@YGXPAUEHRegistrationNode@@PAUEHExceptionRecord@@@Z 00486d23 f   LIBCMT:trnsctrl.obj
 0001:00085d72       ___CxxFrameHandler         00486d72 f   LIBCMT:trnsctrl.obj
 0001:00085da8       ?_CallCatchBlock2@@YAPAXPAUEHRegistrationNode@@PBU_s_FuncInfo@@PAXHK@Z 00486da8 f   LIBCMT:trnsctrl.obj
 0001:00085e21       ?_CallSETranslator@@YAHPAUEHExceptionRecord@@PAUEHRegistrationNode@@PAX2PBU_s_FuncInfo@@H1@Z 00486e21 f   LIBCMT:trnsctrl.obj
 0001:00085f4c       ?_GetRangeOfTrysToCheck@@YAPBU_s_TryBlockMapEntry@@PBU_s_FuncInfo@@HHPAI1@Z 00486f4c f   LIBCMT:trnsctrl.obj
 0001:00085fc8       __global_unwind2           00486fc8 f   LIBCMT:exsup.obj
 0001:0008600a       __local_unwind2            0048700a f   LIBCMT:exsup.obj
 0001:00086062       __NLG_Return2              00487062 f   LIBCMT:exsup.obj
 0001:00086072       __abnormal_termination     00487072 f   LIBCMT:exsup.obj
 0001:00086095       __NLG_Notify1              00487095 f   LIBCMT:exsup.obj
 0001:0008609e       __NLG_Notify               0048709e f   LIBCMT:exsup.obj
 0001:000860b1       __NLG_Dispatch             004870b1 f   LIBCMT:exsup.obj
 0001:000860b8       __EH_prolog                004870b8 f   LIBCMT:ehprolog.obj
 0001:000860e0       _memmove                   004870e0 f   LIBCMT:memmove.obj
 0001:00086415       _ceil                      00487415 f   LIBCMT:ceil.obj
 0001:000864e4       __fpmath                   004874e4 f   LIBCMT:fpinit.obj
 0001:000864fb       __cfltcvt_init             004874fb f   LIBCMT:fpinit.obj
 0001:00086534       __ftol                     00487534 f   LIBCMT:ftol.obj
 0001:00086560       _strstr                    00487560 f   LIBCMT:strstr.obj
 0001:000865e0       _sprintf                   004875e0 f   LIBCMT:sprintf.obj
 0001:00086640       _strrchr                   00487640 f   LIBCMT:strrchr.obj
 0001:00086667       __mbscmp                   00487667 f   LIBCMT:mbscmp.obj
 0001:00086716       __onexit                   00487716 f   LIBCMT:onexit.obj
 0001:00086794       _atexit                    00487794 f   LIBCMT:onexit.obj
 0001:000867a6       ___onexitinit              004877a6 f   LIBCMT:onexit.obj
 0001:000867d5       _atol                      004877d5 f   LIBCMT:atox.obj
 0001:00086860       _atoi                      00487860 f   LIBCMT:atox.obj
 0001:00086870       __alldiv                   00487870 f   LIBCMT:lldiv.obj
 0001:00086920       __allrem                   00487920 f   LIBCMT:llrem.obj
 0001:000869e0       __allmul                   004879e0 f   LIBCMT:llmul.obj
 0001:00086a14       _vsprintf                  00487a14 f   LIBCMT:vsprintf.obj
 0001:00086a65       __splitpath                00487a65 f   LIBCMT:splitpat.obj
 0001:00086bb4       __except_handler3          00487bb4 f   LIBCMT:exsup3.obj
 0001:00086c71       __seh_longjmp_unwind@4     00487c71 f   LIBCMT:exsup3.obj
 0001:00086c8c       __mbsnbicmp                00487c8c f   LIBCMT:mbsnbicm.obj
 0001:00086e18       _wcslen                    00487e18 f   LIBCMT:wcslen.obj
 0001:00086e35       _wcscpy                    00487e35 f   LIBCMT:wcscat.obj
 0001:00086e60       __alloca_probe             00487e60 f   LIBCMT:chkstk.obj
 0001:00086e60       __chkstk                   00487e60 f   LIBCMT:chkstk.obj
 0001:00086e8f       __beginthreadex            00487e8f f   LIBCMT:threadex.obj
 0001:00086fc0       __endthreadex              00487fc0 f   LIBCMT:threadex.obj
 0001:00086ff2       __CxxThrowException@8      00487ff2 f   LIBCMT:throw.obj
 0001:0008702c       _fclose                    0048802c f   LIBCMT:fclose.obj
 0001:0008705d       __fclose_lk                0048805d f   LIBCMT:fclose.obj
 0001:000870a9       _fread                     004880a9 f   LIBCMT:fread.obj
 0001:000870d8       __fread_lk                 004880d8 f   LIBCMT:fread.obj
 0001:000871c0       _ftell                     004881c0 f   LIBCMT:ftell.obj
 0001:000871e2       __ftell_lk                 004881e2 f   LIBCMT:ftell.obj
 0001:00087343       _fseek                     00488343 f   LIBCMT:fseek.obj
 0001:0008736f       __fseek_lk                 0048836f f   LIBCMT:fseek.obj
 0001:000873fc       __fsopen                   004883fc f   LIBCMT:fopen.obj
 0001:0008742d       _fopen                     0048842d f   LIBCMT:fopen.obj
 0001:00087440       _strtok                    00488440 f   LIBCMT:strtok.obj
 0001:000874e4       ??_M@YGXPAXIHP6EX0@Z@Z     004884e4 f   LIBCMT:ehvecdtr.obj
 0001:00087564       ?__ArrayUnwind@@YGXPAXIHP6EX0@Z@Z 00488564 f   LIBCMT:ehvecdtr.obj
 0001:000875c2       ??_L@YGXPAXIHP6EX0@Z1@Z    004885c2 f   LIBCMT:ehvecctr.obj
 0001:00087644       __mbsrchr                  00488644 f   LIBCMT:mbsrchr.obj
 0001:000876b6       _sscanf                    004886b6 f   LIBCMT:sscanf.obj
 0001:00087700       _strchr                    00488700 f   LIBCMT:strchr.obj
 0001:00087706       ___from_strstr_to_strchr   00488706 f   LIBCMT:strchr.obj
 0001:000877bc       _WinMainCRTStartup         004887bc f   LIBCMT:wincrt0.obj
 0001:000878c4       __amsg_exit                004888c4 f   LIBCMT:wincrt0.obj
 0001:0008790d       _srand                     0048890d f   LIBCMT:rand.obj
 0001:0008791a       _rand                      0048891a f   LIBCMT:rand.obj
 0001:0008793c       _fwrite                    0048893c f   LIBCMT:fwrite.obj
 0001:0008796b       __fwrite_lk                0048896b f   LIBCMT:fwrite.obj
 0001:00087a80       _strncmp                   00488a80 f   LIBCMT:strncmp.obj
 0001:00087ac0       __CIacos                   00488ac0 f   LIBCMT:acos.obj
 0001:00087ad4       _acos                      00488ad4 f   LIBCMT:acos.obj
 0001:00087b8b       __cinit                    00488b8b f   LIBCMT:crt0dat.obj
 0001:00087bb8       _exit                      00488bb8 f   LIBCMT:crt0dat.obj
 0001:00087bc9       __exit                     00488bc9 f   LIBCMT:crt0dat.obj
 0001:00087c7f       __lockexit                 00488c7f f   LIBCMT:crt0dat.obj
 0001:00087c88       __unlockexit               00488c88 f   LIBCMT:crt0dat.obj
 0001:00087cab       _printf                    00488cab f   LIBCMT:printf.obj
 0001:00087cf0       __CIpow                    00488cf0 f   LIBCMT:pow.obj
 0001:00087d09       _pow                       00488d09 f   LIBCMT:pow.obj
 0001:00087f10       _memset                    00488f10 f   LIBCMT:memset.obj
 0001:00087f70       _memcmp                    00488f70 f   LIBCMT:memcmp.obj
 0001:00088020       _memcpy                    00489020 f   LIBCMT:memcpy.obj
 0001:00088355       _floor                     00489355 f   LIBCMT:floor.obj
 0001:00088424       _fabs                      00489424 f   LIBCMT:fabs.obj
 0001:000884d9       _time                      004894d9 f   LIBCMT:time.obj
 0001:000885b5       _localtime                 004895b5 f   LIBCMT:localtim.obj
 0001:00088715       _strftime                  00489715 f   LIBCMT:strftime.obj
 0001:00088730       __Strftime                 00489730 f   LIBCMT:strftime.obj
 0001:00089006       __mbsinc                   0048a006 f   LIBCMT:mbsinc.obj
 0001:00089079       __ltoa                     0048a079 f   LIBCMT:xtoa.obj
 0001:000890a3       __ultoa                    0048a0a3 f   LIBCMT:xtoa.obj
 0001:000890be       __mbschr                   0048a0be f   LIBCMT:mbschr.obj
 0001:00089155       __mbspbrk                  0048a155 f   LIBCMT:mbspbrk.obj
 0001:000891ea       __mbsupr                   0048a1ea f   LIBCMT:mbsupr.obj
 0001:00089274       __mbslwr                   0048a274 f   LIBCMT:mbslwr.obj
 0001:000892fe       _strtol                    0048a2fe f   LIBCMT:strtol.obj
 0001:0008951a       _strtoul                   0048a51a f   LIBCMT:strtol.obj
 0001:00089531       __mbsstr                   0048a531 f   LIBCMT:mbsstr.obj
 0001:000895a7       __mbclen                   0048a5a7 f   LIBCMT:mbclen.obj
 0001:000895c0       _strlen                    0048a5c0 f   LIBCMT:strlen.obj
 0001:0008963b       __mbsnbcmp                 0048a63b f   LIBCMT:mbsnbcmp.obj
 0001:0008972a       __ismbcdigit               0048a72a f   LIBCMT:ismbdgt.obj
 0001:000897b9       __ismbcspace               0048a7b9 f   LIBCMT:ismbspc.obj
 0001:00089848       _mktime                    0048a848 f   LIBCMT:mktime.obj
 0001:00089a3a       _gmtime                    0048aa3a f   LIBCMT:gmtime.obj
 0001:00089b44       __setmbcp                  0048ab44 f   LIBCMT:mbctype.obj
 0001:00089f1c       ___initmbctable            0048af1c f   LIBCMT:mbctype.obj
 0001:00089f38       _abs                       0048af38 f   LIBCMT:abs.obj
 0001:00089f43       __strdup                   0048af43 f   LIBCMT:strdup.obj
 0001:00089f6e       _calloc                    0048af6e f   LIBCMT:calloc.obj
 0001:0008a0ab       __purecall                 0048b0ab f   LIBCMT:purevirt.obj
 0001:0008a0b4       __alloc_osfhnd             0048b0b4 f   LIBCMT:osfinfo.obj
 0001:0008a1d7       __set_osfhnd               0048b1d7 f   LIBCMT:osfinfo.obj
 0001:0008a253       __free_osfhnd              0048b253 f   LIBCMT:osfinfo.obj
 0001:0008a2d2       __get_osfhandle            0048b2d2 f   LIBCMT:osfinfo.obj
 0001:0008a314       __open_osfhandle           0048b314 f   LIBCMT:osfinfo.obj
 0001:0008a3bb       __lock_fhandle             0048b3bb f   LIBCMT:osfinfo.obj
 0001:0008a41a       __unlock_fhandle           0048b41a f   LIBCMT:osfinfo.obj
 0001:0008a43c       __dosmaperr                0048b43c f   LIBCMT:dosmap.obj
 0001:0008a4af       __errno                    0048b4af f   LIBCMT:dosmap.obj
 0001:0008a4b8       ___doserrno                0048b4b8 f   LIBCMT:dosmap.obj
 0001:0008a4c1       __fdopen                   0048b4c1 f   LIBCMT:fdopen.obj
 0001:0008a5b4       _clearerr                  0048b5b4 f   LIBCMT:clearerr.obj
 0001:0008a5f5       _fputs                     0048b5f5 f   LIBCMT:fputs.obj
 0001:0008a643       _fgets                     0048b643 f   LIBCMT:fgets.obj
 0001:0008a6a5       _fflush                    0048b6a5 f   LIBCMT:fflush.obj
 0001:0008a6d4       __fflush_lk                0048b6d4 f   LIBCMT:fflush.obj
 0001:0008a702       __flush                    0048b702 f   LIBCMT:fflush.obj
 0001:0008a75e       __flushall                 0048b75e f   LIBCMT:fflush.obj
 0001:0008a80b       __expand                   0048b80b f   LIBCMT:expand.obj
 0001:0008a96f       __msize                    0048b96f f   LIBCMT:msize.obj
 0001:0008aa5d       __mbsdec                   0048ba5d f   LIBCMT:mbsdec.obj
 0001:0008aaca       _wcsncpy                   0048baca f   LIBCMT:wcsncpy.obj
 0001:0008ab07       _realloc                   0048bb07 f   LIBCMT:realloc.obj
 0001:0008ae36       __mtinitlocks              0048be36 f   LIBCMT:mlock.obj
 0001:0008ae5f       __lock                     0048be5f f   LIBCMT:mlock.obj
 0001:0008aec0       __unlock                   0048bec0 f   LIBCMT:mlock.obj
 0001:0008aee0       _strcmp                    0048bee0 f   LIBCMT:strcmp.obj
 0001:0008af64       __GetLinkerVersion         0048bf64 f   LIBCMT:heapinit.obj
 0001:0008af91       ___heap_select             0048bf91 f   LIBCMT:heapinit.obj
 0001:0008b0d9       __heap_init                0048c0d9 f   LIBCMT:heapinit.obj
 0001:0008b136       ___sbh_heap_init           0048c136 f   LIBCMT:sbheap.obj
 0001:0008b17e       ___sbh_find_block          0048c17e f   LIBCMT:sbheap.obj
 0001:0008b1a9       ___sbh_free_block          0048c1a9 f   LIBCMT:sbheap.obj
 0001:0008b4d2       ___sbh_alloc_block         0048c4d2 f   LIBCMT:sbheap.obj
 0001:0008b7db       ___sbh_alloc_new_region    0048c7db f   LIBCMT:sbheap.obj
 0001:0008b88c       ___sbh_alloc_new_group     0048c88c f   LIBCMT:sbheap.obj
 0001:0008b987       ___sbh_resize_block        0048c987 f   LIBCMT:sbheap.obj
 0001:0008bc7d       ___old_sbh_new_region      0048cc7d f   LIBCMT:sbheap.obj
 0001:0008bdc1       ___old_sbh_release_region  0048cdc1 f   LIBCMT:sbheap.obj
 0001:0008be17       ___old_sbh_decommit_pages  0048ce17 f   LIBCMT:sbheap.obj
 0001:0008bed9       ___old_sbh_find_block      0048ced9 f   LIBCMT:sbheap.obj
 0001:0008bf30       ___old_sbh_free_block      0048cf30 f   LIBCMT:sbheap.obj
 0001:0008bf75       ___old_sbh_alloc_block     0048cf75 f   LIBCMT:sbheap.obj
 0001:0008c17d       ___old_sbh_alloc_block_from_page 0048d17d f   LIBCMT:sbheap.obj
 0001:0008c2a1       ___old_sbh_resize_block    0048d2a1 f   LIBCMT:sbheap.obj
 0001:0008c34a       __callnewh                 0048d34a f   LIBCMT:handler.obj
 0001:0008c365       ___InternalCxxFrameHandler 0048d365 f   LIBCMT:frame.obj
 0001:0008c6ba       ___FrameUnwindToState      0048d6ba f   LIBCMT:frame.obj
 0001:0008caf2       ?_DestructExceptionObject@@YAXPAUEHExceptionRecord@@E@Z 0048daf2 f   LIBCMT:frame.obj
 0001:0008cb80       __CallSettingFrame@12      0048db80 f   LIBCMT:lowhelpr.obj
 0001:0008cba7       __NLG_Return               0048dba7 f   LIBCMT:lowhelpr.obj
 0001:0008cbcc       __mtinit                   0048dbcc f   LIBCMT:tidtable.obj
 0001:0008cc20       __initptd                  0048dc20 f   LIBCMT:tidtable.obj
 0001:0008cc33       __getptd                   0048dc33 f   LIBCMT:tidtable.obj
 0001:0008cc9a       __freeptd                  0048dc9a f   LIBCMT:tidtable.obj
 0001:0008cd3a       ?terminate@@YAXXZ          0048dd3a f   LIBCMT:hooks.obj
 0001:0008cd9b       ?_inconsistency@@YAXXZ     0048dd9b f   LIBCMT:hooks.obj
 0001:0008cdf1       __handle_qnan1             0048ddf1 f   LIBCMT:fpexcept.obj
 0001:0008ce45       __except1                  0048de45 f   LIBCMT:fpexcept.obj
 0001:0008cedd       __raise_exc                0048dedd f   LIBCMT:fpexcept.obj
 0001:0008d190       __handle_exc               0048e190 f   LIBCMT:fpexcept.obj
 0001:0008d3a7       __umatherr                 0048e3a7 f   LIBCMT:fpexcept.obj
 0001:0008d42f       __set_errno                0048e42f f   LIBCMT:fpexcept.obj
 0001:0008d47c       __errcode                  0048e47c f   LIBCMT:fpexcept.obj
 0001:0008d4a9       __frnd                     0048e4a9 f   LIBCMT:frnd.obj
 0001:0008d4bb       __set_exp                  0048e4bb f   LIBCMT:util.obj
 0001:0008d4e4       __sptype                   0048e4e4 f   LIBCMT:util.obj
 0001:0008d53e       __decomp                   0048e53e f   LIBCMT:util.obj
 0001:0008d5ff       __statfp                   0048e5ff f   LIBCMT:fpctrl.obj
 0001:0008d60d       __clrfp                    0048e60d f   LIBCMT:fpctrl.obj
 0001:0008d61c       __ctrlfp                   0048e61c f   LIBCMT:fpctrl.obj
 0001:0008d63f       __set_statfp               0048e63f f   LIBCMT:fpctrl.obj
 0001:0008d695       __setdefaultprecision      0048e695 f   LIBCMT:fp8.obj
 0001:0008d6a7       __ms_p5_test_fdiv          0048e6a7 f   LIBCMT:testfdiv.obj
 0001:0008d6e5       __ms_p5_mp_test_fdiv       0048e6e5 f   LIBCMT:testfdiv.obj
 0001:0008d70e       __forcdecpt                0048e70e f   LIBCMT:cvt.obj
 0001:0008d768       __cropzeros                0048e768 f   LIBCMT:cvt.obj
 0001:0008d7b6       __positive                 0048e7b6 f   LIBCMT:cvt.obj
 0001:0008d7ce       __fassign                  0048e7ce f   LIBCMT:cvt.obj
 0001:0008d80c       __cftoe                    0048e80c f   LIBCMT:cvt.obj
 0001:0008d92f       __cftof                    0048e92f f   LIBCMT:cvt.obj
 0001:0008da2b       __cftog                    0048ea2b f   LIBCMT:cvt.obj
 0001:0008dabe       __cfltcvt                  0048eabe f   LIBCMT:cvt.obj
 0001:0008db34       __flsbuf                   0048eb34 f   LIBCMT:_flsbuf.obj
 0001:0008dc4c       __output                   0048ec4c f   LIBCMT:output.obj
 0001:0008e4b3       __isctype                  0048f4b3 f   LIBCMT:isctype.obj
 0001:0008e528       __mbsnbcpy                 0048f528 f   LIBCMT:mbsnbcpy.obj
 0001:0008e5d0       __strnicmp                 0048f5d0 f   LIBCMT:strnicmp.obj
 0001:0008e6d1       __XcptFilter               0048f6d1 f   LIBCMT:winxfltr.obj
 0001:0008e849       ?__CxxUnhandledExceptionFilter@@YGJPAU_EXCEPTION_POINTERS@@@Z 0048f849 f   LIBCMT:unhandld.obj
 0001:0008e88f       ?__CxxSetUnhandledExceptionFilter@@YAXXZ 0048f88f f   LIBCMT:unhandld.obj
 0001:0008e8a0       ?__CxxRestoreUnhandledExceptionFilter@@YAXXZ 0048f8a0 f   LIBCMT:unhandld.obj
 0001:0008e8ad       ___initstdio               0048f8ad f   LIBCMT:_file.obj
 0001:0008e955       ___endstdio                0048f955 f   LIBCMT:_file.obj
 0001:0008e969       __lock_file                0048f969 f   LIBCMT:_file.obj
 0001:0008e998       __lock_file2               0048f998 f   LIBCMT:_file.obj
 0001:0008e9bb       __unlock_file              0048f9bb f   LIBCMT:_file.obj
 0001:0008e9ea       __unlock_file2             0048f9ea f   LIBCMT:_file.obj
 0001:0008ea0d       __close                    0048fa0d f   LIBCMT:close.obj
 0001:0008ea6a       __close_lk                 0048fa6a f   LIBCMT:close.obj
 0001:0008eaed       __freebuf                  0048faed f   LIBCMT:_freebuf.obj
 0001:0008eb18       __filbuf                   0048fb18 f   LIBCMT:_filbuf.obj
 0001:0008ebf4       __read                     0048fbf4 f   LIBCMT:read.obj
 0001:0008ec59       __read_lk                  0048fc59 f   LIBCMT:read.obj
 0001:0008ee32       __ioinit                   0048fe32 f   LIBCMT:ioinit.obj
 0001:0008efee       __lseek                    0048ffee f   LIBCMT:lseek.obj
 0001:0008f053       __lseek_lk                 00490053 f   LIBCMT:lseek.obj
 0001:0008f0c6       __openfile                 004900c6 f   LIBCMT:_open.obj
 0001:0008f236       __getstream                00490236 f   LIBCMT:stream.obj
 0001:0008f2fe       __input                    004902fe f   LIBCMT:input.obj
 0001:0008fdaf       __wincmdln                 00490daf f   LIBCMT:wincmdln.obj
 0001:0008fe07       __setenvp                  00490e07 f   LIBCMT:stdenvp.obj
 0001:0008fec0       __setargv                  00490ec0 f   LIBCMT:stdargv.obj
 0001:0009010d       ___crtGetEnvironmentStringsA 0049110d f   LIBCMT:a_env.obj
 0001:0009023f       __FF_MSGBANNER             0049123f f   LIBCMT:crt0msg.obj
 0001:00090278       __NMSG_WRITE               00491278 f   LIBCMT:crt0msg.obj
 0001:000903cb       __write                    004913cb f   LIBCMT:write.obj
 0001:00090430       __write_lk                 00491430 f   LIBCMT:write.obj
 0001:000905c0       __trandisp1                004915c0 f   LIBCMT:87disp.obj
 0001:00090627       __trandisp2                00491627 f   LIBCMT:87disp.obj
 0001:000906b3       __rttospopde               004916b3 f   LIBCMT:87disp.obj
 0001:000906b8       __rttospop                 004916b8 f   LIBCMT:87disp.obj
 0001:000906ba       __rtnospop                 004916ba f   LIBCMT:87disp.obj
 0001:000906bc       __rttosnpop                004916bc f   LIBCMT:87disp.obj
 0001:000906bd       __rtnospopde               004916bd f   LIBCMT:87disp.obj
 0001:000906c4       __rtzeropop                004916c4 f   LIBCMT:87disp.obj
 0001:000906c6       __rtzeronpop               004916c6 f   LIBCMT:87disp.obj
 0001:000906cb       __rtonepop                 004916cb f   LIBCMT:87disp.obj
 0001:000906cd       __rtonenpop                004916cd f   LIBCMT:87disp.obj
 0001:000906d2       __tosnan1                  004916d2 f   LIBCMT:87disp.obj
 0001:000906fd       __nosnan2                  004916fd f   LIBCMT:87disp.obj
 0001:000906ff       __tosnan2                  004916ff f   LIBCMT:87disp.obj
 0001:00090727       __nan2                     00491727 f   LIBCMT:87disp.obj
 0001:00090766       __rtindfpop                00491766 f   LIBCMT:87disp.obj
 0001:00090768       __rtindfnpop               00491768 f   LIBCMT:87disp.obj
 0001:00090779       __rttosnpopde              00491779 f   LIBCMT:87disp.obj
 0001:00090783       __rtchsifneg               00491783 f   LIBCMT:87disp.obj
 0001:00090790       __startTwoArgErrorHandling 00491790 f   LIBCMT:genexcep.obj
 0001:000907a7       __startOneArgErrorHandling 004917a7 f   LIBCMT:genexcep.obj
 0001:000907f0       __twoToTOS                 004917f0 f   LIBCMT:common.obj
 0001:00090805       __load_CW                  00491805 f   LIBCMT:common.obj
 0001:0009081c       __convertTOStoQNaN         0049181c f   LIBCMT:common.obj
 0001:00090835       __fload_withFB             00491835 f   LIBCMT:common.obj
 0001:00090878       __checkTOS_withFB          00491878 f   LIBCMT:common.obj
 0001:0009088e       __fast_exit                0049188e f   LIBCMT:common.obj
 0001:0009089b       __math_exit                0049189b f   LIBCMT:common.obj
 0001:000908c5       __check_overflow_exit      004918c5 f   LIBCMT:common.obj
 0001:000908d9       __check_range_exit         004918d9 f   LIBCMT:common.obj
 0001:0009097c       __stbuf                    0049197c f   LIBCMT:_sftbuf.obj
 0001:00090a09       __ftbuf                    00491a09 f   LIBCMT:_sftbuf.obj
 0001:00090a51       __fFEXP                    00491a51 f   LIBCMT:87tran.obj
 0001:00090ab8       __rtinfpopse               00491ab8 f   LIBCMT:87tran.obj
 0001:00090aba       __rtinfnpopse              00491aba f   LIBCMT:87tran.obj
 0001:00090aca       __fFLN                     00491aca f   LIBCMT:87tran.obj
 0001:00090b7f       __rtinfpop                 00491b7f f   LIBCMT:87tran.obj
 0001:00090b81       __rtinfnpop                00491b81 f   LIBCMT:87tran.obj
 0001:00090b9e       __ffexpm1                  00491b9e f   LIBCMT:87tran.obj
 0001:00090c47       __powhlp                   00491c47 f   LIBCMT:powhlp.obj
 0001:00090d77       __d_inttype                00491d77 f   LIBCMT:powhlp.obj
 0001:00090ddc       ___loctotime_t             00491ddc f   LIBCMT:dtoxtime.obj
 0001:00090e9e       ___tzset                   00491e9e f   LIBCMT:tzset.obj
 0001:00091153       __isindst                  00492153 f   LIBCMT:tzset.obj
 0001:00091460       _strcpy                    00492460 f   LIBCMT:strcat.obj
 0001:00091470       _strcat                    00492470 f   LIBCMT:strcat.obj
 0001:00091550       __strcmpi                  00492550 f   LIBCMT:stricmp.obj
 0001:00091550       __stricmp                  00492550 f   LIBCMT:stricmp.obj
 0001:00091620       __fpclass                  00492620 f   LIBCMT:ieeemisc.obj
 0001:000916c0       __aulldiv                  004926c0 f   LIBCMT:ulldiv.obj
 0001:00091730       __aullrem                  00492730 f   LIBCMT:ullrem.obj
 0001:000917b0       _strpbrk                   004927b0 f   LIBCMT:strpbrk.obj
 0001:000917ea       ___crtLCMapStringA         004927ea f   LIBCMT:a_map.obj
 0001:00091a10       __strrev                   00492a10 f   LIBCMT:strrev.obj
 0001:00091a40       _toupper                   00492a40 f   LIBCMT:toupper.obj
 0001:00091aaf       __toupper_lk               00492aaf f   LIBCMT:toupper.obj
 0001:00091b80       _strspn                    00492b80 f   LIBCMT:strspn.obj
 0001:00091bc0       _strcspn                   00492bc0 f   LIBCMT:strcspn.obj
 0001:00091bfe       ___crtGetStringTypeA       00492bfe f   LIBCMT:a_str.obj
 0001:00091d47       __commit                   00492d47 f   LIBCMT:commit.obj
 0001:00091dda       ?_ValidateRead@@YAHPBXI@Z  00492dda f   LIBCMT:validate.obj
 0001:00091df6       ?_ValidateWrite@@YAHPAXI@Z 00492df6 f   LIBCMT:validate.obj
 0001:00091e12       ?_ValidateExecute@@YAHP6GHXZ@Z 00492e12 f   LIBCMT:validate.obj
 0001:00091e2a       _abort                     00492e2a f   LIBCMT:abort.obj
 0001:00091e41       __matherr                  00492e41 f   LIBCMT:matherr.obj
 0001:00091e44       __control87                00492e44 f   LIBCMT:ieee87.obj
 0001:00091e79       __controlfp                00492e79 f   LIBCMT:ieee87.obj
 0001:00091faa       _tolower                   00492faa f   LIBCMT:tolower.obj
 0001:00092019       __tolower_lk               00493019 f   LIBCMT:tolower.obj
 0001:000920e4       __ZeroTail                 004930e4 f   LIBCMT:intrncvt.obj
 0001:0009212d       __IncMan                   0049312d f   LIBCMT:intrncvt.obj
 0001:00092183       __RoundMan                 00493183 f   LIBCMT:intrncvt.obj
 0001:0009220f       __CopyMan                  0049320f f   LIBCMT:intrncvt.obj
 0001:0009222a       __FillZeroMan              0049322a f   LIBCMT:intrncvt.obj
 0001:00092236       __IsZeroMan                00493236 f   LIBCMT:intrncvt.obj
 0001:00092251       __ShrMan                   00493251 f   LIBCMT:intrncvt.obj
 0001:000922de       __ld12cvt                  004932de f   LIBCMT:intrncvt.obj
 0001:0009244a       __ld12tod                  0049344a f   LIBCMT:intrncvt.obj
 0001:00092460       __ld12tof                  00493460 f   LIBCMT:intrncvt.obj
 0001:00092476       __atodbl                   00493476 f   LIBCMT:intrncvt.obj
 0001:000924a3       __atoflt                   004934a3 f   LIBCMT:intrncvt.obj
 0001:000924d0       __fptostr                  004934d0 f   LIBCMT:_fptostr.obj
 0001:00092547       __fltout2                  00493547 f   LIBCMT:cfout.obj
 0001:000925a3       ___dtold                   004935a3 f   LIBCMT:cfout.obj
 0001:00092659       __fptrap                   00493659 f   LIBCMT:crt0fp.obj
 0001:00092662       __getbuf                   00493662 f   LIBCMT:_getbuf.obj
 0001:000926a6       __isatty                   004936a6 f   LIBCMT:isatty.obj
 0001:000926cf       _wctomb                    004936cf f   LIBCMT:wctomb.obj
 0001:00092728       __wctomb_lk                00493728 f   LIBCMT:wctomb.obj
 0001:000927a0       _strncpy                   004937a0 f   LIBCMT:strncpy.obj
 0001:0009289e       __fcloseall                0049389e f   LIBCMT:closeall.obj
 0001:0009291f       __sopen                    0049391f f   LIBCMT:open.obj
 0001:00092bee       _mbtowc                    00493bee f   LIBCMT:mbtowc.obj
 0001:00092c4b       __mbtowc_lk                00493c4b f   LIBCMT:mbtowc.obj
 0001:00092d14       _isspace                   00493d14 f   LIBCMT:_ctype.obj
 0001:00092d40       __allshl                   00493d40 f   LIBCMT:llshl.obj
 0001:00092d5f       _ungetc                    00493d5f f   LIBCMT:ungetc.obj
 0001:00092d88       __ungetc_lk                00493d88 f   LIBCMT:ungetc.obj
 0001:00092df6       __ismbblead                00493df6 f   LIBCMT:ismbbyte.obj
 0001:00092e38       ___crtMessageBoxA          00493e38 f   LIBCMT:crtmbox.obj
 0001:00092ec1       __87except                 00493ec1 f   LIBCMT:87except.obj
 0001:00092fa0       _fdiv_main_routine         00493fa0 f   LIBCMT:adj_fdiv.obj
 0001:000930b7       __adj_fdiv_r               004940b7 f   LIBCMT:adj_fdiv.obj
 0001:00093556       __fdivp_sti_st             00494556 f   LIBCMT:adj_fdiv.obj
 0001:00093569       __fdivrp_sti_st            00494569 f   LIBCMT:adj_fdiv.obj
 0001:0009357c       __adj_fdiv_m32             0049457c f   LIBCMT:adj_fdiv.obj
 0001:000935c8       __adj_fdiv_m64             004945c8 f   LIBCMT:adj_fdiv.obj
 0001:00093614       __adj_fdiv_m16i            00494614 f   LIBCMT:adj_fdiv.obj
 0001:00093648       __adj_fdiv_m32i            00494648 f   LIBCMT:adj_fdiv.obj
 0001:0009367c       __adj_fdivr_m32            0049467c f   LIBCMT:adj_fdiv.obj
 0001:000936c8       __adj_fdivr_m64            004946c8 f   LIBCMT:adj_fdiv.obj
 0001:00093714       __adj_fdivr_m16i           00494714 f   LIBCMT:adj_fdiv.obj
 0001:00093748       __adj_fdivr_m32i           00494748 f   LIBCMT:adj_fdiv.obj
 0001:0009377c       __safe_fdiv                0049477c f   LIBCMT:adj_fdiv.obj
 0001:00093791       __safe_fdivr               00494791 f   LIBCMT:adj_fdiv.obj
 0001:000937a6       __fprem_common             004947a6 f   LIBCMT:adj_fdiv.obj
 0001:000939ac       __adj_fprem                004949ac f   LIBCMT:adj_fdiv.obj
 0001:00093a5e       __fprem1_common            00494a5e f   LIBCMT:adj_fdiv.obj
 0001:00093c64       __adj_fprem1               00494c64 f   LIBCMT:adj_fdiv.obj
 0001:00093d19       __safe_fprem               00494d19 f   LIBCMT:adj_fdiv.obj
 0001:00093d1f       __safe_fprem1              00494d1f f   LIBCMT:adj_fdiv.obj
 0001:00093d25       __adj_fpatan               00494d25 f   LIBCMT:adj_fdiv.obj
 0001:00093d28       __adj_fptan                00494d28 f   LIBCMT:adj_fdiv.obj
 0001:00093d2b       _getenv                    00494d2b f   LIBCMT:getenv.obj
 0001:00093d4c       __getenv_lk                00494d4c f   LIBCMT:getenv.obj
 0001:00093dc9       _fputwc                    00494dc9 f   LIBCMT:fputwc.obj
 0001:00093df3       __putwc_lk                 00494df3 f   LIBCMT:fputwc.obj
 0001:00093eec       _raise                     00494eec f   LIBCMT:winsig.obj
 0001:000940ab       ___addl                    004950ab f   LIBCMT:mantold.obj
 0001:000940cc       ___add_12                  004950cc f   LIBCMT:mantold.obj
 0001:0009412a       ___shl_12                  0049512a f   LIBCMT:mantold.obj
 0001:00094158       ___shr_12                  00495158 f   LIBCMT:mantold.obj
 0001:00094185       ___mtold12                 00495185 f   LIBCMT:mantold.obj
 0001:0009424c       ___strgtold12              0049524c f   LIBCMT:strgtold.obj
 0001:0009471d       _$I10_OUTPUT               0049571d f   LIBCMT:x10fout.obj
 0001:000949b0       __chsize_lk                004959b0 f   LIBCMT:chsize.obj
 0001:00094ad5       __mbsnbicoll               00495ad5 f   LIBCMT:mbsnbico.obj
 0001:00094b14       ___wtomb_environ           00495b14 f   LIBCMT:wtombenv.obj
 0001:00094b82       ___crtGetStringTypeW       00495b82 f   LIBCMT:w_str.obj
 0001:00094d47       __flswbuf                  00495d47 f   LIBCMT:_flswbuf.obj
 0001:00094e6e       ___ld12mul                 00495e6e f   LIBCMT:tenpow.obj
 0001:0009508e       ___multtenpow12            0049608e f   LIBCMT:tenpow.obj
 0001:0009510a       __setmode_lk               0049610a f   LIBCMT:setmode.obj
 0001:0009516b       ___crtCompareStringA       0049616b f   LIBCMT:a_cmp.obj
 0001:00095413       ___crtsetenv               00496413 f   LIBCMT:setenv.obj
 0001:0009565a       _RtlUnwind@16              0049665a f   kernel32:KERNEL32.dll
 0001:00095660       _ReuseDDElParam@20         00496660 f   user32:USER32.dll
 0001:00095666       _UnpackDDElParam@16        00496666 f   user32:USER32.dll
 0001:0009566c       _GetSaveFileNameA@4        0049666c f   comdlg32:comdlg32.dll
 0001:00095672       _GetOpenFileNameA@4        00496672 f   comdlg32:comdlg32.dll
 0001:00095678       _GetFileTitleA@12          00496678 f   comdlg32:comdlg32.dll
 0001:0009567e       _ClosePrinter@4            0049667e f   winspool:WINSPOOL.DRV
 0001:00095684       _DocumentPropertiesA@24    00496684 f   winspool:WINSPOOL.DRV
 0001:0009568a       _OpenPrinterA@12           0049668a f   winspool:WINSPOOL.DRV
 0001:00095690       _OleUIBusyA@4              00496690 f   oledlg:oledlg.dll
 0001:00095696       _URLDownloadToFileA@20     00496696 f   urlmon:urlmon.dll
 0001:000956a0       ?GetRuntimeClass@CXTPTabManagerItem@@UBEPAUCRuntimeClass@@XZ 004966a0 f   ToolkitPro1501vc60S:XTPTabManager.obj
 0001:000956b0       ??0CXTPTabManagerItem@@IAE@XZ 004966b0 f   ToolkitPro1501vc60S:XTPTabManager.obj
 0001:00095770       ??_ECXTPTabManagerItem@@MAEPAXI@Z 00496770 f i ToolkitPro1501vc60S:XTPTabManager.obj
 0001:00095770       ??_GCXTPTabManagerItem@@MAEPAXI@Z 00496770 f i ToolkitPro1501vc60S:XTPTabManager.obj
 0001:00095790       ?OnRemoved@CXTPTabManagerItem@@MAEXXZ 00496790 f   ToolkitPro1501vc60S:XTPTabManager.obj
 0001:000957a0       ??1CXTPTabManagerItem@@MAE@XZ 004967a0 f   ToolkitPro1501vc60S:XTPTabManager.obj
 0001:00095830       ?Reposition@CXTPTabManagerItem@@IAEXXZ 00496830 f   ToolkitPro1501vc60S:XTPTabManager.obj
 0001:00095840       ?SetCaption@CXTPTabManagerItem@@QAEXPBD@Z 00496840 f   ToolkitPro1501vc60S:XTPTabManager.obj
 0001:00095900       ?SetColor@CXTPTabManagerItem@@QAEXK@Z 00496900 f   ToolkitPro1501vc60S:XTPTabManager.obj
 0001:00095950       ?GetCaption@CXTPTabManagerItem@@QBE?AVCString@@XZ 00496950 f   ToolkitPro1501vc60S:XTPTabManager.obj
 0001:00095980       ?GetColor@CXTPTabManagerItem@@QAEKXZ 00496980 f   ToolkitPro1501vc60S:XTPTabManager.obj
 0001:00095990       ?Remove@CXTPTabManagerItem@@QAEXXZ 00496990 f   ToolkitPro1501vc60S:XTPTabManager.obj
 0001:000959b0       ?Select@CXTPTabManagerItem@@QAEXXZ 004969b0 f   ToolkitPro1501vc60S:XTPTabManager.obj
 0001:000959c0       ?GetBackgroundColor@CXTPStatusBarPane@@QBEKXZ 004969c0 f   ToolkitPro1501vc60S:XTPTabManager.obj
 0001:000959c0       ?GetHandle@CXTPTabManagerItem@@QBEPAUHWND__@@XZ 004969c0 f   ToolkitPro1501vc60S:XTPTabManager.obj
 0001:000959c0       ?GetHeight@CXTPResourceImage@@QBEHXZ 004969c0 f   ToolkitPro1501vc60S:XTPTabManager.obj
 0001:000959d0       ?SetVisible@CXTPTabManagerItem@@UAEXH@Z 004969d0 f   ToolkitPro1501vc60S:XTPTabManager.obj
 0001:000959f0       ?IsEnabled@CXTPTabManagerItem@@QBEHXZ 004969f0 f   ToolkitPro1501vc60S:XTPTabManager.obj
 0001:000959f0       ?GetBaseline@CXTPMarkupRun@@MBEHXZ 004969f0 f   ToolkitPro1501vc60S:XTPTabManager.obj
 0001:00095a00       ?SetEnabled@CXTPTabManagerItem@@QAEXH@Z 00496a00 f   ToolkitPro1501vc60S:XTPTabManager.obj
 0001:00095a20       ?DrawRotatedImage@CXTPTabManagerItem@@AAEHPAVCDC@@VCRect@@PAVCXTPImageManagerIcon@@@Z 00496a20 f   ToolkitPro1501vc60S:XTPTabManager.obj
 0001:00095cd0       ?DrawImage@CXTPTabManagerItem@@QAEXPAVCDC@@VCRect@@PAVCXTPImageManagerIcon@@@Z 00496cd0 f   ToolkitPro1501vc60S:XTPTabManager.obj
 0001:00095dc0       ?SetRect@CXTPTabManagerItem@@QAEXVCRect@@@Z 00496dc0 f   ToolkitPro1501vc60S:XTPTabManager.obj
 0001:00095e30       ??0CXTPTabManagerNavigateButtons@@QAE@XZ 00496e30 f   ToolkitPro1501vc60S:XTPTabManager.obj
 0001:00095e50       ??_ECXTPTabManagerNavigateButtons@@UAEPAXI@Z 00496e50 f i ToolkitPro1501vc60S:XTPTabManager.obj
 0001:00095e50       ??_GCXTPTabManagerNavigateButtons@@UAEPAXI@Z 00496e50 f i ToolkitPro1501vc60S:XTPTabManager.obj
 0001:00095e70       ??1CXTPTabManagerNavigateButtons@@UAE@XZ 00496e70 f   ToolkitPro1501vc60S:XTPTabManager.obj
 0001:00095ee0       ?RemoveAll@CXTPTabManagerNavigateButtons@@QAEXXZ 00496ee0 f   ToolkitPro1501vc60S:XTPTabManager.obj
 0001:00095f30       ??0CXTPTabManagerNavigateButton@@QAE@PAVCXTPTabManager@@IW4XTPTabNavigateButtonFlags@@@Z 00496f30 f   ToolkitPro1501vc60S:XTPTabManager.obj
 0001:00095f80       ??_GCXTPTabManagerNavigateButton@@MAEPAXI@Z 00496f80 f i ToolkitPro1501vc60S:XTPTabManager.obj
 0001:00095f80       ??_ECXTPTabManagerNavigateButton@@MAEPAXI@Z 00496f80 f i ToolkitPro1501vc60S:XTPTabManager.obj
 0001:00095fa0       ??1CXTPTabManagerNavigateButton@@MAE@XZ 00496fa0 f   ToolkitPro1501vc60S:XTPTabManager.obj
 0001:00095fc0       ?GetSize@CXTPTabManagerNavigateButton@@UBE?AVCSize@@XZ 00496fc0 f   ToolkitPro1501vc60S:XTPTabManager.obj
 0001:00095ff0       ?AdjustWidth@CXTPTabManagerNavigateButton@@UAEXAAH@Z 00496ff0 f   ToolkitPro1501vc60S:XTPTabManager.obj
 0001:00096060       ?SetRect@CXTPTabManagerNavigateButton@@QAEXVCRect@@@Z 00497060 f   ToolkitPro1501vc60S:XTPTabManager.obj
 0001:00096090       ?Reposition@CXTPTabManagerNavigateButton@@UAEXAAVCRect@@@Z 00497090 f   ToolkitPro1501vc60S:XTPTabManager.obj
 0001:00096190       ?Draw@CXTPTabManagerNavigateButton@@QAEXPAVCDC@@@Z 00497190 f   ToolkitPro1501vc60S:XTPTabManager.obj
 0001:000961f0       ?PerformClick@CXTPTabManagerNavigateButton@@UAEXPAUHWND__@@VCPoint@@@Z 004971f0 f   ToolkitPro1501vc60S:XTPTabManager.obj
 0001:00096360       ?OnExecute@CXTPTabManagerNavigateButton@@UAEXH@Z 00497360 f   ToolkitPro1501vc60S:XTPTabManager.obj
 0001:00096380       ??0CRowIndexer@CXTPTabManager@@QAE@PAV1@@Z 00497380 f   ToolkitPro1501vc60S:XTPTabManager.obj
 0001:000963b0       ?CreateIndexer@CRowIndexer@CXTPTabManager@@QAEPAUROW_ITEMS@2@H@Z 004973b0 f   ToolkitPro1501vc60S:XTPTabManager.obj
 0001:00096410       ?DrawEntry@CNavigateButtonClose@CXTPTabManager@@MAEXPAVCDC@@VCRect@@@Z 00497410 f   ToolkitPro1501vc60S:XTPTabManager.obj
 0001:000964e0       ?DrawEntry@CNavigateButtonArrowRight@CXTPTabManager@@MAEXPAVCDC@@VCRect@@@Z 004974e0 f   ToolkitPro1501vc60S:XTPTabManager.obj
 0001:000965a0       ?AdjustWidth@CNavigateButtonArrow@CXTPTabManager@@MAEXAAH@Z 004975a0 f   ToolkitPro1501vc60S:XTPTabManager.obj
 0001:00096600       ?Reposition@CNavigateButtonArrow@CXTPTabManager@@MAEXAAVCRect@@@Z 00497600 f   ToolkitPro1501vc60S:XTPTabManager.obj
 0001:00096720       ?Reposition@CNavigateButtonArrowRight@CXTPTabManager@@MAEXAAVCRect@@@Z 00497720 f   ToolkitPro1501vc60S:XTPTabManager.obj
 0001:00096820       ?OnExecute@CNavigateButtonArrowRight@CXTPTabManager@@MAEXH@Z 00497820 f   ToolkitPro1501vc60S:XTPTabManager.obj
 0001:00096840       ?OnScrollHeader@CXTPTabManager@@UAEXH@Z 00497840 f   ToolkitPro1501vc60S:XTPTabManager.obj
 0001:00096870       ?DrawEntry@CNavigateButtonArrowLeft@CXTPTabManager@@MAEXPAVCDC@@VCRect@@@Z 00497870 f   ToolkitPro1501vc60S:XTPTabManager.obj
 0001:00096930       ?Reposition@CNavigateButtonArrowLeft@CXTPTabManager@@MAEXAAVCRect@@@Z 00497930 f   ToolkitPro1501vc60S:XTPTabManager.obj
 0001:000969a0       ?OnExecute@CNavigateButtonArrowLeft@CXTPTabManager@@MAEXH@Z 004979a0 f   ToolkitPro1501vc60S:XTPTabManager.obj
 0001:000969c0       ??0CXTPTabManager@@QAE@XZ  004979c0 f   ToolkitPro1501vc60S:XTPTabManager.obj
 0001:00096bb0       ?OnPropertyChanged@CXTPTabManagerAtom@@UAEXXZ 00497bb0 f i ToolkitPro1501vc60S:XTPTabManager.obj
 0001:00096bc0       ??1CXTPTabManagerAtom@@MAE@XZ 00497bc0 f i ToolkitPro1501vc60S:XTPTabManager.obj
 0001:00096bd0       ??_ECXTPTabManagerAtom@@MAEPAXI@Z 00497bd0 f i ToolkitPro1501vc60S:XTPTabManager.obj
 0001:00096bd0       ??_GCXTPTabManagerAtom@@MAEPAXI@Z 00497bd0 f i ToolkitPro1501vc60S:XTPTabManager.obj
 0001:00096bf0       ?OnNavigateButtonClick@CXTPTabManager@@MAEXPAVCXTPTabManagerNavigateButton@@@Z 00497bf0 f i ToolkitPro1501vc60S:XTPTabManager.obj
 0001:00096c10       ?IsAllowReorder@CXTPTabManager@@UBEHXZ 00497c10 f i ToolkitPro1501vc60S:XTPTabManager.obj
 0001:00096c20       ?SetAllowReorder@CXTPTabManager@@UAEXH@Z 00497c20 f i ToolkitPro1501vc60S:XTPTabManager.obj
 0001:00096c30       ?DrawParentBackground@CXTPTabManager@@UAEHPAVCDC@@VCRect@@@Z 00497c30 f i ToolkitPro1501vc60S:XTPTabManager.obj
 0001:00096c40       ?GetMarkupContext@CXTPTabManager@@UBEPAVCXTPMarkupContext@@XZ 00497c40 f i ToolkitPro1501vc60S:XTPTabManager.obj
 0001:00096c50       ??_ECNavigateButtonArrowLeft@CXTPTabManager@@UAEPAXI@Z 00497c50 f i ToolkitPro1501vc60S:XTPTabManager.obj
 0001:00096c50       ??_GCNavigateButtonClose@CXTPTabManager@@UAEPAXI@Z 00497c50 f i ToolkitPro1501vc60S:XTPTabManager.obj
 0001:00096c50       ??_ECNavigateButtonArrowRight@CXTPTabManager@@UAEPAXI@Z 00497c50 f i ToolkitPro1501vc60S:XTPTabManager.obj
 0001:00096c50       ??_GCNavigateButtonTabClose@CXTPTabManager@@UAEPAXI@Z 00497c50 f i ToolkitPro1501vc60S:XTPTabManager.obj
 0001:00096c50       ??_GCNavigateButtonArrowRight@CXTPTabManager@@UAEPAXI@Z 00497c50 f i ToolkitPro1501vc60S:XTPTabManager.obj
 0001:00096c50       ??_ECNavigateButtonTabClose@CXTPTabManager@@UAEPAXI@Z 00497c50 f i ToolkitPro1501vc60S:XTPTabManager.obj
 0001:00096c50       ??_GCNavigateButtonArrowLeft@CXTPTabManager@@UAEPAXI@Z 00497c50 f i ToolkitPro1501vc60S:XTPTabManager.obj
 0001:00096c50       ??_ECNavigateButtonClose@CXTPTabManager@@UAEPAXI@Z 00497c50 f i ToolkitPro1501vc60S:XTPTabManager.obj
 0001:00096c70       ??_GCXTPTabManager@@UAEPAXI@Z 00497c70 f i ToolkitPro1501vc60S:XTPTabManager.obj
 0001:00096c70       ??_ECXTPTabManager@@UAEPAXI@Z 00497c70 f i ToolkitPro1501vc60S:XTPTabManager.obj
 0001:00096c90       ??1CXTPTabManager@@UAE@XZ  00497c90 f   ToolkitPro1501vc60S:XTPTabManager.obj
 0001:00096d70       ?SetActive@CXTPTabManager@@QAEXH@Z 00497d70 f   ToolkitPro1501vc60S:XTPTabManager.obj
 0001:00096d90       ?IsNavigateButtonVisible@CXTPTabManager@@MAEHPAVCXTPTabManagerNavigateButton@@@Z 00497d90 f   ToolkitPro1501vc60S:XTPTabManager.obj
 0001:00096dd0       ?IsNavigateButtonAutomaticVisible@CXTPTabManager@@MAEHPAVCXTPTabManagerNavigateButton@@@Z 00497dd0 f   ToolkitPro1501vc60S:XTPTabManager.obj
 0001:00096e10       ?FindNavigateButton@CXTPTabManager@@QBEPAVCXTPTabManagerNavigateButton@@I@Z 00497e10 f   ToolkitPro1501vc60S:XTPTabManager.obj
 0001:00096e50       ?SetHeaderOffset@CXTPTabManager@@QAEXH@Z 00497e50 f   ToolkitPro1501vc60S:XTPTabManager.obj
 0001:00096e70       ?GetItemsLength@CXTPTabManager@@UBEHXZ 00497e70 f   ToolkitPro1501vc60S:XTPTabManager.obj
 0001:00096ed0       ?DeleteAllItems@CXTPTabManager@@QAEXXZ 00497ed0 f   ToolkitPro1501vc60S:XTPTabManager.obj
 0001:00096f30       ?DeleteItem@CXTPTabManager@@QAEHH@Z 00497f30 f   ToolkitPro1501vc60S:XTPTabManager.obj
 0001:00096fc0       ?AddItem@CXTPTabManager@@IAEPAVCXTPTabManagerItem@@HPAV2@@Z 00497fc0 f   ToolkitPro1501vc60S:XTPTabManager.obj
 0001:00097190       ??1CNavigateButtonTabClose@CXTPTabManager@@UAE@XZ 00498190 f i ToolkitPro1501vc60S:XTPTabManager.obj
 0001:00097190       ??1CNavigateButtonArrowLeft@CXTPTabManager@@UAE@XZ 00498190 f i ToolkitPro1501vc60S:XTPTabManager.obj
 0001:00097190       ??1CNavigateButtonClose@CXTPTabManager@@UAE@XZ 00498190 f i ToolkitPro1501vc60S:XTPTabManager.obj
 0001:00097190       ??1CNavigateButtonArrowRight@CXTPTabManager@@UAE@XZ 00498190 f i ToolkitPro1501vc60S:XTPTabManager.obj
 0001:000971a0       ?OnItemsChanged@CXTPTabManager@@UAEXXZ 004981a0 f   ToolkitPro1501vc60S:XTPTabManager.obj
 0001:000971d0       ?GetItemCaption@CXTPTabManager@@UBE?AVCString@@PBVCXTPTabManagerItem@@@Z 004981d0 f   ToolkitPro1501vc60S:XTPTabManager.obj
 0001:00097200       ?GetItemIcon@CXTPTabManager@@UBEPAUHICON__@@PBVCXTPTabManagerItem@@@Z 00498200 f   ToolkitPro1501vc60S:XTPTabManager.obj
 0001:00097210       ?GetItemColor@CXTPTabManager@@UBEKPBVCXTPTabManagerItem@@@Z 00498210 f   ToolkitPro1501vc60S:XTPTabManager.obj
 0001:00097240       ?SetCurSel@CXTPTabManager@@QAEXH@Z 00498240 f   ToolkitPro1501vc60S:XTPTabManager.obj
 0001:00097290       ?GetCurSel@CXTPTabManager@@QBEHXZ 00498290 f   ToolkitPro1501vc60S:XTPTabManager.obj
 0001:000972a0       ?SetSelectedItem@CXTPTabManager@@UAEXPAVCXTPTabManagerItem@@@Z 004982a0 f   ToolkitPro1501vc60S:XTPTabManager.obj
 0001:000972d0       ?EnsureVisible@CXTPTabManager@@QAEXPAVCXTPTabManagerItem@@@Z 004982d0 f   ToolkitPro1501vc60S:XTPTabManager.obj
 0001:000972f0       ?SetPosition@CXTPTabManager@@QAEXW4XTPTabPosition@@@Z 004982f0 f   ToolkitPro1501vc60S:XTPTabManager.obj
 0001:00097310       ?HitTest@CXTPTabManager@@QBEPAVCXTPTabManagerItem@@VCPoint@@@Z 00498310 f   ToolkitPro1501vc60S:XTPTabManager.obj
 0001:000973e0       ?GetPosition@CXTPTabManager@@UBE?AW4XTPTabPosition@@XZ 004983e0 f   ToolkitPro1501vc60S:XTPTabManager.obj
 0001:000973f0       ?GetLayout@CXTPTabManager@@QBE?AW4XTPTabLayoutStyle@@XZ 004983f0 f   ToolkitPro1501vc60S:XTPTabManager.obj
 0001:00097400       ?TrackClick@CXTPTabManager@@IAEXPAUHWND__@@VCPoint@@PAVCXTPTabManagerItem@@@Z 00498400 f   ToolkitPro1501vc60S:XTPTabManager.obj
 0001:000975c0       ?ReOrder@CXTPTabManager@@MAEXPAUHWND__@@VCPoint@@PAVCXTPTabManagerItem@@@Z 004985c0 f   ToolkitPro1501vc60S:XTPTabManager.obj
 0001:00097830       ?OnItemClick@CXTPTabManager@@MAEXPAVCXTPTabManagerItem@@@Z 00498830 f   ToolkitPro1501vc60S:XTPTabManager.obj
 0001:00097840       ?SetFocusedItem@CXTPTabManager@@UAEXPAVCXTPTabManagerItem@@@Z 00498840 f   ToolkitPro1501vc60S:XTPTabManager.obj
 0001:00097870       ?FindNextFocusable@CXTPTabManager@@QBEPAVCXTPTabManagerItem@@HH@Z 00498870 f   ToolkitPro1501vc60S:XTPTabManager.obj
 0001:000978c0       ?PerformKeyDown@CXTPTabManager@@UAEHPAUHWND__@@I@Z 004988c0 f   ToolkitPro1501vc60S:XTPTabManager.obj
 0001:00097a00       ?HitTestNavigateButton@CXTPTabManager@@QBEPAVCXTPTabManagerNavigateButton@@VCPoint@@HPAH@Z 00498a00 f   ToolkitPro1501vc60S:XTPTabManager.obj
 0001:00097ad0       ?PerformClick@CXTPTabManager@@QAEHPAUHWND__@@VCPoint@@H@Z 00498ad0 f   ToolkitPro1501vc60S:XTPTabManager.obj
 0001:00097ba0       ?PerformMouseMove@CXTPTabManager@@QAEXPAUHWND__@@VCPoint@@@Z 00498ba0 f   ToolkitPro1501vc60S:XTPTabManager.obj
 0001:00097da0       ?GetItemTooltip@CXTPTabManager@@UBE?AVCString@@PBVCXTPTabManagerItem@@@Z 00498da0 f   ToolkitPro1501vc60S:XTPTabManager.obj
 0001:00097dd0       ?PerformToolHitTest@CXTPTabManager@@UBEHPAUHWND__@@VCPoint@@PAUtagTOOLINFOA@@@Z 00498dd0 f   ToolkitPro1501vc60S:XTPTabManager.obj
 0001:00097fb0       ?GetItemMetrics@CXTPTabManager@@UBEXPAVCSize@@00@Z 00498fb0 f   ToolkitPro1501vc60S:XTPTabManager.obj
 0001:00098000       ?IsDrawStaticFrame@CXTPTabManager@@UBEHXZ 00499000 f   ToolkitPro1501vc60S:XTPTabManager.obj
 0001:00098010       ?SetColor@CXTPTabManager@@QAEPAVCColorSet@CXTPTabPaintManager@@W4XTPTabColorStyle@@@Z 00499010 f   ToolkitPro1501vc60S:XTPTabManager.obj
 0001:00098040       ??1?$CArray@PAVCXTPTabManagerNavigateButton@@PAV1@@@UAE@XZ 00499040 f i ToolkitPro1501vc60S:XTPTabManager.obj
 0001:00098090       ??1?$CArray@PAVCXTPTabManagerItem@@PAV1@@@UAE@XZ 00499090 f i ToolkitPro1501vc60S:XTPTabManager.obj
 0001:000980e0       ??1?$CArray@VCRect@@AAV1@@@UAE@XZ 004990e0 f i ToolkitPro1501vc60S:XTPTabManager.obj
 0001:00098130       ?Serialize@?$CArray@VCRect@@AAV1@@@UAEXAAVCArchive@@@Z 00499130 f i ToolkitPro1501vc60S:XTPTabManager.obj
 0001:000982b0       ??_E?$CArray@PAVCXTPTabManagerNavigateButton@@PAV1@@@UAEPAXI@Z 004992b0 f i ToolkitPro1501vc60S:XTPTabManager.obj
 0001:000982b0       ??_G?$CArray@PAVCXTPTabManagerNavigateButton@@PAV1@@@UAEPAXI@Z 004992b0 f i ToolkitPro1501vc60S:XTPTabManager.obj
 0001:000982d0       ??_G?$CArray@PAVCXTPTabManagerItem@@PAV1@@@UAEPAXI@Z 004992d0 f i ToolkitPro1501vc60S:XTPTabManager.obj
 0001:000982d0       ??_E?$CArray@PAVCXTPTabManagerItem@@PAV1@@@UAEPAXI@Z 004992d0 f i ToolkitPro1501vc60S:XTPTabManager.obj
 0001:000982f0       ??_E?$CArray@VCRect@@AAV1@@@UAEPAXI@Z 004992f0 f i ToolkitPro1501vc60S:XTPTabManager.obj
 0001:000982f0       ??_G?$CArray@VCRect@@AAV1@@@UAEPAXI@Z 004992f0 f i ToolkitPro1501vc60S:XTPTabManager.obj
 0001:00098310       ?SetAtGrow@?$CArray@VCRect@@AAV1@@@QAEXHAAVCRect@@@Z 00499310 f i ToolkitPro1501vc60S:XTPTabManager.obj
 0001:00098470       ?ConstructElements@@YGXPAVCRect@@H@Z 00499470 f i ToolkitPro1501vc60S:XTPTabManager.obj
 0001:00098490       ??0CXTPComboBox@@QAE@XZ    00499490 f   ToolkitPro1501vc60S:XTPComboBox.obj
 0001:00098550       ?SetBackColor@CXTPComboBox@@UAEXK@Z 00499550 f i ToolkitPro1501vc60S:XTPComboBox.obj
 0001:00098560       ?SetTextColor@CXTPComboBox@@UAEXK@Z 00499560 f i ToolkitPro1501vc60S:XTPComboBox.obj
 0001:00098570       ??_ECXTPComboBox@@UAEPAXI@Z 00499570 f i ToolkitPro1501vc60S:XTPComboBox.obj
 0001:00098570       ??_GCXTPComboBox@@UAEPAXI@Z 00499570 f i ToolkitPro1501vc60S:XTPComboBox.obj
 0001:00098590       ??_ECXTPControlEditCtrl@@UAEPAXI@Z 00499590 f i ToolkitPro1501vc60S:XTPComboBox.obj
 0001:00098590       ??_GCXTPComboBoxEditCtrl@@UAEPAXI@Z 00499590 f i ToolkitPro1501vc60S:XTPComboBox.obj
 0001:00098590       ??_ECXTPCommandBarEditCtrl@@UAEPAXI@Z 00499590 f i ToolkitPro1501vc60S:XTPComboBox.obj
 0001:00098590       ??_GCXTPCommandBarEditCtrl@@UAEPAXI@Z 00499590 f i ToolkitPro1501vc60S:XTPComboBox.obj
 0001:00098590       ??_ECXTPComboBoxEditCtrl@@UAEPAXI@Z 00499590 f i ToolkitPro1501vc60S:XTPComboBox.obj
 0001:00098590       ??_GCXTPControlComboBoxEditCtrl@@UAEPAXI@Z 00499590 f i ToolkitPro1501vc60S:XTPComboBox.obj
 0001:00098590       ??_GCXTPControlEditCtrl@@UAEPAXI@Z 00499590 f i ToolkitPro1501vc60S:XTPComboBox.obj
 0001:00098590       ??_ECXTPControlComboBoxEditCtrl@@UAEPAXI@Z 00499590 f i ToolkitPro1501vc60S:XTPComboBox.obj
 0001:000985b0       ??1CXTPComboBox@@UAE@XZ    004995b0 f   ToolkitPro1501vc60S:XTPComboBox.obj
 0001:00098620       ?GetRuntimeClass@CXTPComboBox@@UBEPAUCRuntimeClass@@XZ 00499620 f   ToolkitPro1501vc60S:XTPComboBox.obj
 0001:00098630       ?GetMessageMap@CXTPComboBox@@MBEPBUAFX_MSGMAP@@XZ 00499630 f   ToolkitPro1501vc60S:XTPComboBox.obj
 0001:00098640       ?RefreshMetrics@CXTPComboBox@@QAEXXZ 00499640 f   ToolkitPro1501vc60S:XTPComboBox.obj
 0001:00098da0       ??4CXTPPaintManagerColor@@QAEABV0@ABV0@@Z 00499da0 f i ToolkitPro1501vc60S:XTPComboBox.obj
 0001:00098dc0       ?Init@CXTPComboBox@@IAEXXZ 00499dc0 f   ToolkitPro1501vc60S:XTPComboBox.obj
 0001:00098e10       ?PreSubclassWindow@CXTPComboBox@@MAEXXZ 00499e10 f   ToolkitPro1501vc60S:XTPComboBox.obj
 0001:00098e30       ?OnCreate@CXTPComboBox@@IAEHPAUtagCREATESTRUCTA@@@Z 00499e30 f   ToolkitPro1501vc60S:XTPComboBox.obj
 0001:00098e50       ?PreCreateWindow@CXTPComboBox@@MAEHAAUtagCREATESTRUCTA@@@Z 00499e50 f   ToolkitPro1501vc60S:XTPComboBox.obj
 0001:00098e80       ?SetTheme@CXTPComboBox@@QAEXW4XTPControlTheme@@@Z 00499e80 f   ToolkitPro1501vc60S:XTPComboBox.obj
 0001:00098ec0       ?OnPaint@CXTPComboBox@@IAEXXZ 00499ec0 f   ToolkitPro1501vc60S:XTPComboBox.obj
 0001:00099f20       ?FillSolidRect@CXTPComboBox@@IAEXPAUHDC__@@HHHHPAUHBRUSH__@@@Z 0049af20 f   ToolkitPro1501vc60S:XTPComboBox.obj
 0001:00099f70       ?DrawFrame@CXTPComboBox@@IAEXPAUHDC__@@PAUtagRECT@@HPAUHBRUSH__@@@Z 0049af70 f   ToolkitPro1501vc60S:XTPComboBox.obj
 0001:0009a000       ?GetClientBrush@CXTPComboBox@@IAEPAUHBRUSH__@@PAVCDC@@@Z 0049b000 f   ToolkitPro1501vc60S:XTPComboBox.obj
 0001:0009a090       ?OnMouseLeave@CXTPComboBox@@IAEXXZ 0049b090 f   ToolkitPro1501vc60S:XTPComboBox.obj
 0001:0009a140       ?SetHighlighted@CXTPComboBox@@IAEXH@Z 0049b140 f   ToolkitPro1501vc60S:XTPComboBox.obj
 0001:0009a190       ?OnMouseMove@CXTPComboBox@@IAEXIVCPoint@@@Z 0049b190 f   ToolkitPro1501vc60S:XTPComboBox.obj
 0001:0009a1f0       ?GetMessageMap@CXTPComboBoxEditCtrl@@MBEPBUAFX_MSGMAP@@XZ 0049b1f0 f   ToolkitPro1501vc60S:XTPComboBox.obj
 0001:0009a200       ?OnMouseLeave@CXTPComboBoxEditCtrl@@IAEXXZ 0049b200 f   ToolkitPro1501vc60S:XTPComboBox.obj
 0001:0009a250       ?OnMouseMove@CXTPComboBoxEditCtrl@@IAEXIVCPoint@@@Z 0049b250 f   ToolkitPro1501vc60S:XTPComboBox.obj
 0001:0009a2f0       ?OnKillFocus@CXTPComboBoxEditCtrl@@IAEXPAVCWnd@@@Z 0049b2f0 f   ToolkitPro1501vc60S:XTPComboBox.obj
 0001:0009a340       ?OnSetFocus@CXTPComboBoxEditCtrl@@IAEXPAVCWnd@@@Z 0049b340 f   ToolkitPro1501vc60S:XTPComboBox.obj
 0001:0009a380       ?OnKillFocus@CXTPComboBox@@IAEXPAVCWnd@@@Z 0049b380 f   ToolkitPro1501vc60S:XTPComboBox.obj
 0001:0009a3b0       ?OnSetFocus@CXTPComboBox@@IAEXPAVCWnd@@@Z 0049b3b0 f   ToolkitPro1501vc60S:XTPComboBox.obj
 0001:0009a3e0       ?NeedRedraw@CXTPComboBox@@IAEHXZ 0049b3e0 f   ToolkitPro1501vc60S:XTPComboBox.obj
 0001:0009a410       ?RedrawFocusedFrame@CXTPComboBox@@IAEXXZ 0049b410 f   ToolkitPro1501vc60S:XTPComboBox.obj
 0001:0009a440       ?OnSysColorChange@CXTPComboBox@@IAEXXZ 0049b440 f   ToolkitPro1501vc60S:XTPComboBox.obj
 0001:0009a460       ?PreTranslateMessage@CXTPComboBox@@MAEHPAUtagMSG@@@Z 0049b460 f   ToolkitPro1501vc60S:XTPComboBox.obj
 0001:0009a520       ?OnEditUpdate@CXTPComboBox@@IAEHXZ 0049b520 f   ToolkitPro1501vc60S:XTPComboBox.obj
 0001:0009a680       ?OnEndSel@CXTPComboBox@@IAEHXZ 0049b680 f   ToolkitPro1501vc60S:XTPComboBox.obj
 0001:0009a6a0       ??0CXTPTabControl@@QAE@XZ  0049b6a0 f   ToolkitPro1501vc60S:XTPTabControl.obj
 0001:0009a810       ?GetPaintManager@CXTPTabControl@@UBEPAVCXTPTabPaintManager@@XZ 0049b810 f i ToolkitPro1501vc60S:XTPTabControl.obj
 0001:0009a820       ?OnDragLeave@CPanelDropTarget@CXTPDockingPaneAutoHidePanel@@UAEXPAVCWnd@@@Z 0049b820 f i ToolkitPro1501vc60S:XTPTabControl.obj
 0001:0009a820       ?OnDragLeave@CTabControlDropTarget@CXTPTabControl@@UAEXPAVCWnd@@@Z 0049b820 f i ToolkitPro1501vc60S:XTPTabControl.obj
 0001:0009a820       ?OnDragLeave@CContainerDropTarget@CXTPDockingPaneTabbedContainer@@UAEXPAVCWnd@@@Z 0049b820 f i ToolkitPro1501vc60S:XTPTabControl.obj
 0001:0009a840       ?OnDragOver@CTabControlDropTarget@CXTPTabControl@@UAEKPAVCWnd@@PAVCOleDataObject@@KVCPoint@@@Z 0049b840 f i ToolkitPro1501vc60S:XTPTabControl.obj
 0001:0009a8f0       ??1CContainerDropTarget@CXTPDockingPaneTabbedContainer@@UAE@XZ 0049b8f0 f i ToolkitPro1501vc60S:XTPTabControl.obj
 0001:0009a8f0       ??1CTabControlDropTarget@CXTPTabControl@@UAE@XZ 0049b8f0 f i ToolkitPro1501vc60S:XTPTabControl.obj
 0001:0009a8f0       ??1CPanelDropTarget@CXTPDockingPaneAutoHidePanel@@UAE@XZ 0049b8f0 f i ToolkitPro1501vc60S:XTPTabControl.obj
 0001:0009a900       ??_GCXTPTabControl@@UAEPAXI@Z 0049b900 f i ToolkitPro1501vc60S:XTPTabControl.obj
 0001:0009a900       ??_ECXTPTabControl@@UAEPAXI@Z 0049b900 f i ToolkitPro1501vc60S:XTPTabControl.obj
 0001:0009a920       ??1CXTPTabControl@@UAE@XZ  0049b920 f   ToolkitPro1501vc60S:XTPTabControl.obj
 0001:0009a9e0       ?Create@CXTPTabControl@@QAEHKABUtagRECT@@PAVCWnd@@I@Z 0049b9e0 f   ToolkitPro1501vc60S:XTPTabControl.obj
 0001:0009aa40       ?InsertItem@CXTPTabControl@@QAEPAVCXTPTabManagerItem@@HPBDPAUHWND__@@HPAV2@@Z 0049ba40 f   ToolkitPro1501vc60S:XTPTabControl.obj
 0001:0009aac0       ?RedrawControl@CXTPTabControl@@UAEXPBUtagRECT@@H@Z 0049bac0 f   ToolkitPro1501vc60S:XTPTabControl.obj
 0001:0009aaf0       ?Reposition@CXTPTabControl@@UAEXXZ 0049baf0 f   ToolkitPro1501vc60S:XTPTabControl.obj
 0001:0009ac30       ?OnItemClick@CXTPTabControl@@UAEXPAVCXTPTabManagerItem@@@Z 0049bc30 f   ToolkitPro1501vc60S:XTPTabControl.obj
 0001:0009ac90       ?SetSelectedItem@CXTPTabControl@@UAEXPAVCXTPTabManagerItem@@@Z 0049bc90 f   ToolkitPro1501vc60S:XTPTabControl.obj
 0001:0009ada0       ?PreSubclassWindow@CXTPTabControl@@MAEXXZ 0049bda0 f   ToolkitPro1501vc60S:XTPTabControl.obj
 0001:0009adc0       ?GetMessageMap@CXTPTabControl@@MBEPBUAFX_MSGMAP@@XZ 0049bdc0 f   ToolkitPro1501vc60S:XTPTabControl.obj
 0001:0009add0       ?DrawParentBackground@CXTPTabControl@@MAEHPAVCDC@@VCRect@@@Z 0049bdd0 f   ToolkitPro1501vc60S:XTPTabControl.obj
 0001:0009ae40       ?OnPaint@CXTPTabControl@@IAEXXZ 0049be40 f   ToolkitPro1501vc60S:XTPTabControl.obj
 0001:0009af10       ?OnPrintClient@CXTPTabControl@@IAEJIJ@Z 0049bf10 f   ToolkitPro1501vc60S:XTPTabControl.obj
 0001:0009afa0       ?OnSize@CXTPTabControl@@IAEXIHH@Z 0049bfa0 f   ToolkitPro1501vc60S:XTPTabControl.obj
 0001:0009afc0       ?OnLButtonDown@CXTPTabControl@@IAEXIVCPoint@@@Z 0049bfc0 f   ToolkitPro1501vc60S:XTPTabControl.obj
 0001:0009b010       ?OnNavigateButtonClick@CXTPTabControl@@MAEXPAVCXTPTabManagerNavigateButton@@@Z 0049c010 f   ToolkitPro1501vc60S:XTPTabControl.obj
 0001:0009b040       ?OnSysColorChange@CXTPTabControl@@IAEXXZ 0049c040 f   ToolkitPro1501vc60S:XTPTabControl.obj
 0001:0009b070       ?OnToolHitTest@CXTPTabControl@@MBEHVCPoint@@PAUtagTOOLINFOA@@@Z 0049c070 f   ToolkitPro1501vc60S:XTPTabControl.obj
 0001:0009b0a0       ?OnMouseMove@CXTPTabControl@@IAEXIVCPoint@@@Z 0049c0a0 f   ToolkitPro1501vc60S:XTPTabControl.obj
 0001:0009b0d0       ?OnMouseLeave@CXTPTabControl@@IAEXXZ 0049c0d0 f   ToolkitPro1501vc60S:XTPTabControl.obj
 0001:0009b0f0       ?DrawIcon@CXTPTabControl@@UBEHPAVCDC@@VCPoint@@PAVCXTPTabManagerItem@@HAAVCSize@@@Z 0049c0f0 f   ToolkitPro1501vc60S:XTPTabControl.obj
 0001:0009b190       ?SetPaintManager@CXTPTabControl@@UAEXPAVCXTPTabPaintManager@@@Z 0049c190 f   ToolkitPro1501vc60S:XTPTabControl.obj
 0001:0009b1c0       ?OnWndMsg@CXTPTabControl@@MAEHIIJPAJ@Z 0049c1c0 f   ToolkitPro1501vc60S:XTPTabControl.obj
 0001:0009b200       ?OnKeyDown@CXTPTabControl@@IAEXIII@Z 0049c200 f   ToolkitPro1501vc60S:XTPTabControl.obj
 0001:0009b220       ?OnGetDlgCode@CXTPTabControl@@IAEIXZ 0049c220 f   ToolkitPro1501vc60S:XTPTabControl.obj
 0001:0009b240       ?OnKillFocus@CXTPTabControl@@IAEXPAVCWnd@@@Z 0049c240 f   ToolkitPro1501vc60S:XTPTabControl.obj
 0001:0009b240       ?OnSetFocus@CXTPTabControl@@IAEXPAVCWnd@@@Z 0049c240 f   ToolkitPro1501vc60S:XTPTabControl.obj
 0001:0009b260       ?SetFocusedItem@CXTPTabControl@@UAEXPAVCXTPTabManagerItem@@@Z 0049c260 f   ToolkitPro1501vc60S:XTPTabControl.obj
 0001:0009b2b0       ?HeaderHasFocus@CXTPTabControl@@MBEHXZ 0049c2b0 f   ToolkitPro1501vc60S:XTPTabControl.obj
 0001:0009b300       ?AdjustRect@CXTPTabControl@@QBEXHPAUtagRECT@@@Z 0049c300 f   ToolkitPro1501vc60S:XTPTabControl.obj
 0001:0009b3b0       ??0CSize@@QAE@K@Z          0049c3b0 f i ToolkitPro1501vc60S:XTPTabControl.obj
 0001:0009b3d0       ??_ECXTPTabControl@@WDM@AEPAXI@Z 0049c3d0 f i ToolkitPro1501vc60S:XTPTabControl.obj
 0001:0009b3e0       ??0CXTPTabPaintManager@@QAE@XZ 0049c3e0 f   ToolkitPro1501vc60S:XTPTabPaintManager.obj
 0001:0009b5c0       ??_GCXTPTabPaintManager@@UAEPAXI@Z 0049c5c0 f i ToolkitPro1501vc60S:XTPTabPaintManager.obj
 0001:0009b5c0       ??_ECXTPTabPaintManager@@UAEPAXI@Z 0049c5c0 f i ToolkitPro1501vc60S:XTPTabPaintManager.obj
 0001:0009b5e0       ??1CXTPTabPaintManager@@UAE@XZ 0049c5e0 f   ToolkitPro1501vc60S:XTPTabPaintManager.obj
 0001:0009b6e0       ?SetColor@CXTPTabPaintManager@@QAEPAVCColorSet@1@W4XTPTabColorStyle@@@Z 0049c6e0 f   ToolkitPro1501vc60S:XTPTabPaintManager.obj
 0001:0009bad0       ??_GCColorSetWinNative@CXTPTabPaintManager@@UAEPAXI@Z 0049cad0 f i ToolkitPro1501vc60S:XTPTabPaintManager.obj
 0001:0009bad0       ??_ECColorSetWinNative@CXTPTabPaintManager@@UAEPAXI@Z 0049cad0 f i ToolkitPro1501vc60S:XTPTabPaintManager.obj
 0001:0009baf0       ??1CColorSetWinNative@CXTPTabPaintManager@@UAE@XZ 0049caf0 f i ToolkitPro1501vc60S:XTPTabPaintManager.obj
 0001:0009bb50       ??1CColorSetVisualStudio2003@CXTPTabPaintManager@@UAE@XZ 0049cb50 f i ToolkitPro1501vc60S:XTPTabPaintManager.obj
 0001:0009bb50       ??1CColorSetVisualStudio2003@CXTPDockingPaneVisualStudio2005Beta1Theme@XTPDockingPanePaintThemes@@UAE@XZ 0049cb50 f i ToolkitPro1501vc60S:XTPTabPaintManager.obj
 0001:0009bb50       ??1CColorSetVisualStudio2005@CXTPTabPaintManager@@UAE@XZ 0049cb50 f i ToolkitPro1501vc60S:XTPTabPaintManager.obj
 0001:0009bb50       ??1CColorSetOffice2007Access@CXTPTabPaintManager@@UAE@XZ 0049cb50 f i ToolkitPro1501vc60S:XTPTabPaintManager.obj
 0001:0009bb50       ??1CColorSetOffice2003@CXTPTabPaintManager@@UAE@XZ 0049cb50 f i ToolkitPro1501vc60S:XTPTabPaintManager.obj
 0001:0009bb50       ??1COfficePanelColorSet@CXTPDockingPaneVisualStudio2003Theme@XTPDockingPanePaintThemes@@UAE@XZ 0049cb50 f i ToolkitPro1501vc60S:XTPTabPaintManager.obj
 0001:0009bb50       ??1CColorSetVisualStudio2008@CXTPTabPaintManager@@UAE@XZ 0049cb50 f i ToolkitPro1501vc60S:XTPTabPaintManager.obj
 0001:0009bb50       ??1CColorSetVisualStudio2010@CXTPTabPaintManager@@UAE@XZ 0049cb50 f i ToolkitPro1501vc60S:XTPTabPaintManager.obj
 0001:0009bb50       ??1CColorSetOffice2007@CXTPTabPaintManager@@UAE@XZ 0049cb50 f i ToolkitPro1501vc60S:XTPTabPaintManager.obj
 0001:0009bb50       ??1CColorSetDefault@CXTPTabPaintManager@@UAE@XZ 0049cb50 f i ToolkitPro1501vc60S:XTPTabPaintManager.obj
 0001:0009bb50       ??1CColorSetVisualStudio2005@CXTPDockingPaneVisualStudio2005Beta1Theme@XTPDockingPanePaintThemes@@UAE@XZ 0049cb50 f i ToolkitPro1501vc60S:XTPTabPaintManager.obj
 0001:0009bb50       ??1CRibbonColorSet@CXTPRibbonPaintManager@@UAE@XZ 0049cb50 f i ToolkitPro1501vc60S:XTPTabPaintManager.obj
 0001:0009bb60       ?SetColorSet@CXTPTabPaintManager@@QAEPAVCColorSet@1@PAV21@@Z 0049cb60 f   ToolkitPro1501vc60S:XTPTabPaintManager.obj
 0001:0009bba0       ?SetAppearance@CXTPTabPaintManager@@QAEPAVCAppearanceSet@1@W4XTPTabAppearanceStyle@@@Z 0049cba0 f   ToolkitPro1501vc60S:XTPTabPaintManager.obj
 0001:0009bfe0       ?GetSupportedColorSets@CAppearanceSet@CXTPTabPaintManager@@UAEHXZ 0049cfe0 f i ToolkitPro1501vc60S:XTPTabPaintManager.obj
 0001:0009bff0       ?GetSupportedColorSets@CAppearanceSetPropertyPage@CXTPTabPaintManager@@UAEHXZ 0049cff0 f i ToolkitPro1501vc60S:XTPTabPaintManager.obj
 0001:0009c000       ?GetHeaderMargin@CAppearanceSetPropertyPage2003@CXTPTabPaintManager@@UAE?AVCRect@@XZ 0049d000 f i ToolkitPro1501vc60S:XTPTabPaintManager.obj
 0001:0009c030       ?GetSupportedColorSets@CAppearanceSetPropertyPage2003@CXTPTabPaintManager@@UAEHXZ 0049d030 f i ToolkitPro1501vc60S:XTPTabPaintManager.obj
 0001:0009c040       ?GetDefaultColorSet@CAppearanceSetPropertyPage2003@CXTPTabPaintManager@@UAE?AW4XTPTabColorStyle@@XZ 0049d040 f i ToolkitPro1501vc60S:XTPTabPaintManager.obj
 0001:0009c040       ?BaseTheme@CXTPWhidbeyTheme@@UAE?AW4XTPPaintTheme@@XZ 0049d040 f i ToolkitPro1501vc60S:XTPTabPaintManager.obj
 0001:0009c050       ?GetSupportedColorSets@CAppearanceSetPropertyPage2007@CXTPTabPaintManager@@MAEHXZ 0049d050 f i ToolkitPro1501vc60S:XTPTabPaintManager.obj
 0001:0009c050       ?GetDefaultColorSet@CAppearanceSetPropertyPage2007@CXTPTabPaintManager@@MAE?AW4XTPTabColorStyle@@XZ 0049d050 f i ToolkitPro1501vc60S:XTPTabPaintManager.obj
 0001:0009c060       ?GetDefaultColorSet@CAppearanceSetPropertyPageAccess2007@CXTPTabPaintManager@@MAE?AW4XTPTabColorStyle@@XZ 0049d060 f i ToolkitPro1501vc60S:XTPTabPaintManager.obj
 0001:0009c060       ?GetSupportedColorSets@CAppearanceSetPropertyPageAccess2007@CXTPTabPaintManager@@MAEHXZ 0049d060 f i ToolkitPro1501vc60S:XTPTabPaintManager.obj
 0001:0009c070       ?GetHeaderMargin@CAppearanceSetPropertyPageAccess2007@CXTPTabPaintManager@@MAE?AVCRect@@XZ 0049d070 f i ToolkitPro1501vc60S:XTPTabPaintManager.obj
 0001:0009c0b0       ?GetHeaderMargin@CAppearanceSetVisualStudio2005@CXTPTabPaintManager@@UAE?AVCRect@@XZ 0049d0b0 f i ToolkitPro1501vc60S:XTPTabPaintManager.obj
 0001:0009c0f0       ?GetSupportedColorSets@CAppearanceSetFlat@CXTPTabPaintManager@@UAEHXZ 0049d0f0 f i ToolkitPro1501vc60S:XTPTabPaintManager.obj
 0001:0009c100       ?GetHeaderMargin@CAppearanceSetExcel@CXTPTabPaintManager@@UAE?AVCRect@@XZ 0049d100 f i ToolkitPro1501vc60S:XTPTabPaintManager.obj
 0001:0009c140       ??_ECAppearanceSetPropertyPage@CXTPTabPaintManager@@UAEPAXI@Z 0049d140 f i ToolkitPro1501vc60S:XTPTabPaintManager.obj
 0001:0009c140       ??_GCAppearanceSetVisualStudio2005@CXTPTabPaintManager@@UAEPAXI@Z 0049d140 f i ToolkitPro1501vc60S:XTPTabPaintManager.obj
 0001:0009c140       ??_GCAppearanceSetVisualStudio@CXTPTabPaintManager@@UAEPAXI@Z 0049d140 f i ToolkitPro1501vc60S:XTPTabPaintManager.obj
 0001:0009c140       ??_GCAppearanceSetExcel@CXTPTabPaintManager@@UAEPAXI@Z 0049d140 f i ToolkitPro1501vc60S:XTPTabPaintManager.obj
 0001:0009c140       ??_GCAppearanceSetPropertyPage@CXTPTabPaintManager@@UAEPAXI@Z 0049d140 f i ToolkitPro1501vc60S:XTPTabPaintManager.obj
 0001:0009c140       ??_GCAppearanceSetPropertyPage2003@CXTPTabPaintManager@@UAEPAXI@Z 0049d140 f i ToolkitPro1501vc60S:XTPTabPaintManager.obj
 0001:0009c140       ??_GCRibbonAppearanceSet@CXTPRibbonPaintManager@@UAEPAXI@Z 0049d140 f i ToolkitPro1501vc60S:XTPTabPaintManager.obj
 0001:0009c140       ??_GCAppearanceSetPropertyPageAccess2007@CXTPTabPaintManager@@UAEPAXI@Z 0049d140 f i ToolkitPro1501vc60S:XTPTabPaintManager.obj
 0001:0009c140       ??_GCAppearanceSetPropertyPageSelected@CXTPTabPaintManager@@UAEPAXI@Z 0049d140 f i ToolkitPro1501vc60S:XTPTabPaintManager.obj
 0001:0009c140       ??_ECRibbonAppearanceSet@CXTPRibbonPaintManager@@UAEPAXI@Z 0049d140 f i ToolkitPro1501vc60S:XTPTabPaintManager.obj
 0001:0009c140       ??_ECAppearanceSetFlat@CXTPTabPaintManager@@UAEPAXI@Z 0049d140 f i ToolkitPro1501vc60S:XTPTabPaintManager.obj
 0001:0009c140       ??_GCAppearanceSetVisio@CXTPTabPaintManager@@UAEPAXI@Z 0049d140 f i ToolkitPro1501vc60S:XTPTabPaintManager.obj
 0001:0009c140       ??_ECAppearanceSetStateButtons@CXTPTabPaintManager@@UAEPAXI@Z 0049d140 f i ToolkitPro1501vc60S:XTPTabPaintManager.obj
 0001:0009c140       ??_ECAppearanceSetPropertyPageSelected@CXTPTabPaintManager@@UAEPAXI@Z 0049d140 f i ToolkitPro1501vc60S:XTPTabPaintManager.obj
 0001:0009c140       ??_ECAppearanceSetExcel@CXTPTabPaintManager@@UAEPAXI@Z 0049d140 f i ToolkitPro1501vc60S:XTPTabPaintManager.obj
 0001:0009c140       ??_ECAppearanceSetPropertyPageAccess2007@CXTPTabPaintManager@@UAEPAXI@Z 0049d140 f i ToolkitPro1501vc60S:XTPTabPaintManager.obj
 0001:0009c140       ??_ECAppearanceSetPropertyPage2003@CXTPTabPaintManager@@UAEPAXI@Z 0049d140 f i ToolkitPro1501vc60S:XTPTabPaintManager.obj
 0001:0009c140       ??_ECAppearanceSetVisualStudio@CXTPTabPaintManager@@UAEPAXI@Z 0049d140 f i ToolkitPro1501vc60S:XTPTabPaintManager.obj
 0001:0009c140       ??_ECAppearanceSetVisio@CXTPTabPaintManager@@UAEPAXI@Z 0049d140 f i ToolkitPro1501vc60S:XTPTabPaintManager.obj
 0001:0009c140       ??_ECAppearanceSetVisualStudio2005@CXTPTabPaintManager@@UAEPAXI@Z 0049d140 f i ToolkitPro1501vc60S:XTPTabPaintManager.obj
 0001:0009c140       ??_GCAppearanceSetPropertyPage2007@CXTPTabPaintManager@@UAEPAXI@Z 0049d140 f i ToolkitPro1501vc60S:XTPTabPaintManager.obj
 0001:0009c140       ??_GCAppearanceSetFlat@CXTPTabPaintManager@@UAEPAXI@Z 0049d140 f i ToolkitPro1501vc60S:XTPTabPaintManager.obj
 0001:0009c140       ??_GCAppearanceSetStateButtons@CXTPTabPaintManager@@UAEPAXI@Z 0049d140 f i ToolkitPro1501vc60S:XTPTabPaintManager.obj
 0001:0009c140       ??_ECAppearanceSetPropertyPageFlat@CXTPTabPaintManager@@UAEPAXI@Z 0049d140 f i ToolkitPro1501vc60S:XTPTabPaintManager.obj
 0001:0009c140       ??_GCAppearanceSetPropertyPageFlat@CXTPTabPaintManager@@UAEPAXI@Z 0049d140 f i ToolkitPro1501vc60S:XTPTabPaintManager.obj
 0001:0009c140       ??_ECAppearanceSetPropertyPage2007@CXTPTabPaintManager@@UAEPAXI@Z 0049d140 f i ToolkitPro1501vc60S:XTPTabPaintManager.obj
 0001:0009c160       ??1CAppearanceSetPropertyPage2007@CXTPTabPaintManager@@UAE@XZ 0049d160 f i ToolkitPro1501vc60S:XTPTabPaintManager.obj
 0001:0009c160       ??1CAppearanceSetPropertyPage2003@CXTPTabPaintManager@@UAE@XZ 0049d160 f i ToolkitPro1501vc60S:XTPTabPaintManager.obj
 0001:0009c160       ??1CAppearanceSetPropertyPageAccess2007@CXTPTabPaintManager@@UAE@XZ 0049d160 f i ToolkitPro1501vc60S:XTPTabPaintManager.obj
 0001:0009c160       ??1CAppearanceSetVisio@CXTPTabPaintManager@@UAE@XZ 0049d160 f i ToolkitPro1501vc60S:XTPTabPaintManager.obj
 0001:0009c160       ??1CAppearanceSetFlat@CXTPTabPaintManager@@UAE@XZ 0049d160 f i ToolkitPro1501vc60S:XTPTabPaintManager.obj
 0001:0009c160       ??1CAppearanceSetVisualStudio@CXTPTabPaintManager@@UAE@XZ 0049d160 f i ToolkitPro1501vc60S:XTPTabPaintManager.obj
 0001:0009c160       ??1CRibbonAppearanceSet@CXTPRibbonPaintManager@@UAE@XZ 0049d160 f i ToolkitPro1501vc60S:XTPTabPaintManager.obj
 0001:0009c160       ??1CAppearanceSetPropertyPageSelected@CXTPTabPaintManager@@UAE@XZ 0049d160 f i ToolkitPro1501vc60S:XTPTabPaintManager.obj
 0001:0009c160       ??1CAppearanceSetVisualStudio2005@CXTPTabPaintManager@@UAE@XZ 0049d160 f i ToolkitPro1501vc60S:XTPTabPaintManager.obj
 0001:0009c160       ??1CAppearanceSetPropertyPageFlat@CXTPTabPaintManager@@UAE@XZ 0049d160 f i ToolkitPro1501vc60S:XTPTabPaintManager.obj
 0001:0009c160       ??1CAppearanceSetExcel@CXTPTabPaintManager@@UAE@XZ 0049d160 f i ToolkitPro1501vc60S:XTPTabPaintManager.obj
 0001:0009c160       ??1CAppearanceSetStateButtons@CXTPTabPaintManager@@UAE@XZ 0049d160 f i ToolkitPro1501vc60S:XTPTabPaintManager.obj
 0001:0009c160       ??1CAppearanceSetPropertyPage@CXTPTabPaintManager@@UAE@XZ 0049d160 f i ToolkitPro1501vc60S:XTPTabPaintManager.obj
 0001:0009c170       ?GetHeaderMargin@CAppearanceSet@CXTPTabPaintManager@@UAE?AVCRect@@XZ 0049d170 f i ToolkitPro1501vc60S:XTPTabPaintManager.obj
 0001:0009c1a0       ?FillTabControl@CAppearanceSet@CXTPTabPaintManager@@UAE?AVCRect@@PAVCXTPTabManager@@PAVCDC@@V3@@Z 0049d1a0 f i ToolkitPro1501vc60S:XTPTabPaintManager.obj
 0001:0009c1d0       ?DrawTabControl@CAppearanceSet@CXTPTabPaintManager@@UAEXPAVCXTPTabManager@@PAVCDC@@VCRect@@@Z 0049d1d0 f i ToolkitPro1501vc60S:XTPTabPaintManager.obj
 0001:0009c210       ?RepositionTabControl@CAppearanceSet@CXTPTabPaintManager@@UAEXPAVCXTPTabManager@@PAVCDC@@VCRect@@@Z 0049d210 f i ToolkitPro1501vc60S:XTPTabPaintManager.obj
 0001:0009c250       ?SetAppearanceSet@CXTPTabPaintManager@@QAEPAVCAppearanceSet@1@PAV21@@Z 0049d250 f   ToolkitPro1501vc60S:XTPTabPaintManager.obj
 0001:0009c2a0       ?SetFontIndirect@CXTPTabPaintManager@@QAEXPAUtagLOGFONTA@@H@Z 0049d2a0 f   ToolkitPro1501vc60S:XTPTabPaintManager.obj
 0001:0009c3f0       ?RefreshMetrics@CXTPTabPaintManager@@UAEXXZ 0049d3f0 f   ToolkitPro1501vc60S:XTPTabPaintManager.obj
 0001:0009c440       ?DisableLunaColors@CXTPTabPaintManager@@QAEXH@Z 0049d440 f   ToolkitPro1501vc60S:XTPTabPaintManager.obj
 0001:0009c460       ?IsLunaColorsDisabled@CXTPTabPaintManager@@QBEHXZ 0049d460 f   ToolkitPro1501vc60S:XTPTabPaintManager.obj
 0001:0009c480       ?GetOneNoteColor@CXTPTabPaintManager@@SAKW4XTPTabOneNoteColor@@@Z 0049d480 f   ToolkitPro1501vc60S:XTPTabPaintManager.obj
 0001:0009c4e0       ?DrawNavigateButton@CXTPTabPaintManager@@UAEXPAVCDC@@PAVCXTPTabManagerNavigateButton@@AAVCRect@@@Z 0049d4e0 f   ToolkitPro1501vc60S:XTPTabPaintManager.obj
 0001:0009c5f0       ?FillNavigateButton@CXTPTabPaintManager@@QAEXPAVCDC@@PAVCXTPTabManagerNavigateButton@@AAVCRect@@@Z 0049d5f0 f   ToolkitPro1501vc60S:XTPTabPaintManager.obj
 0001:0009c610       ?DrawTabControl@CXTPTabPaintManager@@UAEXPAVCXTPTabManager@@PAVCDC@@VCRect@@@Z 0049d610 f   ToolkitPro1501vc60S:XTPTabPaintManager.obj
 0001:0009c650       ?DrawRowItems@CXTPTabPaintManager@@IAEXPAVCXTPTabManager@@PAVCDC@@ABVCRect@@H@Z 0049d650 f   ToolkitPro1501vc60S:XTPTabPaintManager.obj
 0001:0009c7f0       ?DrawTabControlEx@CXTPTabPaintManager@@IAEXPAVCXTPTabManager@@PAVCDC@@VCRect@@@Z 0049d7f0 f   ToolkitPro1501vc60S:XTPTabPaintManager.obj
 0001:0009cb30       ?_GetButtonLength@CXTPTabPaintManager@@IAEHHHH@Z 0049db30 f   ToolkitPro1501vc60S:XTPTabPaintManager.obj
 0001:0009cb60       ?StripMnemonics@CXTPTabPaintManager@@IAEXAAVCString@@@Z 0049db60 f   ToolkitPro1501vc60S:XTPTabPaintManager.obj
 0001:0009cb70       ?GetPrefixTextExtent@CXTPTabPaintManager@@IAEHPAVCDC@@ABVCString@@I@Z 0049db70 f   ToolkitPro1501vc60S:XTPTabPaintManager.obj
 0001:0009cc30       ?DrawTextPathEllipsis@CXTPTabPaintManager@@IAEXPAVCDC@@PAVCXTPTabManager@@ABVCString@@VCRect@@I@Z 0049dc30 f   ToolkitPro1501vc60S:XTPTabPaintManager.obj
 0001:0009cfd0       ?DrawFocusRect@CXTPTabPaintManager@@MAEXPAVCDC@@PAVCXTPTabManagerItem@@VCRect@@@Z 0049dfd0 f   ToolkitPro1501vc60S:XTPTabPaintManager.obj
 0001:0009d020       ?DrawSingleButtonIconAndText@CXTPTabPaintManager@@UAEHPAVCDC@@PAVCXTPTabManagerItem@@VCRect@@H@Z 0049e020 f   ToolkitPro1501vc60S:XTPTabPaintManager.obj
 0001:0009dc20       ?AdjustClientRect@CXTPTabPaintManager@@UAEXPAVCXTPTabManager@@AAVCRect@@@Z 0049ec20 f   ToolkitPro1501vc60S:XTPTabPaintManager.obj
 0001:0009dca0       ?RepositionNavigateButtons@CXTPTabPaintManager@@QAE?AVCRect@@PAVCXTPTabManager@@V2@@Z 0049eca0 f   ToolkitPro1501vc60S:XTPTabPaintManager.obj
 0001:0009dd70       ?RepositionTabControl@CXTPTabPaintManager@@UAEXPAVCXTPTabManager@@PAVCDC@@VCRect@@@Z 0049ed70 f   ToolkitPro1501vc60S:XTPTabPaintManager.obj
 0001:0009de30       ?_CreateMultiRowIndexerBestFit@CXTPTabPaintManager@@IAEHPAVCXTPTabManager@@HHH@Z 0049ee30 f   ToolkitPro1501vc60S:XTPTabPaintManager.obj
 0001:0009df40       ?SetRect@CRect@@QAEXHHHH@Z 0049ef40 f i ToolkitPro1501vc60S:XTPTabPaintManager.obj
 0001:0009df60       ?CreateMultiRowIndexer@CXTPTabPaintManager@@IAEXPAVCXTPTabManager@@PAVCDC@@H@Z 0049ef60 f   ToolkitPro1501vc60S:XTPTabPaintManager.obj
 0001:0009e080       ?RepositionTabControlMultiRow@CXTPTabPaintManager@@IAEXPAVCXTPTabManager@@PAVCDC@@VCRect@@@Z 0049f080 f   ToolkitPro1501vc60S:XTPTabPaintManager.obj
 0001:0009e670       ?RepositionTabControlEx@CXTPTabPaintManager@@IAEXPAVCXTPTabManager@@PAVCDC@@VCRect@@@Z 0049f670 f   ToolkitPro1501vc60S:XTPTabPaintManager.obj
 0001:0009ee40       ?EnsureVisible@CXTPTabPaintManager@@QAEXPAVCXTPTabManager@@PAVCXTPTabManagerItem@@@Z 0049fe40 f   ToolkitPro1501vc60S:XTPTabPaintManager.obj
 0001:0009ef90       ?_SizeToFitCompare@CXTPTabPaintManager@@KAHPBX0@Z 0049ff90 f   ToolkitPro1501vc60S:XTPTabPaintManager.obj
 0001:0009efb0       ?SizeToFit@CXTPTabPaintManager@@IAEXPAVCXTPTabManager@@H@Z 0049ffb0 f   ToolkitPro1501vc60S:XTPTabPaintManager.obj
 0001:0009f0c0       ?GetAppearance@CXTPTabPaintManager@@QBE?AW4XTPTabAppearanceStyle@@XZ 004a00c0 f   ToolkitPro1501vc60S:XTPTabPaintManager.obj
 0001:0009f0d0       ?GetColor@CXTPTabPaintManager@@QBE?AW4XTPTabColorStyle@@XZ 004a00d0 f   ToolkitPro1501vc60S:XTPTabPaintManager.obj
 0001:0009f0e0       ?SetPosition@CXTPTabPaintManager@@QAEXW4XTPTabPosition@@@Z 004a00e0 f   ToolkitPro1501vc60S:XTPTabPaintManager.obj
 0001:0009f100       ?SetLayout@CXTPTabPaintManager@@QAEXW4XTPTabLayoutStyle@@@Z 004a0100 f   ToolkitPro1501vc60S:XTPTabPaintManager.obj
 0001:0009f120       ?GetPosition@CXTPTabPaintManager@@QBE?AW4XTPTabPosition@@XZ 004a0120 f   ToolkitPro1501vc60S:XTPTabPaintManager.obj
 0001:0009f130       ?GetLayout@CXTPTabPaintManager@@QBE?AW4XTPTabLayoutStyle@@XZ 004a0130 f   ToolkitPro1501vc60S:XTPTabPaintManager.obj
 0001:0009f140       ?OnPropertyChanged@CXTPTabPaintManager@@MAEXXZ 004a0140 f   ToolkitPro1501vc60S:XTPTabPaintManager.obj
 0001:0009f170       ??1?$CArray@PAVCXTPTabManagerAtom@@PAV1@@@UAE@XZ 004a0170 f i ToolkitPro1501vc60S:XTPTabPaintManager.obj
 0001:0009f1c0       ??_E?$CArray@PAVCXTPTabManagerAtom@@PAV1@@@UAEPAXI@Z 004a01c0 f i ToolkitPro1501vc60S:XTPTabPaintManager.obj
 0001:0009f1c0       ??_G?$CArray@PAVCXTPTabManagerAtom@@PAV1@@@UAEPAXI@Z 004a01c0 f i ToolkitPro1501vc60S:XTPTabPaintManager.obj
 0001:0009f1e0       ??0CXTPCommandBarsContextMenus@@QAE@PAVCXTPCommandBars@@@Z 004a01e0 f   ToolkitPro1501vc60S:XTPCommandBars.obj
 0001:0009f210       ??_GCXTPCommandBarsContextMenus@@UAEPAXI@Z 004a0210 f i ToolkitPro1501vc60S:XTPCommandBars.obj
 0001:0009f210       ??_ECXTPCommandBarsContextMenus@@UAEPAXI@Z 004a0210 f i ToolkitPro1501vc60S:XTPCommandBars.obj
 0001:0009f230       ??1CXTPCommandBarsContextMenus@@UAE@XZ 004a0230 f i ToolkitPro1501vc60S:XTPCommandBars.obj
 0001:0009f240       ?Add@CXTPCommandBarsContextMenus@@UAEPAVCXTPCommandBar@@PAV2@@Z 004a0240 f   ToolkitPro1501vc60S:XTPCommandBars.obj
 0001:0009f390       ??0CXTPCommandBarsOptions@@QAE@XZ 004a0390 f   ToolkitPro1501vc60S:XTPCommandBars.obj
 0001:0009f4c0       ??_ECXTPCommandBarsOptions@@UAEPAXI@Z 004a04c0 f i ToolkitPro1501vc60S:XTPCommandBars.obj
 0001:0009f4c0       ??_GCXTPCommandBarsOptions@@UAEPAXI@Z 004a04c0 f i ToolkitPro1501vc60S:XTPCommandBars.obj
 0001:0009f4e0       ??1CXTPCommandBarsOptions@@UAE@XZ 004a04e0 f i ToolkitPro1501vc60S:XTPCommandBars.obj
 0001:0009f5e0       ?ShowKeyboardCues@CXTPCommandBarsOptions@@QAEXW4XTPKeyboardCuesShow@@@Z 004a05e0 f   ToolkitPro1501vc60S:XTPCommandBars.obj
 0001:0009f670       ?CreateObject@CXTPCommandBars@@SGPAVCObject@@XZ 004a0670 f   ToolkitPro1501vc60S:XTPCommandBars.obj
 0001:0009f6d0       ?GetRuntimeClass@CXTPCommandBars@@UBEPAUCRuntimeClass@@XZ 004a06d0 f   ToolkitPro1501vc60S:XTPCommandBars.obj
 0001:0009f6e0       ??0CXTPCommandBars@@IAE@XZ 004a06e0 f   ToolkitPro1501vc60S:XTPCommandBars.obj
 0001:0009f910       ??_ECXTPCommandBars@@MAEPAXI@Z 004a0910 f i ToolkitPro1501vc60S:XTPCommandBars.obj
 0001:0009f910       ??_GCXTPCommandBars@@MAEPAXI@Z 004a0910 f i ToolkitPro1501vc60S:XTPCommandBars.obj
 0001:0009f930       ??1KEYBOARDTIPS@CXTPCommandBars@@QAE@XZ 004a0930 f i ToolkitPro1501vc60S:XTPCommandBars.obj
 0001:0009f980       ??1CXTPCommandBars@@MAE@XZ 004a0980 f   ToolkitPro1501vc60S:XTPCommandBars.obj
 0001:0009fb30       ?IsToolBarVisible@@YAHPAVCXTPToolBar@@@Z 004a0b30 f   ToolkitPro1501vc60S:XTPCommandBars.obj
 0001:0009fb50       ?CreateAction@CXTPCommandBars@@QAEPAVCXTPControlAction@@H@Z 004a0b50 f   ToolkitPro1501vc60S:XTPCommandBars.obj
 0001:0009fb70       ?FindAction@CXTPCommandBars@@QBEPAVCXTPControlAction@@H@Z 004a0b70 f   ToolkitPro1501vc60S:XTPCommandBars.obj
 0001:0009fb90       ?GetMenuBar@CXTPCommandBars@@UBEPAVCXTPMenuBar@@XZ 004a0b90 f   ToolkitPro1501vc60S:XTPCommandBars.obj
 0001:0009fbb0       ?RecalcFrameLayout@CXTPCommandBars@@UAEXH@Z 004a0bb0 f   ToolkitPro1501vc60S:XTPCommandBars.obj
 0001:0009fc80       ?IdleRecalcLayout@CXTPCommandBars@@IAEXXZ 004a0c80 f   ToolkitPro1501vc60S:XTPCommandBars.obj
 0001:0009fcc0       ?OnToolBarAdded@CXTPCommandBars@@MAEXPAVCXTPToolBar@@@Z 004a0cc0 f   ToolkitPro1501vc60S:XTPCommandBars.obj
 0001:0009fce0       ?OnToolBarRemoved@CXTPCommandBars@@MAEXPAVCXTPToolBar@@@Z 004a0ce0 f   ToolkitPro1501vc60S:XTPCommandBars.obj
 0001:0009fd00       ?GetFrameReBar@CXTPCommandBars@@QBEPAVCXTPReBar@@XZ 004a0d00 f   ToolkitPro1501vc60S:XTPCommandBars.obj
 0001:0009fd30       ?AddCustomBar@CXTPCommandBars@@MAEPAVCXTPToolBar@@PBDIH@Z 004a0d30 f   ToolkitPro1501vc60S:XTPCommandBars.obj
 0001:0009fe40       ?GetShortcutManager@CXTPCommandBars@@QBEPAVCXTPShortcutManager@@XZ 004a0e40 f   ToolkitPro1501vc60S:XTPCommandBars.obj
 0001:0009fe50       ?Add@CXTPCommandBars@@QAEPAVCXTPToolBar@@PBDW4XTPBarPosition@@PAUCRuntimeClass@@@Z 004a0e50 f   ToolkitPro1501vc60S:XTPCommandBars.obj
 0001:000a0050       ?EnableDocking@CXTPCommandBars@@QAEXXZ 004a1050 f   ToolkitPro1501vc60S:XTPCommandBars.obj
 0001:000a0110       ?CanDock@CXTPCommandBars@@QBEPAVCXTPDockBar@@VCPoint@@PAV2@@Z 004a1110 f   ToolkitPro1501vc60S:XTPCommandBars.obj
 0001:000a02a0       ?DockCommandBar@CXTPCommandBars@@QAEHPAVCXTPToolBar@@PAUtagRECT@@PAVCXTPDockBar@@@Z 004a12a0 f   ToolkitPro1501vc60S:XTPCommandBars.obj
 0001:000a0300       ?DockCommandBar@CXTPCommandBars@@QAEHPAVCXTPToolBar@@W4XTPBarPosition@@@Z 004a1300 f   ToolkitPro1501vc60S:XTPCommandBars.obj
 0001:000a0340       ?FloatCommandBar@CXTPCommandBars@@IAEHPAVCXTPToolBar@@@Z 004a1340 f   ToolkitPro1501vc60S:XTPCommandBars.obj
 0001:000a0390       ?InvalidateCommandBars@CXTPCommandBars@@QAEXXZ 004a1390 f   ToolkitPro1501vc60S:XTPCommandBars.obj
 0001:000a03f0       ?RedrawCommandBars@CXTPCommandBars@@QAEXXZ 004a13f0 f   ToolkitPro1501vc60S:XTPCommandBars.obj
 0001:000a0520       ?IsKeyboardCuesVisible@CXTPCommandBar@@UBEHXZ 004a1520 f   ToolkitPro1501vc60S:XTPCommandBars.obj
 0001:000a0540       ??0CXTPCommandBarKeyboardTip@@QAE@PAVCXTPCommandBars@@PAVCCmdTarget@@PBDVCPoint@@KH@Z 004a1540 f   ToolkitPro1501vc60S:XTPCommandBars.obj
 0001:000a0600       ??_GCXTPCommandBarKeyboardTip@@UAEPAXI@Z 004a1600 f i ToolkitPro1501vc60S:XTPCommandBars.obj
 0001:000a0600       ??_ECXTPCommandBarKeyboardTip@@UAEPAXI@Z 004a1600 f i ToolkitPro1501vc60S:XTPCommandBars.obj
 0001:000a0620       ??1CXTPCommandBarKeyboardTip@@UAE@XZ 004a1620 f i ToolkitPro1501vc60S:XTPCommandBars.obj
 0001:000a0690       ?GetMessageMap@CXTPCommandBarKeyboardTip@@MBEPBUAFX_MSGMAP@@XZ 004a1690 f   ToolkitPro1501vc60S:XTPCommandBars.obj
 0001:000a06a0       ?OnPaint@CXTPCommandBarKeyboardTip@@IAEXXZ 004a16a0 f   ToolkitPro1501vc60S:XTPCommandBars.obj
 0001:000a0710       ?IsKeyboardTipsVisible@CXTPCommandBar@@QBEHXZ 004a1710 f   ToolkitPro1501vc60S:XTPCommandBars.obj
 0001:000a0730       ?CreateKeyboardTips@CXTPCommandBar@@UAEXXZ 004a1730 f   ToolkitPro1501vc60S:XTPCommandBars.obj
 0001:000a0b80       ?GetTitle@CXTPCommandBar@@QBE?AVCString@@XZ 004a1b80 f i ToolkitPro1501vc60S:XTPCommandBars.obj
 0001:000a0b80       ?GetContextCaption@CXTPRibbonTab@@QBE?AVCString@@XZ 004a1b80 f i ToolkitPro1501vc60S:XTPCommandBars.obj
 0001:000a0bb0       ?GetKeyboardTip@CXTPControl@@QBE?AVCString@@XZ 004a1bb0 f i ToolkitPro1501vc60S:XTPCommandBars.obj
 0001:000a0c80       ?GetKeyboardTip@CXTPControlAction@@QBE?AVCString@@XZ 004a1c80 f i ToolkitPro1501vc60S:XTPCommandBars.obj
 0001:000a0ca0       ?CreateKeyboardTips@CXTPCommandBars@@UAEXPAVCXTPCommandBar@@@Z 004a1ca0 f   ToolkitPro1501vc60S:XTPCommandBars.obj
 0001:000a0cb0       ?ShowKeyboardTips@CXTPCommandBars@@QAEXPAVCXTPCommandBar@@H@Z 004a1cb0 f   ToolkitPro1501vc60S:XTPCommandBars.obj
 0001:000a13b0       ?HideKeyboardTips@CXTPCommandBars@@QAEXXZ 004a23b0 f   ToolkitPro1501vc60S:XTPCommandBars.obj
 0001:000a1410       ?ShowKeyboardCues@CXTPCommandBars@@QAEXH@Z 004a2410 f   ToolkitPro1501vc60S:XTPCommandBars.obj
 0001:000a1440       ?OnTrackingModeChanged@CXTPCommandBars@@MAEXPAVCXTPCommandBar@@H@Z 004a2440 f   ToolkitPro1501vc60S:XTPCommandBars.obj
 0001:000a14e0       ?GetMouseManager@CXTPCommandBars@@QBEPAVCXTPMouseManager@@XZ 004a24e0 f   ToolkitPro1501vc60S:XTPCommandBars.obj
 0001:000a1520       ?GetKeyboardManager@CXTPCommandBars@@QBEPAVCXTPKeyboardManager@@XZ 004a2520 f   ToolkitPro1501vc60S:XTPCommandBars.obj
 0001:000a1560       ?_GetNextControl@CXTPCommandBars@@IBEPAVCXTPControl@@AAPAVCXTPControls@@H@Z 004a2560 f   ToolkitPro1501vc60S:XTPCommandBars.obj
 0001:000a1630       ?FindAccel@CXTPCommandBars@@IBEPAVCXTPControl@@PAVCXTPCommandBar@@IAAH@Z 004a2630 f   ToolkitPro1501vc60S:XTPCommandBars.obj
 0001:000a1860       ?ClosePopups@CXTPCommandBars@@QBEXXZ 004a2860 f   ToolkitPro1501vc60S:XTPCommandBars.obj
 0001:000a1890       ?OnFrameAccel@CXTPCommandBars@@QAEHI@Z 004a2890 f   ToolkitPro1501vc60S:XTPCommandBars.obj
 0001:000a19f0       ?PreTranslateFrameMessage@CXTPCommandBars@@QAEHPAUtagMSG@@@Z 004a29f0 f   ToolkitPro1501vc60S:XTPCommandBars.obj
 0001:000a1bf0       ?OnFrameWndMsg@CXTPCommandBars@@QAEHIIJPAJ@Z 004a2bf0 f   ToolkitPro1501vc60S:XTPCommandBars.obj
 0001:000a1e00       ?IsLayoutRTL@CXTPCommandBars@@QBEHXZ 004a2e00 f   ToolkitPro1501vc60S:XTPCommandBars.obj
 0001:000a1e30       ?PumpMessage@CXTPPopupBar@@QAEXXZ 004a2e30 f   ToolkitPro1501vc60S:XTPCommandBars.obj
 0001:000a1f40       ?TrackPopupMenu@CXTPCommandBars@@SAHPAVCXTPPopupBar@@IHHPAVCWnd@@PBUtagRECT@@1@Z 004a2f40 f   ToolkitPro1501vc60S:XTPCommandBars.obj
 0001:000a20b0       ?TrackPopupMenu@CXTPCommandBars@@SAHPAVCMenu@@IHHPAVCWnd@@PBUtagRECT@@1PAV1@@Z 004a30b0 f   ToolkitPro1501vc60S:XTPCommandBars.obj
 0001:000a2160       ?GetToolbarsPopup@CXTPCommandBars@@UAEPAVCXTPPopupBar@@XZ 004a3160 f   ToolkitPro1501vc60S:XTPCommandBars.obj
 0001:000a2190       ?ContextMenu@CXTPCommandBars@@UAEXPAVCXTPToolBar@@VCPoint@@@Z 004a3190 f   ToolkitPro1501vc60S:XTPCommandBars.obj
 0001:000a2210       ?GetPane@CXTPStatusBar@@QBEPAVCXTPStatusBarPane@@H@Z 004a3210 f   ToolkitPro1501vc60S:XTPCommandBars.obj
 0001:000a2210       ?GetAt@CXTPCommandBars@@QBEPAVCXTPToolBar@@H@Z 004a3210 f   ToolkitPro1501vc60S:XTPCommandBars.obj
 0001:000a2230       ?ToggleVisible@CXTPCommandBars@@QAEXH@Z 004a3230 f   ToolkitPro1501vc60S:XTPCommandBars.obj
 0001:000a2280       ?GetToolBar@CXTPCommandBars@@QBEPAVCXTPToolBar@@I@Z 004a3280 f   ToolkitPro1501vc60S:XTPCommandBars.obj
 0001:000a22c0       ?_GetHiddenControls@CXTPToolBar@@AAEXPAVCXTPCommandBar@@@Z 004a32c0 f   ToolkitPro1501vc60S:XTPCommandBars.obj
 0001:000a2320       ?GetHiddenControls@CXTPCommandBars@@UAEXPAVCXTPToolBar@@PAVCXTPCommandBar@@@Z 004a3320 f   ToolkitPro1501vc60S:XTPCommandBars.obj
 0001:000a23e0       ?_GetAddOrRemovePopup@CXTPCommandBars@@IAEXPAVCXTPToolBar@@PAVCXTPCommandBar@@@Z 004a33e0 f   ToolkitPro1501vc60S:XTPCommandBars.obj
 0001:000a24e0       ?GetAddOrRemovePopup@CXTPCommandBars@@UAEXPAVCXTPToolBar@@PAVCXTPCommandBar@@@Z 004a34e0 f   ToolkitPro1501vc60S:XTPCommandBars.obj
 0001:000a25f0       ?SetQuickCustomizeMode@CXTPCommandBars@@QAEXH@Z 004a35f0 f   ToolkitPro1501vc60S:XTPCommandBars.obj
 0001:000a2620       ?SetCustomizeMode@CXTPCommandBars@@QAEXH@Z 004a3620 f   ToolkitPro1501vc60S:XTPCommandBars.obj
 0001:000a26a0       ?SetDragControl@CXTPCommandBars@@QAEXPAVCCmdTarget@@@Z 004a36a0 f   ToolkitPro1501vc60S:XTPCommandBars.obj
 0001:000a2730       ?RemoveAll@CXTPCommandBars@@QAEXXZ 004a3730 f   ToolkitPro1501vc60S:XTPCommandBars.obj
 0001:000a27e0       ?Remove@CXTPCommandBars@@QAEXPAVCXTPToolBar@@@Z 004a37e0 f   ToolkitPro1501vc60S:XTPCommandBars.obj
 0001:000a2890       ?SetSite@CXTPCommandBars@@QAEXPAVCWnd@@@Z 004a3890 f   ToolkitPro1501vc60S:XTPCommandBars.obj
 0001:000a28f0       ?IsControlHidden@CXTPCommandBars@@UAEHPAVCXTPControl@@@Z 004a38f0 f   ToolkitPro1501vc60S:XTPCommandBars.obj
 0001:000a2990       ?IsCommandHidden@CXTPCommandBars@@UAEHI@Z 004a3990 f   ToolkitPro1501vc60S:XTPCommandBars.obj
 0001:000a2a20       ?SetCommandUsed@CXTPCommandBars@@QAEXI@Z 004a3a20 f   ToolkitPro1501vc60S:XTPCommandBars.obj
 0001:000a2b30       ?ResetUsageData@CXTPCommandBars@@QAEXXZ 004a3b30 f   ToolkitPro1501vc60S:XTPCommandBars.obj
 0001:000a2ba0       ?PX_UintMap@@YAXPAVCXTPPropExchange@@PBDAAV?$CMap@IIHH@@@Z 004a3ba0 f   ToolkitPro1501vc60S:XTPCommandBars.obj
 0001:000a2e30       ??1CXTPPropExchangeSection@@QAE@XZ 004a3e30 f i ToolkitPro1501vc60S:XTPCommandBars.obj
 0001:000a2e40       ?DoPropExchange@CXTPCommandBarsOptions@@QAEXPAVCXTPPropExchange@@H@Z 004a3e40 f   ToolkitPro1501vc60S:XTPCommandBars.obj
 0001:000a30d0       ?Serialize@CXTPCommandBarsOptions@@UAEXAAVCArchive@@@Z 004a40d0 f   ToolkitPro1501vc60S:XTPCommandBars.obj
 0001:000a3140       ??1CXTPPropExchangeArchive@@UAE@XZ 004a4140 f i ToolkitPro1501vc60S:XTPCommandBars.obj
 0001:000a3150       ?SaveOptions@CXTPCommandBars@@QAEXPBD@Z 004a4150 f   ToolkitPro1501vc60S:XTPCommandBars.obj
 0001:000a3280       ?LoadOptions@CXTPCommandBars@@QAEXPBD@Z 004a4280 f   ToolkitPro1501vc60S:XTPCommandBars.obj
 0001:000a33a0       ?SetTheme@CXTPCommandBars@@QAEXW4XTPPaintTheme@@@Z 004a43a0 f   ToolkitPro1501vc60S:XTPCommandBars.obj
 0001:000a33c0       ?SetPaintManager@CXTPCommandBars@@QAEXPAVCXTPPaintManager@@@Z 004a43c0 f   ToolkitPro1501vc60S:XTPCommandBars.obj
 0001:000a3430       ?GetPaintManager@CXTPCommandBars@@QBEPAVCXTPPaintManager@@XZ 004a4430 f   ToolkitPro1501vc60S:XTPCommandBars.obj
 0001:000a3450       ?GetImageManager@CXTPCommandBars@@QBEPAVCXTPImageManager@@XZ 004a4450 f   ToolkitPro1501vc60S:XTPCommandBars.obj
 0001:000a3460       ?FindDocTemplate@CXTPCommandBars@@IAEPAVCDocTemplate@@PAVCMDIChildWnd@@@Z 004a4460 f   ToolkitPro1501vc60S:XTPCommandBars.obj
 0001:000a34f0       ?GetActiveDocTemplate@CXTPCommandBars@@UAEIXZ 004a44f0 f   ToolkitPro1501vc60S:XTPCommandBars.obj
 0001:000a3560       ?OnSetPreviewMode@CXTPCommandBars@@QAEXH@Z 004a4560 f   ToolkitPro1501vc60S:XTPCommandBars.obj
 0001:000a35b0       ?GetToolTipContext@CXTPCommandBars@@QBEPAVCXTPToolTipContext@@XZ 004a45b0 f   ToolkitPro1501vc60S:XTPCommandBars.obj
 0001:000a35c0       ?FindIndex@CXTPCommandBars@@QBEHPAVCXTPToolBar@@@Z 004a45c0 f   ToolkitPro1501vc60S:XTPCommandBars.obj
 0001:000a3600       ?GetNextVisible@CXTPCommandBars@@IBEHJH@Z 004a4600 f   ToolkitPro1501vc60S:XTPCommandBars.obj
 0001:000a36a0       ?SetToolBarFocus@CXTPCommandBars@@QAEHPAVCXTPToolBar@@H@Z 004a46a0 f   ToolkitPro1501vc60S:XTPCommandBars.obj
 0001:000a3760       ?CreateObject@?$CThreadLocal@VCXTPKeyboardManager@@@@SGPAVCNoTrackObject@@XZ 004a4760 f i ToolkitPro1501vc60S:XTPCommandBars.obj
 0001:000a37c0       ?CreateObject@?$CThreadLocal@VCXTPMouseManager@@@@SGPAVCNoTrackObject@@XZ 004a47c0 f i ToolkitPro1501vc60S:XTPCommandBars.obj
 0001:000a3820       ??1?$CArray@PAVCXTPToolBar@@PAV1@@@UAE@XZ 004a4820 f i ToolkitPro1501vc60S:XTPCommandBars.obj
 0001:000a3870       ?Serialize@?$CArray@PAVCButton@@PAV1@@@UAEXAAVCArchive@@@Z 004a4870 f i ToolkitPro1501vc60S:XTPCommandBars.obj
 0001:000a3870       ?Serialize@?$CArray@PAVCXTPPropertyPage@@PAV1@@@UAEXAAVCArchive@@@Z 004a4870 f i ToolkitPro1501vc60S:XTPCommandBars.obj
 0001:000a3870       ?Serialize@?$CArray@PAVCXTPRibbonTabContextHeader@@PAV1@@@UAEXAAVCArchive@@@Z 004a4870 f i ToolkitPro1501vc60S:XTPCommandBars.obj
 0001:000a3870       ?Serialize@?$CArray@PAVCXTPTabManagerAtom@@PAV1@@@UAEXAAVCArchive@@@Z 004a4870 f i ToolkitPro1501vc60S:XTPCommandBars.obj
 0001:000a3870       ?Serialize@?$CArray@PAUXTP_IMAGERESOURCE_INFO@@PAU1@@@UAEXAAVCArchive@@@Z 004a4870 f i ToolkitPro1501vc60S:XTPCommandBars.obj
 0001:000a3870       ?Serialize@?$CArray@PAVCToolBarInfo@CXTPToolBar@@PAV12@@@UAEXAAVCArchive@@@Z 004a4870 f i ToolkitPro1501vc60S:XTPCommandBars.obj
 0001:000a3870       ?Serialize@?$CArray@PAVCXTPControl@@PAV1@@@UAEXAAVCArchive@@@Z 004a4870 f i ToolkitPro1501vc60S:XTPCommandBars.obj
 0001:000a3870       ?Serialize@?$CArray@PAVCXTPHookManagerHookAble@@PAV1@@@UAEXAAVCArchive@@@Z 004a4870 f i ToolkitPro1501vc60S:XTPCommandBars.obj
 0001:000a3870       ?Serialize@?$CArray@PAVCXTPShortcutManagerAccel@@PAV1@@@UAEXAAVCArchive@@@Z 004a4870 f i ToolkitPro1501vc60S:XTPCommandBars.obj
 0001:000a3870       ?Serialize@?$CArray@PAVCXTPMarkupObject@@PAV1@@@UAEXAAVCArchive@@@Z 004a4870 f i ToolkitPro1501vc60S:XTPCommandBars.obj
 0001:000a3870       ?Serialize@?$CArray@PAVCXTPTabManagerNavigateButton@@PAV1@@@UAEXAAVCArchive@@@Z 004a4870 f i ToolkitPro1501vc60S:XTPCommandBars.obj
 0001:000a3870       ?Serialize@?$CArray@PAVCXTPRibbonGroup@@PAV1@@@UAEXAAVCArchive@@@Z 004a4870 f i ToolkitPro1501vc60S:XTPCommandBars.obj
 0001:000a3870       ?Serialize@?$CArray@PAVCXTPToolBar@@PAV1@@@UAEXAAVCArchive@@@Z 004a4870 f i ToolkitPro1501vc60S:XTPCommandBars.obj
 0001:000a3870       ?Serialize@?$CArray@PAVCXTPTabManagerItem@@PAV1@@@UAEXAAVCArchive@@@Z 004a4870 f i ToolkitPro1501vc60S:XTPCommandBars.obj
 0001:000a3870       ?Serialize@?$CArray@PAVCXTPImageManagerImageList@@PAV1@@@UAEXAAVCArchive@@@Z 004a4870 f i ToolkitPro1501vc60S:XTPCommandBars.obj
 0001:000a3870       ?Serialize@?$CArray@PAUXTP_COMMANDBARS_CATEGORYINFO@@PAU1@@@UAEXAAVCArchive@@@Z 004a4870 f i ToolkitPro1501vc60S:XTPCommandBars.obj
 0001:000a3870       ?Serialize@?$CArray@PAUTOOLITEM@CXTPToolTipContextToolTip@@PAU12@@@UAEXAAVCArchive@@@Z 004a4870 f i ToolkitPro1501vc60S:XTPCommandBars.obj
 0001:000a3870       ?Serialize@?$CArray@PAUHWND__@@PAU1@@@UAEXAAVCArchive@@@Z 004a4870 f i ToolkitPro1501vc60S:XTPCommandBars.obj
 0001:000a3870       ?Serialize@?$CArray@PAUCAnimateInfo@CXTPCommandBarAnimation@@PAU12@@@UAEXAAVCArchive@@@Z 004a4870 f i ToolkitPro1501vc60S:XTPCommandBars.obj
 0001:000a3870       ?Serialize@?$CArray@PAVCXTPDockingPaneSidePanel@@PAV1@@@UAEXAAVCArchive@@@Z 004a4870 f i ToolkitPro1501vc60S:XTPCommandBars.obj
 0001:000a3870       ?Serialize@?$CArray@PAVCXTPControlAction@@PAV1@@@UAEXAAVCArchive@@@Z 004a4870 f i ToolkitPro1501vc60S:XTPCommandBars.obj
 0001:000a3870       ?Serialize@?$CArray@PAVCXTPCommandBar@@PAV1@@@UAEXAAVCArchive@@@Z 004a4870 f i ToolkitPro1501vc60S:XTPCommandBars.obj
 0001:000a3870       ?Serialize@?$CArray@PAVCXTPResizeItem@@AAPAV1@@@UAEXAAVCArchive@@@Z 004a4870 f i ToolkitPro1501vc60S:XTPCommandBars.obj
 0001:000a3870       ?Serialize@?$CArray@PAVCXTPDockingPaneCaptionButton@@PAV1@@@UAEXAAVCArchive@@@Z 004a4870 f i ToolkitPro1501vc60S:XTPCommandBars.obj
 0001:000a3870       ?Serialize@?$CArray@PAVCXTPCommandBarKeyboardTip@@PAV1@@@UAEXAAVCArchive@@@Z 004a4870 f i ToolkitPro1501vc60S:XTPCommandBars.obj
 0001:000a3870       ?Serialize@?$CArray@PAUHKL__@@AAPAU1@@@UAEXAAVCArchive@@@Z 004a4870 f i ToolkitPro1501vc60S:XTPCommandBars.obj
 0001:000a3870       ?Serialize@?$CArray@MAAM@@UAEXAAVCArchive@@@Z 004a4870 f i ToolkitPro1501vc60S:XTPCommandBars.obj
 0001:000a3870       ?Serialize@?$CArray@PAUCItem@CXTPDockingPaneWindowSelect@@PAU12@@@UAEXAAVCArchive@@@Z 004a4870 f i ToolkitPro1501vc60S:XTPCommandBars.obj
 0001:000a3870       ?Serialize@?$CArray@PAVCXTPStatusBarPane@@PAV1@@@UAEXAAVCArchive@@@Z 004a4870 f i ToolkitPro1501vc60S:XTPCommandBars.obj
 0001:000a3870       ?Serialize@?$CArray@PAVCAutoHidePanelTabManager@CXTPDockingPaneAutoHidePanel@@PAV12@@@UAEXAAVCArchive@@@Z 004a4870 f i ToolkitPro1501vc60S:XTPCommandBars.obj
 0001:000a3a00       ??1?$CMap@IIHH@@UAE@XZ     004a4a00 f i ToolkitPro1501vc60S:XTPCommandBars.obj
 0001:000a3a80       ?Serialize@?$CMap@KKPAVCXTPImageManagerResource@@PAV1@@@UAEXAAVCArchive@@@Z 004a4a80 f i ToolkitPro1501vc60S:XTPCommandBars.obj
 0001:000a3a80       ?Serialize@?$CMap@PAUHWND__@@PAU1@PAXPAX@@UAEXAAVCArchive@@@Z 004a4a80 f i ToolkitPro1501vc60S:XTPCommandBars.obj
 0001:000a3a80       ?Serialize@?$CMap@IIPAVCXTPResourceImage@@PAV1@@@UAEXAAVCArchive@@@Z 004a4a80 f i ToolkitPro1501vc60S:XTPCommandBars.obj
 0001:000a3a80       ?Serialize@?$CMap@IIPAVCXTPImageManagerIcon@@PAV1@@@UAEXAAVCArchive@@@Z 004a4a80 f i ToolkitPro1501vc60S:XTPCommandBars.obj
 0001:000a3a80       ?Serialize@?$CMap@IIPAVCXTPMenuBarMDIMenuInfo@@PAV1@@@UAEXAAVCArchive@@@Z 004a4a80 f i ToolkitPro1501vc60S:XTPCommandBars.obj
 0001:000a3a80       ?Serialize@?$CMap@IIHH@@UAEXAAVCArchive@@@Z 004a4a80 f i ToolkitPro1501vc60S:XTPCommandBars.obj
 0001:000a3a80       ?Serialize@?$CMap@PAUHWND__@@PAU1@PAVCXTPDockingPaneManager@@PAV2@@@UAEXAAVCArchive@@@Z 004a4a80 f i ToolkitPro1501vc60S:XTPCommandBars.obj
 0001:000a3a80       ?Serialize@?$CMap@PAVCXTPMarkupRoutedEvent@@PAV1@PAVCPtrList@@PAV2@@@UAEXAAVCArchive@@@Z 004a4a80 f i ToolkitPro1501vc60S:XTPCommandBars.obj
 0001:000a3a80       ?Serialize@?$CMap@PAVCXTPMarkupDependencyProperty@@PAV1@PAVCXTPMarkupObject@@PAV2@@@UAEXAAVCArchive@@@Z 004a4a80 f i ToolkitPro1501vc60S:XTPCommandBars.obj
 0001:000a3a80       ?Serialize@?$CMap@IIPAVCXTPImageManagerIconSet@@PAV1@@@UAEXAAVCArchive@@@Z 004a4a80 f i ToolkitPro1501vc60S:XTPCommandBars.obj
 0001:000a3a80       ?Serialize@?$CMap@HHPAVCXTPDockingPaneBase@@PAV1@@@UAEXAAVCArchive@@@Z 004a4a80 f i ToolkitPro1501vc60S:XTPCommandBars.obj
 0001:000a3a80       ?Serialize@?$CMap@IIPAVCRgn@@PAV1@@@UAEXAAVCArchive@@@Z 004a4a80 f i ToolkitPro1501vc60S:XTPCommandBars.obj
 0001:000a3c90       ??1?$CArray@PAVCXTPCommandBarKeyboardTip@@PAV1@@@UAE@XZ 004a4c90 f i ToolkitPro1501vc60S:XTPCommandBars.obj
 0001:000a3ce0       ??_E?$CArray@PAVCXTPToolBar@@PAV1@@@UAEPAXI@Z 004a4ce0 f i ToolkitPro1501vc60S:XTPCommandBars.obj
 0001:000a3ce0       ??_G?$CArray@PAVCXTPToolBar@@PAV1@@@UAEPAXI@Z 004a4ce0 f i ToolkitPro1501vc60S:XTPCommandBars.obj
 0001:000a3d00       ??_G?$CArray@PAVCXTPCommandBar@@PAV1@@@UAEPAXI@Z 004a4d00 f i ToolkitPro1501vc60S:XTPCommandBars.obj
 0001:000a3d00       ??_E?$CArray@PAVCXTPCommandBar@@PAV1@@@UAEPAXI@Z 004a4d00 f i ToolkitPro1501vc60S:XTPCommandBars.obj
 0001:000a3d20       ??1?$CArray@PAVCXTPCommandBar@@PAV1@@@UAE@XZ 004a4d20 f i ToolkitPro1501vc60S:XTPCommandBars.obj
 0001:000a3d70       ??_E?$CMap@IIHH@@UAEPAXI@Z 004a4d70 f i ToolkitPro1501vc60S:XTPCommandBars.obj
 0001:000a3d70       ??_G?$CMap@IIHH@@UAEPAXI@Z 004a4d70 f i ToolkitPro1501vc60S:XTPCommandBars.obj
 0001:000a3d90       ??_E?$CArray@PAVCXTPCommandBarKeyboardTip@@PAV1@@@UAEPAXI@Z 004a4d90 f i ToolkitPro1501vc60S:XTPCommandBars.obj
 0001:000a3d90       ??_G?$CArray@PAVCXTPCommandBarKeyboardTip@@PAV1@@@UAEPAXI@Z 004a4d90 f i ToolkitPro1501vc60S:XTPCommandBars.obj
 0001:000a3db0       ?SetSize@?$CArray@PAVCXTPToolBar@@PAV1@@@QAEXHH@Z 004a4db0 f i ToolkitPro1501vc60S:XTPCommandBars.obj
 0001:000a3db0       ?SetSize@?$CArray@PAUCAnimateInfo@CXTPCommandBarAnimation@@PAU12@@@QAEXHH@Z 004a4db0 f i ToolkitPro1501vc60S:XTPCommandBars.obj
 0001:000a3db0       ?SetSize@?$CArray@PAVCXTPCommandBarKeyboardTip@@PAV1@@@QAEXHH@Z 004a4db0 f i ToolkitPro1501vc60S:XTPCommandBars.obj
 0001:000a3db0       ?SetSize@?$CArray@PAVCXTPTabManagerItem@@PAV1@@@QAEXHH@Z 004a4db0 f i ToolkitPro1501vc60S:XTPCommandBars.obj
 0001:000a3db0       ?SetSize@?$CArray@PAVCXTPControl@@PAV1@@@QAEXHH@Z 004a4db0 f i ToolkitPro1501vc60S:XTPCommandBars.obj
 0001:000a3db0       ?SetSize@?$CArray@PAUHWND__@@PAU1@@@QAEXHH@Z 004a4db0 f i ToolkitPro1501vc60S:XTPCommandBars.obj
 0001:000a3db0       ?SetSize@?$CArray@PAUXTP_COMMANDBARS_CATEGORYINFO@@PAU1@@@QAEXHH@Z 004a4db0 f i ToolkitPro1501vc60S:XTPCommandBars.obj
 0001:000a3db0       ?SetSize@?$CArray@PAUTOOLITEM@CXTPToolTipContextToolTip@@PAU12@@@QAEXHH@Z 004a4db0 f i ToolkitPro1501vc60S:XTPCommandBars.obj
 0001:000a3db0       ?SetSize@?$CArray@PAVCXTPRibbonGroup@@PAV1@@@QAEXHH@Z 004a4db0 f i ToolkitPro1501vc60S:XTPCommandBars.obj
 0001:000a3db0       ?SetSize@?$CArray@PAVCXTPDockingPaneSidePanel@@PAV1@@@QAEXHH@Z 004a4db0 f i ToolkitPro1501vc60S:XTPCommandBars.obj
 0001:000a3db0       ?SetSize@?$CArray@PAVCXTPDockingPaneCaptionButton@@PAV1@@@QAEXHH@Z 004a4db0 f i ToolkitPro1501vc60S:XTPCommandBars.obj
 0001:000a3db0       ?SetSize@?$CArray@PAVCXTPPropertyPage@@PAV1@@@QAEXHH@Z 004a4db0 f i ToolkitPro1501vc60S:XTPCommandBars.obj
 0001:000a3db0       ?SetSize@?$CArray@PAUCItem@CXTPDockingPaneWindowSelect@@PAU12@@@QAEXHH@Z 004a4db0 f i ToolkitPro1501vc60S:XTPCommandBars.obj
 0001:000a3db0       ?SetSize@?$CArray@PAUXTP_IMAGERESOURCE_INFO@@PAU1@@@QAEXHH@Z 004a4db0 f i ToolkitPro1501vc60S:XTPCommandBars.obj
 0001:000a3db0       ?SetSize@?$CArray@PAVCXTPImageManagerImageList@@PAV1@@@QAEXHH@Z 004a4db0 f i ToolkitPro1501vc60S:XTPCommandBars.obj
 0001:000a3db0       ?SetSize@?$CArray@PAVCAutoHidePanelTabManager@CXTPDockingPaneAutoHidePanel@@PAV12@@@QAEXHH@Z 004a4db0 f i ToolkitPro1501vc60S:XTPCommandBars.obj
 0001:000a3db0       ?SetSize@?$CArray@PAVCXTPMarkupObject@@PAV1@@@QAEXHH@Z 004a4db0 f i ToolkitPro1501vc60S:XTPCommandBars.obj
 0001:000a3db0       ?SetSize@?$CArray@PAVCXTPTabManagerNavigateButton@@PAV1@@@QAEXHH@Z 004a4db0 f i ToolkitPro1501vc60S:XTPCommandBars.obj
 0001:000a3db0       ?SetSize@?$CArray@PAVCXTPControlAction@@PAV1@@@QAEXHH@Z 004a4db0 f i ToolkitPro1501vc60S:XTPCommandBars.obj
 0001:000a3db0       ?SetSize@?$CArray@PAVCXTPHookManagerHookAble@@PAV1@@@QAEXHH@Z 004a4db0 f i ToolkitPro1501vc60S:XTPCommandBars.obj
 0001:000a3ef0       ?InitHashTable@?$CMap@HHPAVCXTPDockingPaneBase@@PAV1@@@QAEXIH@Z 004a4ef0 f i ToolkitPro1501vc60S:XTPCommandBars.obj
 0001:000a3ef0       ?InitHashTable@?$CMap@IIHH@@QAEXIH@Z 004a4ef0 f i ToolkitPro1501vc60S:XTPCommandBars.obj
 0001:000a3ef0       ?InitHashTable@?$CMap@PAVCXTPMarkupDependencyProperty@@PAV1@PAVCXTPMarkupObject@@PAV2@@@QAEXIH@Z 004a4ef0 f i ToolkitPro1501vc60S:XTPCommandBars.obj
 0001:000a3ef0       ?InitHashTable@?$CMap@IIPAVCXTPImageManagerIcon@@PAV1@@@QAEXIH@Z 004a4ef0 f i ToolkitPro1501vc60S:XTPCommandBars.obj
 0001:000a3ef0       ?InitHashTable@?$CMap@PAUHWND__@@PAU1@PAVCXTPDockingPaneManager@@PAV2@@@QAEXIH@Z 004a4ef0 f i ToolkitPro1501vc60S:XTPCommandBars.obj
 0001:000a3f60       ??0CXTPHeaderCtrl@@QAE@XZ  004a4f60 f   ToolkitPro1501vc60S:XTPHeaderCtrl.obj
 0001:000a4020       ??_ECXTPHeaderCtrl@@UAEPAXI@Z 004a5020 f i ToolkitPro1501vc60S:XTPHeaderCtrl.obj
 0001:000a4020       ??_GCXTPHeaderCtrl@@UAEPAXI@Z 004a5020 f i ToolkitPro1501vc60S:XTPHeaderCtrl.obj
 0001:000a4040       ??1CXTPHeaderCtrl@@UAE@XZ  004a5040 f   ToolkitPro1501vc60S:XTPHeaderCtrl.obj
 0001:000a4100       ?GetMessageMap@CXTPHeaderCtrl@@MBEPBUAFX_MSGMAP@@XZ 004a5100 f   ToolkitPro1501vc60S:XTPHeaderCtrl.obj
 0001:000a4110       ?GetRuntimeClass@CXTPHeaderCtrl@@UBEPAUCRuntimeClass@@XZ 004a5110 f   ToolkitPro1501vc60S:XTPHeaderCtrl.obj
 0001:000a4120       ?OnThemeChanged@CXTPHeaderCtrl@@UAEXXZ 004a5120 f   ToolkitPro1501vc60S:XTPHeaderCtrl.obj
 0001:000a4130       ?IsThemeValid@CXTPHeaderCtrl@@QBEHXZ 004a5130 f   ToolkitPro1501vc60S:XTPHeaderCtrl.obj
 0001:000a4140       ?ApplyFieldWidths@CXTPHeaderCtrl@@MAEXH@Z 004a5140 f   ToolkitPro1501vc60S:XTPHeaderCtrl.obj
 0001:000a41d0       ?FitFieldWidths@CXTPHeaderCtrl@@MAEXH@Z 004a51d0 f   ToolkitPro1501vc60S:XTPHeaderCtrl.obj
 0001:000a4240       ?OnWindowPosChanging@CXTPHeaderCtrl@@IAEXPAUtagWINDOWPOS@@@Z 004a5240 f   ToolkitPro1501vc60S:XTPHeaderCtrl.obj
 0001:000a42d0       ?OnSetCursor@CXTPHeaderCtrl@@IAEHPAVCWnd@@II@Z 004a52d0 f   ToolkitPro1501vc60S:XTPHeaderCtrl.obj
 0001:000a4400       ?OnItemchanging@CXTPHeaderCtrl@@IAEHPAUtagNMHDR@@PAJ@Z 004a5400 f   ToolkitPro1501vc60S:XTPHeaderCtrl.obj
 0001:000a4460       ?IsColFrozen@CXTPHeaderCtrl@@QAE_NH@Z 004a5460 f   ToolkitPro1501vc60S:XTPHeaderCtrl.obj
 0001:000a4480       ?DetermineRTL@CXTPHeaderCtrl@@MAE_NXZ 004a5480 f   ToolkitPro1501vc60S:XTPHeaderCtrl.obj
 0001:000a4500       ?GetFrozenColWidth@CXTPHeaderCtrl@@MAEHXZ 004a5500 f   ToolkitPro1501vc60S:XTPHeaderCtrl.obj
 0001:000a4560       ?OnPaint@CXTPHeaderCtrl@@IAEXXZ 004a5560 f   ToolkitPro1501vc60S:XTPHeaderCtrl.obj
 0001:000a4620       ?OnPrintClient@CXTPHeaderCtrl@@IAEJIJ@Z 004a5620 f   ToolkitPro1501vc60S:XTPHeaderCtrl.obj
 0001:000a4670       ?OnLButtonDown@CXTPHeaderCtrl@@IAEXIVCPoint@@@Z 004a5670 f   ToolkitPro1501vc60S:XTPHeaderCtrl.obj
 0001:000a4680       ?OnLButtonUp@CXTPHeaderCtrl@@IAEXIVCPoint@@@Z 004a5680 f   ToolkitPro1501vc60S:XTPHeaderCtrl.obj
 0001:000a4690       ?OnMouseMove@CXTPHeaderCtrl@@IAEXIVCPoint@@@Z 004a5690 f   ToolkitPro1501vc60S:XTPHeaderCtrl.obj
 0001:000a46d0       ?HitTest@CXTPHeaderCtrl@@QBEHVCPoint@@PAI@Z 004a56d0 f   ToolkitPro1501vc60S:XTPHeaderCtrl.obj
 0001:000a4710       ?ItemPressed@CXTPHeaderCtrl@@UAEHH@Z 004a5710 f   ToolkitPro1501vc60S:XTPHeaderCtrl.obj
 0001:000a4780       ?OnTimer@CXTPHeaderCtrl@@IAEXI@Z 004a5780 f   ToolkitPro1501vc60S:XTPHeaderCtrl.obj
 0001:000a4840       ?OnLayout@CXTPHeaderCtrl@@IAEJIJ@Z 004a5840 f   ToolkitPro1501vc60S:XTPHeaderCtrl.obj
 0001:000a4880       ?SetSortImage@CXTPHeaderCtrl@@QAEHHH@Z 004a5880 f   ToolkitPro1501vc60S:XTPHeaderCtrl.obj
 0001:000a48b0       ?GetSortedCol@CXTPHeaderCtrl@@QAEHPAH@Z 004a58b0 f   ToolkitPro1501vc60S:XTPHeaderCtrl.obj
 0001:000a48d0       ?RecalcLayout@CXTPHeaderCtrl@@QAEHXZ 004a58d0 f   ToolkitPro1501vc60S:XTPHeaderCtrl.obj
 0001:000a49e0       ?OnDestroy@CXTPHeaderCtrl@@IAEXXZ 004a59e0 f   ToolkitPro1501vc60S:XTPHeaderCtrl.obj
 0001:000a4a10       ?InitializeHeader@CXTPHeaderCtrl@@UAEXH@Z 004a5a10 f   ToolkitPro1501vc60S:XTPHeaderCtrl.obj
 0001:000a4a60       ?OnWndMsg@CXTPHeaderCtrl@@MAEHIIJPAJ@Z 004a5a60 f   ToolkitPro1501vc60S:XTPHeaderCtrl.obj
 0001:000a4aa0       ?OnRButtonDown@CXTPHeaderCtrl@@IAEXIVCPoint@@@Z 004a5aa0 f   ToolkitPro1501vc60S:XTPHeaderCtrl.obj
 0001:000a4d60       ?SetMenuID@CXTPHeaderCtrl@@UAEXIH@Z 004a5d60 f   ToolkitPro1501vc60S:XTPHeaderCtrl.obj
 0001:000a4d80       ?SendNotify@CXTPHeaderCtrl@@IAEXH@Z 004a5d80 f   ToolkitPro1501vc60S:XTPHeaderCtrl.obj
 0001:000a4e80       ?OnSortAsc@CXTPHeaderCtrl@@IAEXXZ 004a5e80 f   ToolkitPro1501vc60S:XTPHeaderCtrl.obj
 0001:000a4ec0       ?OnSortDsc@CXTPHeaderCtrl@@IAEXXZ 004a5ec0 f   ToolkitPro1501vc60S:XTPHeaderCtrl.obj
 0001:000a4f00       ?SetAlingment@CXTPHeaderCtrl@@UAEHH@Z 004a5f00 f   ToolkitPro1501vc60S:XTPHeaderCtrl.obj
 0001:000a4fc0       ?OnAlignLeft@CXTPHeaderCtrl@@IAEXXZ 004a5fc0 f   ToolkitPro1501vc60S:XTPHeaderCtrl.obj
 0001:000a4fd0       ?OnAlignCenter@CXTPHeaderCtrl@@IAEXXZ 004a5fd0 f   ToolkitPro1501vc60S:XTPHeaderCtrl.obj
 0001:000a4fe0       ?OnAlignRight@CXTPHeaderCtrl@@IAEXXZ 004a5fe0 f   ToolkitPro1501vc60S:XTPHeaderCtrl.obj
 0001:000a4ff0       ?HasSortArrow@CXTPHeaderCtrl@@QAEHXZ 004a5ff0 f   ToolkitPro1501vc60S:XTPHeaderCtrl.obj
 0001:000a5020       ?ShowSortArrow@CXTPHeaderCtrl@@UAEXH@Z 004a6020 f   ToolkitPro1501vc60S:XTPHeaderCtrl.obj
 0001:000a5060       ?SetFontBold@CXTPHeaderCtrl@@UAEXH@Z 004a6060 f   ToolkitPro1501vc60S:XTPHeaderCtrl.obj
 0001:000a50b0       ?RefreshMetrics@CXTPHeaderCtrl@@MAEXXZ 004a60b0 f   ToolkitPro1501vc60S:XTPHeaderCtrl.obj
 0001:000a50f0       ?SetTheme@CXTPHeaderCtrl@@QAEHPAVCXTPHeaderCtrlTheme@@@Z 004a60f0 f   ToolkitPro1501vc60S:XTPHeaderCtrl.obj
 0001:000a5140       ?SetTheme@CXTPHeaderCtrl@@QAEHW4XTPControlTheme@@@Z 004a6140 f   ToolkitPro1501vc60S:XTPHeaderCtrl.obj
 0001:000a5250       ?OnSetTheme@CXTPHeaderCtrl@@IAEJIJ@Z 004a6250 f   ToolkitPro1501vc60S:XTPHeaderCtrl.obj
 0001:000a5260       ??1?$CList@HAAH@@UAE@XZ    004a6260 f i ToolkitPro1501vc60S:XTPHeaderCtrl.obj
 0001:000a52c0       ?Serialize@?$CList@HAAH@@UAEXAAVCArchive@@@Z 004a62c0 f i ToolkitPro1501vc60S:XTPHeaderCtrl.obj
 0001:000a53d0       ??_G?$CList@HAAH@@UAEPAXI@Z 004a63d0 f i ToolkitPro1501vc60S:XTPHeaderCtrl.obj
 0001:000a53d0       ??_E?$CList@HAAH@@UAEPAXI@Z 004a63d0 f i ToolkitPro1501vc60S:XTPHeaderCtrl.obj
 0001:000a53f0       ?Compare@CXTPSortClass@@SGHJJJ@Z 004a63f0 f   ToolkitPro1501vc60S:XTPSortClass.obj
 0001:000a5490       ??0CXTPSortClass@@QAE@PAVCListCtrl@@HP6GHJJJ@Z@Z 004a6490 f   ToolkitPro1501vc60S:XTPSortClass.obj
 0001:000a55b0       ??_GCXTPSortClass@@UAEPAXI@Z 004a65b0 f i ToolkitPro1501vc60S:XTPSortClass.obj
 0001:000a55b0       ??_ECXTPSortClass@@UAEPAXI@Z 004a65b0 f i ToolkitPro1501vc60S:XTPSortClass.obj
 0001:000a55d0       ??1CXTPSortClass@@UAE@XZ   004a65d0 f   ToolkitPro1501vc60S:XTPSortClass.obj
 0001:000a5670       ?Sort@CXTPSortClass@@UAEX_NH@Z 004a6670 f   ToolkitPro1501vc60S:XTPSortClass.obj
 0001:000a56c0       ?SortInt@CXTPSortClass@@SAHPBD0F@Z 004a66c0 f   ToolkitPro1501vc60S:XTPSortClass.obj
 0001:000a57c0       ?SortString@CXTPSortClass@@SAHPBD0F@Z 004a67c0 f   ToolkitPro1501vc60S:XTPSortClass.obj
 0001:000a57e0       ?SortDateTime@CXTPSortClass@@SAHPBD0F@Z 004a67e0 f   ToolkitPro1501vc60S:XTPSortClass.obj
 0001:000a5890       ?SortDecimal@CXTPSortClass@@SAHPBD0F@Z 004a6890 f   ToolkitPro1501vc60S:XTPSortClass.obj
 0001:000a5900       ?RemoveNonNumeric@CXTPSortClass@@SAHAAVCString@@@Z 004a6900 f   ToolkitPro1501vc60S:XTPSortClass.obj
 0001:000a59a0       _compress2                 004a69a0 f   ToolkitPro1501vc60S:compress.obj
 0001:000a5a50       _compress                  004a6a50 f   ToolkitPro1501vc60S:compress.obj
 0001:000a5a70       _uncompress                004a6a70 f   ToolkitPro1501vc60S:uncompr.obj
 0001:000a5b20       ?CreateObject@CXTPFrameWnd@@SGPAVCObject@@XZ 004a6b20 f   ToolkitPro1501vc60S:XTPFrameWnd.obj
 0001:000a5b80       ?GetRuntimeClass@CXTPFrameWnd@@UBEPAUCRuntimeClass@@XZ 004a6b80 f   ToolkitPro1501vc60S:XTPFrameWnd.obj
 0001:000a5b90       ??0CXTPFrameWnd@@QAE@XZ    004a6b90 f   ToolkitPro1501vc60S:XTPFrameWnd.obj
 0001:000a5bb0       ??_GCXTPFrameWnd@@UAEPAXI@Z 004a6bb0 f i ToolkitPro1501vc60S:XTPFrameWnd.obj
 0001:000a5bb0       ??_ECXTPFrameWnd@@UAEPAXI@Z 004a6bb0 f i ToolkitPro1501vc60S:XTPFrameWnd.obj
 0001:000a5bd0       ?CreateObject@CXTPMDIFrameWnd@@SGPAVCObject@@XZ 004a6bd0 f   ToolkitPro1501vc60S:XTPFrameWnd.obj
 0001:000a5c30       ?GetRuntimeClass@CXTPMDIFrameWnd@@UBEPAUCRuntimeClass@@XZ 004a6c30 f   ToolkitPro1501vc60S:XTPFrameWnd.obj
 0001:000a5c40       ??0CXTPMDIFrameWnd@@QAE@XZ 004a6c40 f   ToolkitPro1501vc60S:XTPFrameWnd.obj
 0001:000a5c60       ?OnCmdMsg@CXTPMDIFrameWnd@@UAEHIHPAXPAUAFX_CMDHANDLERINFO@@@Z 004a6c60 f i ToolkitPro1501vc60S:XTPFrameWnd.obj
 0001:000a5cd0       ??_ECXTPMDIFrameWnd@@UAEPAXI@Z 004a6cd0 f i ToolkitPro1501vc60S:XTPFrameWnd.obj
 0001:000a5cd0       ??_GCXTPMDIFrameWnd@@UAEPAXI@Z 004a6cd0 f i ToolkitPro1501vc60S:XTPFrameWnd.obj
 0001:000a5cf0       ??1CXTPMDIFrameWnd@@UAE@XZ 004a6cf0 f i ToolkitPro1501vc60S:XTPFrameWnd.obj
 0001:000a5d60       ?LoadFrame@?$CXTPFrameWndBase@VCMDIFrameWnd@@@@UAEHIKPAVCWnd@@PAUCCreateContext@@@Z 004a6d60 f i ToolkitPro1501vc60S:XTPFrameWnd.obj
 0001:000a5db0       ?OnSetPreviewMode@?$CXTPFrameWndBase@VCMDIFrameWnd@@@@UAEXHPAUCPrintPreviewState@@@Z 004a6db0 f i ToolkitPro1501vc60S:XTPFrameWnd.obj
 0001:000a5de0       ?InitCommandBars@?$CXTPCommandBarsSiteBase@VCMDIFrameWnd@@@@UAEHPAUCRuntimeClass@@@Z 004a6de0 f i ToolkitPro1501vc60S:XTPFrameWnd.obj
 0001:000a5e30       ?SaveCommandBars@?$CXTPCommandBarsSiteBase@VCMDIFrameWnd@@@@UAEXPBD@Z 004a6e30 f i ToolkitPro1501vc60S:XTPFrameWnd.obj
 0001:000a5e70       ?LoadCommandBars@?$CXTPCommandBarsSiteBase@VCMDIFrameWnd@@@@UAEXPBDH@Z 004a6e70 f i ToolkitPro1501vc60S:XTPFrameWnd.obj
 0001:000a5ec0       ?PreTranslateMessage@?$CXTPCommandBarsSiteBase@VCMDIFrameWnd@@@@MAEHPAUtagMSG@@@Z 004a6ec0 f i ToolkitPro1501vc60S:XTPFrameWnd.obj
 0001:000a5f50       ?OnWndMsg@?$CXTPCommandBarsSiteBase@VCMDIFrameWnd@@@@MAEHIIJPAJ@Z 004a6f50 f i ToolkitPro1501vc60S:XTPFrameWnd.obj
 0001:000a5fa0       ??_G?$CXTPCommandBarsSiteBase@VCMDIFrameWnd@@@@UAEPAXI@Z 004a6fa0 f i ToolkitPro1501vc60S:XTPFrameWnd.obj
 0001:000a5fa0       ??_E?$CXTPCommandBarsSiteBase@VCMDIFrameWnd@@@@UAEPAXI@Z 004a6fa0 f i ToolkitPro1501vc60S:XTPFrameWnd.obj
 0001:000a5fc0       ??1?$CXTPCommandBarsSiteBase@VCMDIFrameWnd@@@@UAE@XZ 004a6fc0 f i ToolkitPro1501vc60S:XTPFrameWnd.obj
 0001:000a6030       ??1CMDIFrameWnd@@UAE@XZ    004a7030 f i ToolkitPro1501vc60S:XTPFrameWnd.obj
 0001:000a6040       ??0CXTPDockingPaneManager@@QAE@XZ 004a7040 f   ToolkitPro1501vc60S:XTPDockingPaneManager.obj
 0001:000a62f0       ??_ECXTPDockingPaneManager@@UAEPAXI@Z 004a72f0 f i ToolkitPro1501vc60S:XTPDockingPaneManager.obj
 0001:000a62f0       ??_GCXTPDockingPaneManager@@UAEPAXI@Z 004a72f0 f i ToolkitPro1501vc60S:XTPDockingPaneManager.obj
 0001:000a6310       ??1CXTPDockingPaneManager@@UAE@XZ 004a7310 f   ToolkitPro1501vc60S:XTPDockingPaneManager.obj
 0001:000a6420       ?GetMessageMap@CXTPDockingPaneManager@@MBEPBUAFX_MSGMAP@@XZ 004a7420 f   ToolkitPro1501vc60S:XTPDockingPaneManager.obj
 0001:000a6430       ?OnSysColorChange@CXTPDockingPaneManager@@IAEXXZ 004a7430 f   ToolkitPro1501vc60S:XTPDockingPaneManager.obj
 0001:000a6450       ?OnSettingChange@CXTPDockingPaneManager@@IAEXIPBD@Z 004a7450 f   ToolkitPro1501vc60S:XTPDockingPaneManager.obj
 0001:000a6470       ?UpdatePanes@CXTPDockingPaneManager@@UAEXXZ 004a7470 f   ToolkitPro1501vc60S:XTPDockingPaneManager.obj
 0001:000a64d0       ?OnInitialUpdate@CXTPDockingPaneManager@@IAEXXZ 004a74d0 f   ToolkitPro1501vc60S:XTPDockingPaneManager.obj
 0001:000a65a0       ?OnIdleUpdateCmdUI@CXTPDockingPaneManager@@IAEJIJ@Z 004a75a0 f   ToolkitPro1501vc60S:XTPDockingPaneManager.obj
 0001:000a65b0       ?SyncPanesState@CXTPDockingPaneManager@@QAEXXZ 004a75b0 f   ToolkitPro1501vc60S:XTPDockingPaneManager.obj
 0001:000a6630       ?OnSizeParent@CXTPDockingPaneManager@@IAEJIJ@Z 004a7630 f   ToolkitPro1501vc60S:XTPDockingPaneManager.obj
 0001:000a6680       ?_Clone@CXTPDockingPaneManager@@AAEPAVCXTPDockingPaneBase@@PAV2@@Z 004a7680 f   ToolkitPro1501vc60S:XTPDockingPaneManager.obj
 0001:000a66a0       ?NotifyAction@CXTPDockingPaneManager@@QAEHW4XTPDockingPaneAction@@PAVCXTPDockingPane@@PAVCXTPDockingPaneBase@@W4XTPDockingPaneDirection@@@Z 004a76a0 f   ToolkitPro1501vc60S:XTPDockingPaneManager.obj
 0001:000a6700       ?DockSidePane@CXTPDockingPaneManager@@QAEPAVCXTPDockingPaneSidePanel@@PAVCXTPDockingPaneBase@@W4XTPDockingPaneDirection@@VCRect@@@Z 004a7700 f   ToolkitPro1501vc60S:XTPDockingPaneManager.obj
 0001:000a6780       ?FloatPane@CXTPDockingPaneManager@@QAEPAVCXTPDockingPaneMiniWnd@@PAVCXTPDockingPaneBase@@VCRect@@@Z 004a7780 f   ToolkitPro1501vc60S:XTPDockingPaneManager.obj
 0001:000a6820       ?CreatePane@CXTPDockingPaneManager@@QAEPAVCXTPDockingPane@@IVCRect@@W4XTPDockingPaneDirection@@PAVCXTPDockingPaneBase@@@Z 004a7820 f   ToolkitPro1501vc60S:XTPDockingPaneManager.obj
 0001:000a6940       ?OnCreatePane@CXTPDockingPaneManager@@UAEPAVCXTPDockingPaneBase@@W4XTPDockingPaneType@@PAVCXTPDockingPaneLayout@@@Z 004a7940 f   ToolkitPro1501vc60S:XTPDockingPaneManager.obj
 0001:000a6b90       ?DockPane@CXTPDockingPaneManager@@QAEXPAVCXTPDockingPaneBase@@W4XTPDockingPaneDirection@@0@Z 004a7b90 f   ToolkitPro1501vc60S:XTPDockingPaneManager.obj
 0001:000a6ca0       ?_RemovePane@CXTPDockingPaneManager@@AAEXPAVCXTPDockingPaneBase@@@Z 004a7ca0 f   ToolkitPro1501vc60S:XTPDockingPaneManager.obj
 0001:000a6cc0       ?AttachPane@CXTPDockingPaneManager@@QAEXPAVCXTPDockingPaneBase@@0@Z 004a7cc0 f   ToolkitPro1501vc60S:XTPDockingPaneManager.obj
 0001:000a6ce0       ?_AttachPane@CXTPDockingPaneManager@@AAEXPAVCXTPDockingPaneBase@@0@Z 004a7ce0 f   ToolkitPro1501vc60S:XTPDockingPaneManager.obj
 0001:000a6e20       ?_CalculateResultDockingRect@CXTPDockingPaneManager@@AAE?AVCRect@@PAVCXTPDockingPaneBase@@W4XTPDockingPaneDirection@@0@Z 004a7e20 f   ToolkitPro1501vc60S:XTPDockingPaneManager.obj
 0001:000a6f30       ?_InsertPane@CXTPDockingPaneManager@@AAEXPAVCXTPDockingPaneBase@@W4XTPDockingPaneDirection@@0@Z 004a7f30 f   ToolkitPro1501vc60S:XTPDockingPaneManager.obj
 0001:000a7160       ?_GetHolder@CXTPDockingPaneManager@@AAEPAVCXTPDockingPaneBase@@PAV2@H@Z 004a8160 f   ToolkitPro1501vc60S:XTPDockingPaneManager.obj
 0001:000a71c0       ?ToggleDocking@CXTPDockingPaneManager@@QAEXPAVCXTPDockingPaneBase@@@Z 004a81c0 f   ToolkitPro1501vc60S:XTPDockingPaneManager.obj
 0001:000a7430       ?_ToggleDocking@CXTPDockingPaneManager@@AAEHPAVCXTPDockingPane@@PAVCXTPDockingPaneBase@@@Z 004a8430 f   ToolkitPro1501vc60S:XTPDockingPaneManager.obj
 0001:000a75a0       ?InstallDockingPanes@CXTPDockingPaneManager@@QAE_NPAVCWnd@@_N@Z 004a85a0 f   ToolkitPro1501vc60S:XTPDockingPaneManager.obj
 0001:000a7700       ?FindPane@CXTPDockingPaneManager@@QBEPAVCXTPDockingPane@@H@Z 004a8700 f   ToolkitPro1501vc60S:XTPDockingPaneManager.obj
 0001:000a7740       ?ShowPane@CXTPDockingPaneManager@@QAEXPAVCXTPDockingPane@@H@Z 004a8740 f   ToolkitPro1501vc60S:XTPDockingPaneManager.obj
 0001:000a77d0       ?NotifyOwner@CXTPDockingPaneManager@@UAEJIJ@Z 004a87d0 f   ToolkitPro1501vc60S:XTPDockingPaneManager.obj
 0001:000a7810       ?ClosePane@CXTPDockingPaneManager@@QAEXPAVCXTPDockingPane@@@Z 004a8810 f   ToolkitPro1501vc60S:XTPDockingPaneManager.obj
 0001:000a7860       ?HidePane@CXTPDockingPaneManager@@QAEXPAVCXTPDockingPaneBase@@@Z 004a8860 f   ToolkitPro1501vc60S:XTPDockingPaneManager.obj
 0001:000a78c0       ?IsPaneClosed@CXTPDockingPaneManager@@QBEHPAVCXTPDockingPane@@@Z 004a88c0 f   ToolkitPro1501vc60S:XTPDockingPaneManager.obj
 0001:000a78e0       ?IsPaneHidden@CXTPDockingPaneManager@@QBEHPAVCXTPDockingPane@@@Z 004a88e0 f   ToolkitPro1501vc60S:XTPDockingPaneManager.obj
 0001:000a7910       ?_Redraw@CXTPDockingPaneManager@@AAEXXZ 004a8910 f   ToolkitPro1501vc60S:XTPDockingPaneManager.obj
 0001:000a7990       ?SetTheme@CXTPDockingPaneManager@@QAEXW4XTPDockingPanePaintTheme@@@Z 004a8990 f   ToolkitPro1501vc60S:XTPDockingPaneManager.obj
 0001:000a7d90       ?CreateLayout@CXTPDockingPaneManager@@UAEPAVCXTPDockingPaneLayout@@XZ 004a8d90 f   ToolkitPro1501vc60S:XTPDockingPaneManager.obj
 0001:000a7df0       ?GetPaneStack@CXTPDockingPaneManager@@QBEAAV?$CList@PAVCXTPDockingPaneBase@@PAV1@@@XZ 004a8df0 f   ToolkitPro1501vc60S:XTPDockingPaneManager.obj
 0001:000a7e00       ?GetPaneList@CXTPDockingPaneManager@@QBEAAV?$CList@UXTP_DOCKINGPANE_INFO@@AAU1@@@XZ 004a8e00 f   ToolkitPro1501vc60S:XTPDockingPaneManager.obj
 0001:000a7e10       ?GetClientPane@CXTPDockingPaneManager@@QBEPAVCXTPDockingPaneBase@@XZ 004a8e10 f   ToolkitPro1501vc60S:XTPDockingPaneManager.obj
 0001:000a7e30       ?GetTopPane@CXTPDockingPaneManager@@QBEPAVCXTPDockingPaneBase@@XZ 004a8e30 f   ToolkitPro1501vc60S:XTPDockingPaneManager.obj
 0001:000a7e50       ?GetIcon@CXTPDockingPaneManager@@QBEPAVCXTPImageManagerIcon@@IH@Z 004a8e50 f   ToolkitPro1501vc60S:XTPDockingPaneManager.obj
 0001:000a7e70       ?IsLayoutRTL@CXTPDockingPaneManager@@QBEHXZ 004a8e70 f   ToolkitPro1501vc60S:XTPDockingPaneManager.obj
 0001:000a7e90       ?GetRTLDirection@CXTPDockingPaneManager@@QBE?AW4XTPDockingPaneDirection@@W42@@Z 004a8e90 f   ToolkitPro1501vc60S:XTPDockingPaneManager.obj
 0001:000a7ec0       ?GetPaneDirection@CXTPDockingPaneManager@@QBE?AW4XTPDockingPaneDirection@@PBVCXTPDockingPaneBase@@@Z 004a8ec0 f   ToolkitPro1501vc60S:XTPDockingPaneManager.obj
 0001:000a7ee0       ?RecalcFramesLayout@CXTPDockingPaneManager@@QAEXXZ 004a8ee0 f   ToolkitPro1501vc60S:XTPDockingPaneManager.obj
 0001:000a7f70       ?EnsureVisible@CXTPDockingPaneManager@@QAEXPAVCXTPDockingPaneBase@@@Z 004a8f70 f   ToolkitPro1501vc60S:XTPDockingPaneManager.obj
 0001:000a7fd0       ?OnActivatePane@CXTPDockingPaneManager@@UAEXHPAVCXTPDockingPane@@@Z 004a8fd0 f   ToolkitPro1501vc60S:XTPDockingPaneManager.obj
 0001:000a8070       ?RecalcFrameLayout@CXTPDockingPaneManager@@QAEXPAVCXTPDockingPaneBase@@H@Z 004a9070 f   ToolkitPro1501vc60S:XTPDockingPaneManager.obj
 0001:000a81a0       ?_TrackPopupContextMenu@CXTPDockingPaneManager@@AAEXPAVCXTPDockingPane@@@Z 004a91a0 f   ToolkitPro1501vc60S:XTPDockingPaneManager.obj
 0001:000a8320       ?ActivateNextPane@CXTPDockingPaneManager@@QAEHPAVCXTPDockingPane@@H@Z 004a9320 f   ToolkitPro1501vc60S:XTPDockingPaneManager.obj
 0001:000a83d0       ?OnWndMsg@CXTPDockingPaneManager@@MAEHIIJPAJ@Z 004a93d0 f   ToolkitPro1501vc60S:XTPDockingPaneManager.obj
 0001:000a84b0       ?GetAccessible@CXTPDockingPaneManager@@MAEPAVCCmdTarget@@XZ 004a94b0 f   ToolkitPro1501vc60S:XTPDockingPaneManager.obj
 0001:000a84c0       ?GetAccessibleParent@CXTPDockingPaneManager@@MAEJPAPAUIDispatch@@@Z 004a94c0 f   ToolkitPro1501vc60S:XTPDockingPaneManager.obj
 0001:000a8500       ?GetAccessibleChildCount@CXTPDockingPaneManager@@MAEJPAJ@Z 004a9500 f   ToolkitPro1501vc60S:XTPDockingPaneManager.obj
 0001:000a8520       ?GetAccessibleChild@CXTPDockingPaneManager@@MAEJUtagVARIANT@@PAPAUIDispatch@@@Z 004a9520 f   ToolkitPro1501vc60S:XTPDockingPaneManager.obj
 0001:000a8580       ?GetAccessibleName@CXTPDockingPaneManager@@MAEJUtagVARIANT@@PAPAG@Z 004a9580 f   ToolkitPro1501vc60S:XTPDockingPaneManager.obj
 0001:000a85c0       ?GetAccessibleRole@CXTPDockingPaneManager@@MAEJUtagVARIANT@@PAU2@@Z 004a95c0 f   ToolkitPro1501vc60S:XTPDockingPaneManager.obj
 0001:000a8600       ?GetAccessibleState@CXTPDockingPaneManager@@MAEJUtagVARIANT@@PAU2@@Z 004a9600 f   ToolkitPro1501vc60S:XTPDockingPaneManager.obj
 0001:000a8630       ?AccessibleLocation@CXTPDockingPaneManager@@MAEJPAJ000UtagVARIANT@@@Z 004a9630 f   ToolkitPro1501vc60S:XTPDockingPaneManager.obj
 0001:000a8660       ?AccessibleHitTest@CXTPDockingPaneManager@@MAEJJJPAUtagVARIANT@@@Z 004a9660 f   ToolkitPro1501vc60S:XTPDockingPaneManager.obj
 0001:000a8670       ?OnGetObject@CXTPDockingPaneManager@@IAEJIJ@Z 004a9670 f   ToolkitPro1501vc60S:XTPDockingPaneManager.obj
 0001:000a86c0       ?GetInterfaceMap@CXTPDockingPaneManager@@MBEPBUAFX_INTERFACEMAP@@XZ 004a96c0 f   ToolkitPro1501vc60S:XTPDockingPaneManager.obj
 0001:000a86d0       ?CreateObject@?$CThreadLocal@VCXTPDockingPaneKeyboardHook@@@@SGPAVCNoTrackObject@@XZ 004a96d0 f i ToolkitPro1501vc60S:XTPDockingPaneManager.obj
 0001:000a8730       ??1?$CList@PAVCXTPDockingPaneBase@@PAV1@@@UAE@XZ 004a9730 f i ToolkitPro1501vc60S:XTPDockingPaneManager.obj
 0001:000a8790       ??_E?$CList@PAVCXTPDockingPaneBase@@PAV1@@@UAEPAXI@Z 004a9790 f i ToolkitPro1501vc60S:XTPDockingPaneManager.obj
 0001:000a8790       ??_G?$CList@PAVCXTPDockingPaneBase@@PAV1@@@UAEPAXI@Z 004a9790 f i ToolkitPro1501vc60S:XTPDockingPaneManager.obj
 0001:000a87b0       ?ConstructElements@@YGXPAUXTP_DOCKINGPANE_INFO@@H@Z 004a97b0 f i ToolkitPro1501vc60S:XTPDockingPaneManager.obj
 0001:000a8800       ??_ECXTPDockingPaneManager@@WDM@AEPAXI@Z 004a9800 f i ToolkitPro1501vc60S:XTPDockingPaneManager.obj
 0001:000a8840       ??0CXTPTrayIcon@@QAE@XZ    004a9840 f   ToolkitPro1501vc60S:XTPTrayIcon.obj
 0001:000a8900       ?Create@CXTPTrayIcon@@UAE_NPBDKPAVCWnd@@I@Z 004a9900 f i ToolkitPro1501vc60S:XTPTrayIcon.obj
 0001:000a8920       ?SetTooltip@CXTPTrayIcon@@UAEXPBD@Z 004a9920 f i ToolkitPro1501vc60S:XTPTrayIcon.obj
 0001:000a8930       ?SetTrayIcon@CXTPTrayIcon@@UAEXIK@Z 004a9930 f i ToolkitPro1501vc60S:XTPTrayIcon.obj
 0001:000a8940       ?SetAnimationIcons@CXTPTrayIcon@@UAEXPBIPBVCString@@H@Z 004a9940 f i ToolkitPro1501vc60S:XTPTrayIcon.obj
 0001:000a8960       ?KillTimer@CXTPTrayIcon@@UAEXXZ 004a9960 f i ToolkitPro1501vc60S:XTPTrayIcon.obj
 0001:000a8970       ?SetTimer@CXTPTrayIcon@@UAEXII@Z 004a9970 f i ToolkitPro1501vc60S:XTPTrayIcon.obj
 0001:000a8990       ??_GCXTPTrayIcon@@UAEPAXI@Z 004a9990 f i ToolkitPro1501vc60S:XTPTrayIcon.obj
 0001:000a8990       ??_ECXTPTrayIcon@@UAEPAXI@Z 004a9990 f i ToolkitPro1501vc60S:XTPTrayIcon.obj
 0001:000a89b0       ??1CXTPTrayIcon@@UAE@XZ    004a99b0 f   ToolkitPro1501vc60S:XTPTrayIcon.obj
 0001:000a8aa0       ?GetMessageMap@CXTPTrayIcon@@MBEPBUAFX_MSGMAP@@XZ 004a9aa0 f   ToolkitPro1501vc60S:XTPTrayIcon.obj
 0001:000a8ab0       ?SetDefaultValues@CXTPTrayIcon@@QAEXXZ 004a9ab0 f   ToolkitPro1501vc60S:XTPTrayIcon.obj
 0001:000a8b50       ?IsShellVersion5@CXTPTrayIcon@@QBEHXZ 004a9b50 f   ToolkitPro1501vc60S:XTPTrayIcon.obj
 0001:000a8bd0       ?ShellNotify@CXTPTrayIcon@@QAEHK@Z 004a9bd0 f   ToolkitPro1501vc60S:XTPTrayIcon.obj
 0001:000a8bf0       ?SetIcon@CXTPTrayIcon@@QAE_NPAUHICON__@@@Z 004a9bf0 f   ToolkitPro1501vc60S:XTPTrayIcon.obj
 0001:000a8c30       ?SetIcon@CXTPTrayIcon@@QAE_NPBD@Z 004a9c30 f   ToolkitPro1501vc60S:XTPTrayIcon.obj
 0001:000a8c90       ?SetIcon@CXTPTrayIcon@@QAE_NI@Z 004a9c90 f   ToolkitPro1501vc60S:XTPTrayIcon.obj
 0001:000a8cb0       ?RemoveAnimationIcons@CXTPTrayIcon@@UAEXXZ 004a9cb0 f   ToolkitPro1501vc60S:XTPTrayIcon.obj
 0001:000a8d00       ?SetAnimationIcons@CXTPTrayIcon@@UAE_NPBIHPBVCString@@@Z 004a9d00 f   ToolkitPro1501vc60S:XTPTrayIcon.obj
 0001:000a8ef0       ??1TRAYICONDATA@CXTPTrayIcon@@QAE@XZ 004a9ef0 f i ToolkitPro1501vc60S:XTPTrayIcon.obj
 0001:000a8f00       ??0TRAYICONDATA@CXTPTrayIcon@@QAE@XZ 004a9f00 f i ToolkitPro1501vc60S:XTPTrayIcon.obj
 0001:000a8f10       ?SetTooltipText@CXTPTrayIcon@@QAE_NPBD@Z 004a9f10 f   ToolkitPro1501vc60S:XTPTrayIcon.obj
 0001:000a8fa0       ?SetShellTooltip@CXTPTrayIcon@@AAE_NPBD@Z 004a9fa0 f   ToolkitPro1501vc60S:XTPTrayIcon.obj
 0001:000a8ff0       ?AddIcon@CXTPTrayIcon@@QAE_NXZ 004a9ff0 f   ToolkitPro1501vc60S:XTPTrayIcon.obj
 0001:000a9030       ?RemoveIcon@CXTPTrayIcon@@QAE_NXZ 004aa030 f   ToolkitPro1501vc60S:XTPTrayIcon.obj
 0001:000a9070       ?OnTimer@CXTPTrayIcon@@IAEXI@Z 004aa070 f   ToolkitPro1501vc60S:XTPTrayIcon.obj
 0001:000a90f0       ?Create@CXTPTrayIcon@@UAE_NPBDPAVCWnd@@III_N@Z 004aa0f0 f   ToolkitPro1501vc60S:XTPTrayIcon.obj
 0001:000a91a0       ?ShowBalloonTip@CXTPTrayIcon@@QAE_NPBD0KI@Z 004aa1a0 f   ToolkitPro1501vc60S:XTPTrayIcon.obj
 0001:000a9250       ?StartAnimation@CXTPTrayIcon@@UAEXI@Z 004aa250 f   ToolkitPro1501vc60S:XTPTrayIcon.obj
 0001:000a9270       ?StopAnimation@CXTPTrayIcon@@UAEXXZ 004aa270 f   ToolkitPro1501vc60S:XTPTrayIcon.obj
 0001:000a92a0       ?OnTrayNotification@CXTPTrayIcon@@MAEJIJ@Z 004aa2a0 f   ToolkitPro1501vc60S:XTPTrayIcon.obj
 0001:000a95b0       ?WindowProc@CXTPTrayIcon@@MAEJIIJ@Z 004aa5b0 f   ToolkitPro1501vc60S:XTPTrayIcon.obj
 0001:000a95f0       ?OnTaskbarCreated@CXTPTrayIcon@@IAEJIJ@Z 004aa5f0 f   ToolkitPro1501vc60S:XTPTrayIcon.obj
 0001:000a9600       ?OnSettingChange@CXTPTrayIcon@@IAEXIPBD@Z 004aa600 f   ToolkitPro1501vc60S:XTPTrayIcon.obj
 0001:000a9630       ?InstallIconPending@CXTPTrayIcon@@UAEXXZ 004aa630 f   ToolkitPro1501vc60S:XTPTrayIcon.obj
 0001:000a9660       ?FindTrayWnd@CXTPTrayIcon@@CGHPAUHWND__@@J@Z 004aa660 f   ToolkitPro1501vc60S:XTPTrayIcon.obj
 0001:000a9710       ?GetTrayWindowRect@CXTPTrayIcon@@AAE_NAAVCRect@@@Z 004aa710 f   ToolkitPro1501vc60S:XTPTrayIcon.obj
 0001:000a9830       ?CanAnimate@CXTPTrayIcon@@ABE_NXZ 004aa830 f   ToolkitPro1501vc60S:XTPTrayIcon.obj
 0001:000a9870       ?CreateMinimizeWnd@CXTPTrayIcon@@UAE_NPAVCWnd@@@Z 004aa870 f   ToolkitPro1501vc60S:XTPTrayIcon.obj
 0001:000a98f0       ?MinimizeToTray@CXTPTrayIcon@@QAEXPAVCWnd@@@Z 004aa8f0 f   ToolkitPro1501vc60S:XTPTrayIcon.obj
 0001:000a9960       ?MaximizeFromTray@CXTPTrayIcon@@QAEXPAVCWnd@@@Z 004aa960 f   ToolkitPro1501vc60S:XTPTrayIcon.obj
 0001:000a9a20       ?RemoveHead@?$CList@UTRAYICONDATA@CXTPTrayIcon@@AAU12@@@QAE?AUTRAYICONDATA@CXTPTrayIcon@@XZ 004aaa20 f i ToolkitPro1501vc60S:XTPTrayIcon.obj
 0001:000a9b20       ??1?$CList@UTRAYICONDATA@CXTPTrayIcon@@AAU12@@@UAE@XZ 004aab20 f i ToolkitPro1501vc60S:XTPTrayIcon.obj
 0001:000a9ba0       ?Serialize@?$CList@UTRAYICONDATA@CXTPTrayIcon@@AAU12@@@UAEXAAVCArchive@@@Z 004aaba0 f i ToolkitPro1501vc60S:XTPTrayIcon.obj
 0001:000a9d20       ??_G?$CList@UTRAYICONDATA@CXTPTrayIcon@@AAU12@@@UAEPAXI@Z 004aad20 f i ToolkitPro1501vc60S:XTPTrayIcon.obj
 0001:000a9d20       ??_E?$CList@UTRAYICONDATA@CXTPTrayIcon@@AAU12@@@UAEPAXI@Z 004aad20 f i ToolkitPro1501vc60S:XTPTrayIcon.obj
 0001:000a9d40       ?ConstructElements@@YGXPAUTRAYICONDATA@CXTPTrayIcon@@H@Z 004aad40 f i ToolkitPro1501vc60S:XTPTrayIcon.obj
 0001:000a9dc0       ?GetRuntimeClass@CXTPStatusBarPane@@UBEPAUCRuntimeClass@@XZ 004aadc0 f   ToolkitPro1501vc60S:XTPStatusBar.obj
 0001:000a9dd0       ??0CXTPStatusBarPane@@QAE@XZ 004aadd0 f   ToolkitPro1501vc60S:XTPStatusBar.obj
 0001:000a9ea0       ??_ECXTPStatusBarPane@@UAEPAXI@Z 004aaea0 f i ToolkitPro1501vc60S:XTPStatusBar.obj
 0001:000a9ea0       ??_GCXTPStatusBarPane@@UAEPAXI@Z 004aaea0 f i ToolkitPro1501vc60S:XTPStatusBar.obj
 0001:000a9ec0       ??1CXTPStatusBarPane@@UAE@XZ 004aaec0 f   ToolkitPro1501vc60S:XTPStatusBar.obj
 0001:000a9fb0       ?GetRect@CXTPStatusBarPane@@QBE?AVCRect@@XZ 004aafb0 f   ToolkitPro1501vc60S:XTPStatusBar.obj
 0001:000a9fe0       ?Redraw@CXTPStatusBarPane@@QBEXXZ 004aafe0 f   ToolkitPro1501vc60S:XTPStatusBar.obj
 0001:000aa030       ?GetPadding@CXTPStatusBarPane@@QBE?AVCRect@@XZ 004ab030 f   ToolkitPro1501vc60S:XTPStatusBar.obj
 0001:000aa060       ?SetText@CXTPStatusBarPane@@QAEXPBD@Z 004ab060 f   ToolkitPro1501vc60S:XTPStatusBar.obj
 0001:000aa140       ?GetText@CXTPStatusBarPane@@QBE?AVCString@@XZ 004ab140 f   ToolkitPro1501vc60S:XTPStatusBar.obj
 0001:000aa160       ?GetWidth@CXTPStatusBarPane@@UAEHXZ 004ab160 f   ToolkitPro1501vc60S:XTPStatusBar.obj
 0001:000aa170       ?SetStyle@CXTPStatusBarPane@@QAEXI@Z 004ab170 f   ToolkitPro1501vc60S:XTPStatusBar.obj
 0001:000aa1b0       ?GetIndex@CXTPStatusBarPane@@QBEHXZ 004ab1b0 f   ToolkitPro1501vc60S:XTPStatusBar.obj
 0001:000aa1c0       ?GetWorkspaceCount@CXTPTabClientWnd@@QBEHXZ 004ab1c0 f   ToolkitPro1501vc60S:XTPStatusBar.obj
 0001:000aa1c0       ?GetStatusBar@CXTPStatusBarPane@@QBEPAVCXTPStatusBar@@XZ 004ab1c0 f   ToolkitPro1501vc60S:XTPStatusBar.obj
 0001:000aa1d0       ?OnDraw@CXTPStatusBarPane@@MAEXPAVCDC@@VCRect@@@Z 004ab1d0 f   ToolkitPro1501vc60S:XTPStatusBar.obj
 0001:000aa220       ?GetBestFit@CXTPStatusBarPane@@QAEHXZ 004ab220 f   ToolkitPro1501vc60S:XTPStatusBar.obj
 0001:000aa350       ?GetWidth@CXTPResourceImage@@QBEHXZ 004ab350 f   ToolkitPro1501vc60S:XTPStatusBar.obj
 0001:000aa350       ?IsVisible@CXTPTabManagerItem@@QBEHXZ 004ab350 f   ToolkitPro1501vc60S:XTPStatusBar.obj
 0001:000aa350       ?GetTextColor@CXTPStatusBarPane@@QBEKXZ 004ab350 f   ToolkitPro1501vc60S:XTPStatusBar.obj
 0001:000aa360       ?GetTextFont@CXTPStatusBarPane@@UAEPAVCFont@@XZ 004ab360 f   ToolkitPro1501vc60S:XTPStatusBar.obj
 0001:000aa380       ?GetImage@CXTPStatusBarPane@@UBEPAVCXTPImageManagerIcon@@XZ 004ab380 f   ToolkitPro1501vc60S:XTPStatusBar.obj
 0001:000aa3a0       ?GetTextAlignment@CXTPStatusBarPane@@QBEHXZ 004ab3a0 f   ToolkitPro1501vc60S:XTPStatusBar.obj
 0001:000aa3a0       ?GetDragControl@CXTPCommandBars@@QBEPAVCCmdTarget@@XZ 004ab3a0 f   ToolkitPro1501vc60S:XTPStatusBar.obj
 0001:000aa3b0       ?GetTooltip@CXTPStatusBarPane@@QBE?AVCString@@XZ 004ab3b0 f   ToolkitPro1501vc60S:XTPStatusBar.obj
 0001:000aa3d0       ?SetEnabled@CXTPStatusBarPane@@QAEXH@Z 004ab3d0 f   ToolkitPro1501vc60S:XTPStatusBar.obj
 0001:000aa410       ?IsEnabled@CXTPStatusBarPane@@QBEHXZ 004ab410 f   ToolkitPro1501vc60S:XTPStatusBar.obj
 0001:000aa420       ?IsChecked@CXTPStatusBarPane@@QBEHXZ 004ab420 f   ToolkitPro1501vc60S:XTPStatusBar.obj
 0001:000aa440       ?OnToolHitTest@CXTPStatusBarPane@@MBEHVCPoint@@PAUtagTOOLINFOA@@@Z 004ab440 f   ToolkitPro1501vc60S:XTPStatusBar.obj
 0001:000aa450       ?OnLButtonDown@CXTPStatusBarPane@@MAEXVCPoint@@@Z 004ab450 f   ToolkitPro1501vc60S:XTPStatusBar.obj
 0001:000aa5a0       ?GetRuntimeClass@CXTPStatusBar@@UBEPAUCRuntimeClass@@XZ 004ab5a0 f   ToolkitPro1501vc60S:XTPStatusBar.obj
 0001:000aa5b0       ??0CXTPStatusBar@@QAE@XZ   004ab5b0 f   ToolkitPro1501vc60S:XTPStatusBar.obj
 0001:000aa6a0       ??_ECXTPStatusBar@@UAEPAXI@Z 004ab6a0 f i ToolkitPro1501vc60S:XTPStatusBar.obj
 0001:000aa6a0       ??_GCXTPStatusBar@@UAEPAXI@Z 004ab6a0 f i ToolkitPro1501vc60S:XTPStatusBar.obj
 0001:000aa6c0       ?IsWin4@CXTPStatusBar@@AAEHXZ 004ab6c0 f   ToolkitPro1501vc60S:XTPStatusBar.obj
 0001:000aa6d0       ??1CXTPStatusBar@@UAE@XZ   004ab6d0 f   ToolkitPro1501vc60S:XTPStatusBar.obj
 0001:000aa790       ?GetImageManager@CXTPStatusBar@@QBEPAVCXTPImageManager@@XZ 004ab790 f   ToolkitPro1501vc60S:XTPStatusBar.obj
 0001:000aa7b0       ?HitTest@CXTPStatusBar@@QBEPAVCXTPStatusBarPane@@VCPoint@@PAVCRect@@@Z 004ab7b0 f   ToolkitPro1501vc60S:XTPStatusBar.obj
 0001:000aa860       ?RemoveAll@CXTPStatusBar@@QAEXXZ 004ab860 f   ToolkitPro1501vc60S:XTPStatusBar.obj
 0001:000aa8c0       ?FindPane@CXTPStatusBar@@QBEPAVCXTPStatusBarPane@@I@Z 004ab8c0 f   ToolkitPro1501vc60S:XTPStatusBar.obj
 0001:000aa910       ?Create@CXTPStatusBar@@QAEHPAVCWnd@@KI@Z 004ab910 f   ToolkitPro1501vc60S:XTPStatusBar.obj
 0001:000aa930       ?GetFont@CXTPStatusBar@@QAEPAVCFont@@XZ 004ab930 f   ToolkitPro1501vc60S:XTPStatusBar.obj
 0001:000aa950       ?CreateEx@CXTPStatusBar@@QAEHPAVCWnd@@KKI@Z 004ab950 f   ToolkitPro1501vc60S:XTPStatusBar.obj
 0001:000aa9e0       ?PreCreateWindow@CXTPStatusBar@@MAEHAAUtagCREATESTRUCTA@@@Z 004ab9e0 f   ToolkitPro1501vc60S:XTPStatusBar.obj
 0001:000aaa20       ?SetIndicators@CXTPStatusBar@@QAEHPBIH@Z 004aba20 f   ToolkitPro1501vc60S:XTPStatusBar.obj
 0001:000aac80       ?CalcInsideRect@CXTPStatusBar@@IBEXAAVCRect@@H@Z 004abc80 f   ToolkitPro1501vc60S:XTPStatusBar.obj
 0001:000aad00       ?RecalcLayout@CXTPStatusBar@@UAEXXZ 004abd00 f   ToolkitPro1501vc60S:XTPStatusBar.obj
 0001:000aafd0       ?CommandToIndex@CXTPStatusBar@@QBEHI@Z 004abfd0 f   ToolkitPro1501vc60S:XTPStatusBar.obj
 0001:000ab020       ?GetItemID@CXTPStatusBar@@QBEIH@Z 004ac020 f   ToolkitPro1501vc60S:XTPStatusBar.obj
 0001:000ab040       ?GetItemRect@CXTPStatusBar@@QBEXHPAUtagRECT@@@Z 004ac040 f   ToolkitPro1501vc60S:XTPStatusBar.obj
 0001:000ab0a0       ?GetPaneStyle@CXTPStatusBar@@QBEIH@Z 004ac0a0 f   ToolkitPro1501vc60S:XTPStatusBar.obj
 0001:000ab0c0       ?SetPaneStyle@CXTPStatusBar@@QAEXHI@Z 004ac0c0 f   ToolkitPro1501vc60S:XTPStatusBar.obj
 0001:000ab0e0       ?SetPaneInfo@CXTPStatusBar@@QAEXHIIH@Z 004ac0e0 f   ToolkitPro1501vc60S:XTPStatusBar.obj
 0001:000ab160       ?SetPaneText@CXTPStatusBar@@QAEHHPBD@Z 004ac160 f   ToolkitPro1501vc60S:XTPStatusBar.obj
 0001:000ab190       ?CalcFixedLayout@CXTPStatusBar@@MAE?AVCSize@@HH@Z 004ac190 f   ToolkitPro1501vc60S:XTPStatusBar.obj
 0001:000ab280       ?GetMessageMap@CXTPStatusBar@@MBEPBUAFX_MSGMAP@@XZ 004ac280 f   ToolkitPro1501vc60S:XTPStatusBar.obj
 0001:000ab290       ?OnCreate@CXTPStatusBar@@QAEHPAUtagCREATESTRUCTA@@@Z 004ac290 f   ToolkitPro1501vc60S:XTPStatusBar.obj
 0001:000ab2b0       ?OnSysCommand@CXTPStatusBar@@IAEXIJ@Z 004ac2b0 f   ToolkitPro1501vc60S:XTPStatusBar.obj
 0001:000ab2f0       ?OnNcHitTest@CXTPStatusBar@@IAEJVCPoint@@@Z 004ac2f0 f   ToolkitPro1501vc60S:XTPStatusBar.obj
 0001:000ab3f0       ?SetCustomizationVisible@CXTPStatusBarPane@@QAEXH@Z 004ac3f0 f   ToolkitPro1501vc60S:XTPStatusBar.obj
 0001:000ab420       ?GetCustomizationVisible@CXTPStatusBarPane@@QBEHXZ 004ac420 f   ToolkitPro1501vc60S:XTPStatusBar.obj
 0001:000ab430       ?GetStatusBarPopup@CXTPStatusBar@@UAEPAVCXTPPopupBar@@XZ 004ac430 f   ToolkitPro1501vc60S:XTPStatusBar.obj
 0001:000ab5d0       ?SetParent@CXTPControl@@MAEXPAVCXTPCommandBar@@@Z 004ac5d0 f i ToolkitPro1501vc60S:XTPStatusBar.obj
 0001:000ab5e0       ?GetDescription@CXTPControl@@UBE?AVCString@@XZ 004ac5e0 f i ToolkitPro1501vc60S:XTPStatusBar.obj
 0001:000ab6b0       ?GetDescription@CXTPControlAction@@QBE?AVCString@@XZ 004ac6b0 f i ToolkitPro1501vc60S:XTPStatusBar.obj
 0001:000ab6d0       ?GetTooltip@CXTPControl@@UBE?AVCString@@XZ 004ac6d0 f i ToolkitPro1501vc60S:XTPStatusBar.obj
 0001:000ab7a0       ?GetTooltip@CXTPControlAction@@QBE?AVCString@@XZ 004ac7a0 f i ToolkitPro1501vc60S:XTPStatusBar.obj
 0001:000ab7c0       ?GetCaption@CXTPControl@@UBE?AVCString@@XZ 004ac7c0 f i ToolkitPro1501vc60S:XTPStatusBar.obj
 0001:000ab8a0       ?GetCaption@CXTPControlAction@@QBE?AVCString@@XZ 004ac8a0 f i ToolkitPro1501vc60S:XTPStatusBar.obj
 0001:000ab8d0       ?SetBeginGroup@CXTPControl@@UAEXH@Z 004ac8d0 f i ToolkitPro1501vc60S:XTPStatusBar.obj
 0001:000ab8f0       ?SetEnabled@CXTPControl@@UAEXH@Z 004ac8f0 f i ToolkitPro1501vc60S:XTPStatusBar.obj
 0001:000ab920       ?SetChecked@CXTPControl@@UAEXH@Z 004ac920 f i ToolkitPro1501vc60S:XTPStatusBar.obj
 0001:000ab940       ?GetSelected@CXTPControl@@UBEHXZ 004ac940 f i ToolkitPro1501vc60S:XTPStatusBar.obj
 0001:000ab950       ?GetPressed@CXTPControl@@UBEHXZ 004ac950 f i ToolkitPro1501vc60S:XTPStatusBar.obj
 0001:000ab960       ?SetRect@CXTPControl@@UAEXVCRect@@@Z 004ac960 f i ToolkitPro1501vc60S:XTPStatusBar.obj
 0001:000ab990       ?IsVisible@CXTPControl@@UBEHK@Z 004ac990 f i ToolkitPro1501vc60S:XTPStatusBar.obj
 0001:000ab9c0       ?SetHideFlags@CXTPControl@@UAEXK@Z 004ac9c0 f i ToolkitPro1501vc60S:XTPStatusBar.obj
 0001:000ab9d0       ?SetWidth@CXTPControl@@UAEXH@Z 004ac9d0 f i ToolkitPro1501vc60S:XTPStatusBar.obj
 0001:000ab9f0       ?SetHeight@CXTPControl@@UAEXH@Z 004ac9f0 f i ToolkitPro1501vc60S:XTPStatusBar.obj
 0001:000aba10       ?OnRButtonDown@CXTPControl@@MAEHVCPoint@@@Z 004aca10 f i ToolkitPro1501vc60S:XTPStatusBar.obj
 0001:000aba10       ?OnHookKeyDown@CXTPControl@@MAEHIJ@Z 004aca10 f i ToolkitPro1501vc60S:XTPStatusBar.obj
 0001:000aba10       ?OnRButtonUp@CXTPControl@@MAEHVCPoint@@@Z 004aca10 f i ToolkitPro1501vc60S:XTPStatusBar.obj
 0001:000aba20       ?OnSetPopup@CXTPControl@@MAEHH@Z 004aca20 f i ToolkitPro1501vc60S:XTPStatusBar.obj
 0001:000aba20       ?SetPosition@CXTPCommandBar@@UAEHW4XTPBarPosition@@@Z 004aca20 f i ToolkitPro1501vc60S:XTPStatusBar.obj
 0001:000aba20       ?PreviewAccel@CXTPCommandBar@@UAEHI@Z 004aca20 f i ToolkitPro1501vc60S:XTPStatusBar.obj
 0001:000aba30       ?OnHookMouseWheel@CXTPControl@@MAEHIFVCPoint@@@Z 004aca30 f i ToolkitPro1501vc60S:XTPStatusBar.obj
 0001:000aba40       ?OnToolHitTest@CXTPControl@@MBEHVCPoint@@PAUtagTOOLINFOA@@@Z 004aca40 f i ToolkitPro1501vc60S:XTPStatusBar.obj
 0001:000aba50       ?OnExecute@CControlCustomization@CXTPStatusBar@@UAEXXZ 004aca50 f i ToolkitPro1501vc60S:XTPStatusBar.obj
 0001:000abab0       ?OnRButtonUp@CXTPStatusBar@@IAEXIVCPoint@@@Z 004acab0 f   ToolkitPro1501vc60S:XTPStatusBar.obj
 0001:000abb20       ?OnMouseLeave@CXTPStatusBar@@IAEXXZ 004acb20 f   ToolkitPro1501vc60S:XTPStatusBar.obj
 0001:000abb30       ?HandleMouseMove@CXTPStatusBar@@IAEXVCPoint@@@Z 004acb30 f   ToolkitPro1501vc60S:XTPStatusBar.obj
 0001:000abc20       ?OnMouseMove@CXTPStatusBar@@IAEXIVCPoint@@@Z 004acc20 f   ToolkitPro1501vc60S:XTPStatusBar.obj
 0001:000abc40       ?OnLButtonDblClk@CXTPStatusBar@@IAEXIVCPoint@@@Z 004acc40 f   ToolkitPro1501vc60S:XTPStatusBar.obj
 0001:000abd00       ?OnLButtonDown@CXTPStatusBar@@IAEXIVCPoint@@@Z 004acd00 f   ToolkitPro1501vc60S:XTPStatusBar.obj
 0001:000abd30       ?OnNcCalcSize@CXTPStatusBar@@IAEXHPAUtagNCCALCSIZE_PARAMS@@@Z 004acd30 f   ToolkitPro1501vc60S:XTPStatusBar.obj
 0001:000abd90       ?OnBarStyleChange@CXTPStatusBar@@MAEXKK@Z 004acd90 f   ToolkitPro1501vc60S:XTPStatusBar.obj
 0001:000abdc0       ?OnNcPaint@CXTPStatusBar@@IAEXXZ 004acdc0 f   ToolkitPro1501vc60S:XTPStatusBar.obj
 0001:000abdd0       ?OnSize@CXTPStatusBar@@QAEXIHH@Z 004acdd0 f   ToolkitPro1501vc60S:XTPStatusBar.obj
 0001:000abdf0       ?OnWindowPosChanging@CXTPStatusBar@@IAEXPAUtagWINDOWPOS@@@Z 004acdf0 f   ToolkitPro1501vc60S:XTPStatusBar.obj
 0001:000abe20       ?OnSetText@CXTPStatusBar@@IAEJIJ@Z 004ace20 f   ToolkitPro1501vc60S:XTPStatusBar.obj
 0001:000abe50       ?OnGetText@CXTPStatusBar@@IAEJIJ@Z 004ace50 f   ToolkitPro1501vc60S:XTPStatusBar.obj
 0001:000abeb0       ?OnGetTextLength@CXTPStatusBar@@IAEJIJ@Z 004aceb0 f   ToolkitPro1501vc60S:XTPStatusBar.obj
 0001:000abee0       ?OnSetMinHeight@CXTPStatusBar@@IAEJIJ@Z 004acee0 f   ToolkitPro1501vc60S:XTPStatusBar.obj
 0001:000abf00       ?Enable@CStatusCmdUI@CXTPStatusBar@@UAEXH@Z 004acf00 f   ToolkitPro1501vc60S:XTPStatusBar.obj
 0001:000abf30       ?SetCheck@CStatusCmdUI@CXTPStatusBar@@UAEXH@Z 004acf30 f   ToolkitPro1501vc60S:XTPStatusBar.obj
 0001:000abf70       ?SetText@CStatusCmdUI@CXTPStatusBar@@UAEXPBD@Z 004acf70 f   ToolkitPro1501vc60S:XTPStatusBar.obj
 0001:000abf90       ?OnUpdateCmdUI@CXTPStatusBar@@MAEXPAVCFrameWnd@@H@Z 004acf90 f   ToolkitPro1501vc60S:XTPStatusBar.obj
 0001:000ac020       ?GetPaintManager@CXTPStatusBar@@QBEPAVCXTPPaintManager@@XZ 004ad020 f   ToolkitPro1501vc60S:XTPStatusBar.obj
 0001:000ac050       ?DrawPaneEntry@CXTPStatusBar@@UAEXPAVCDC@@HVCRect@@@Z 004ad050 f   ToolkitPro1501vc60S:XTPStatusBar.obj
 0001:000ac090       ?OnPaint@CXTPStatusBar@@QAEXXZ 004ad090 f   ToolkitPro1501vc60S:XTPStatusBar.obj
 0001:000ac120       ?OnPrintClient@CXTPStatusBar@@QAEJIJ@Z 004ad120 f   ToolkitPro1501vc60S:XTPStatusBar.obj
 0001:000ac160       ?OnDraw@CXTPStatusBar@@QAEXPAVCDC@@@Z 004ad160 f   ToolkitPro1501vc60S:XTPStatusBar.obj
 0001:000ac330       ?DrawStretch@CXTPStatusBar@@MAEXPAVCDC@@AAVCRect@@@Z 004ad330 f   ToolkitPro1501vc60S:XTPStatusBar.obj
 0001:000ac370       ?PositionControls@CXTPStatusBar@@QAEXXZ 004ad370 f   ToolkitPro1501vc60S:XTPStatusBar.obj
 0001:000ac490       ?OnWindowPosChanged@CXTPStatusBar@@IAEXPAUtagWINDOWPOS@@@Z 004ad490 f   ToolkitPro1501vc60S:XTPStatusBar.obj
 0001:000ac4f0       ?OnIdleUpdateCmdUI@CXTPStatusBar@@QAEJIJ@Z 004ad4f0 f   ToolkitPro1501vc60S:XTPStatusBar.obj
 0001:000ac5b0       ?OnToolHitTest@CXTPStatusBar@@MBEHVCPoint@@PAUtagTOOLINFOA@@@Z 004ad5b0 f   ToolkitPro1501vc60S:XTPStatusBar.obj
 0001:000ac6f0       ?OnPaneClick@CXTPStatusBar@@UAEXPAVCXTPStatusBarPane@@@Z 004ad6f0 f   ToolkitPro1501vc60S:XTPStatusBar.obj
 0001:000ac730       ?OnSwitchPaneClick@CXTPStatusBar@@UAEXPAVCXTPStatusBarPane@@J@Z 004ad730 f   ToolkitPro1501vc60S:XTPStatusBar.obj
 0001:000ac760       ?OnWndMsg@CXTPStatusBar@@MAEHIIJPAJ@Z 004ad760 f   ToolkitPro1501vc60S:XTPStatusBar.obj
 0001:000ac810       ?LoadState@CXTPStatusBar@@QAEXPBD@Z 004ad810 f   ToolkitPro1501vc60S:XTPStatusBar.obj
 0001:000ac9e0       ?DoPropExchange@CXTPStatusBar@@UAEXPAVCXTPPropExchange@@@Z 004ad9e0 f   ToolkitPro1501vc60S:XTPStatusBar.obj
 0001:000acd00       ?SaveState@CXTPStatusBar@@QAEXPBD@Z 004add00 f   ToolkitPro1501vc60S:XTPStatusBar.obj
 0001:000aceb0       ?GetSwitchCount@CXTPStatusBarSwitchPane@@QBEHXZ 004adeb0 f   ToolkitPro1501vc60S:XTPStatusBar.obj
 0001:000acec0       ?GetSwitch@CXTPStatusBarSwitchPane@@QBEPAUSWITCH@1@H@Z 004adec0 f   ToolkitPro1501vc60S:XTPStatusBar.obj
 0001:000aced0       ??1?$CArray@PAVCXTPStatusBarPane@@PAV1@@@UAE@XZ 004aded0 f i ToolkitPro1501vc60S:XTPStatusBar.obj
 0001:000acf20       ??_E?$CArray@PAVCXTPStatusBarPane@@PAV1@@@UAEPAXI@Z 004adf20 f i ToolkitPro1501vc60S:XTPStatusBar.obj
 0001:000acf20       ??_G?$CArray@PAVCXTPStatusBarPane@@PAV1@@@UAEPAXI@Z 004adf20 f i ToolkitPro1501vc60S:XTPStatusBar.obj
 0001:000acf40       ??0CXTPDockingPane@@IAE@PAVCXTPDockingPaneLayout@@@Z 004adf40 f   ToolkitPro1501vc60S:XTPDockingPane.obj
 0001:000ad030       ?SetDockingSite@CXTPDockingPaneBase@@MAEXPAVCWnd@@@Z 004ae030 f i ToolkitPro1501vc60S:XTPDockingPane.obj
 0001:000ad040       ?OnVisibleChanged@CXTPToolTipContextToolTip@@MAEXH@Z 004ae040 f i ToolkitPro1501vc60S:XTPDockingPane.obj
 0001:000ad040       ?SetPaintManager@CXTPTabManager@@UAEXPAVCXTPTabPaintManager@@@Z 004ae040 f i ToolkitPro1501vc60S:XTPDockingPane.obj
 0001:000ad040       ?SetBeginGroup@CControlButtonHide@CXTPDialogBar@@UAEXH@Z 004ae040 f i ToolkitPro1501vc60S:XTPDockingPane.obj
 0001:000ad040       ?SetCurSel@CXTPControlComboBoxPopupBar@@UAEXH@Z 004ae040 f i ToolkitPro1501vc60S:XTPDockingPane.obj
 0001:000ad040       ?SetVisible@CXTPCommandBar@@UAEXH@Z 004ae040 f i ToolkitPro1501vc60S:XTPDockingPane.obj
 0001:000ad040       ?SetBeginGroup@CControlMDIButton@CXTPMenuBar@@UAEXH@Z 004ae040 f i ToolkitPro1501vc60S:XTPDockingPane.obj
 0001:000ad040       ?OnRenderFocusVisual@CXTPMarkupVisual@@MAEXPAVCXTPMarkupDrawingContext@@@Z 004ae040 f i ToolkitPro1501vc60S:XTPDockingPane.obj
 0001:000ad040       ?OnRender@CXTPMarkupVisual@@MAEXPAVCXTPMarkupDrawingContext@@@Z 004ae040 f i ToolkitPro1501vc60S:XTPDockingPane.obj
 0001:000ad040       ?OnNavigateButtonClick@CXTPTabManager@@MAEXI@Z 004ae040 f i ToolkitPro1501vc60S:XTPDockingPane.obj
 0001:000ad040       ?OnActionChanging@CXTPControl@@MAEXH@Z 004ae040 f i ToolkitPro1501vc60S:XTPDockingPane.obj
 0001:000ad040       ?SetBeginGroup@CControlButtonHide@CXTPToolBar@@UAEXH@Z 004ae040 f i ToolkitPro1501vc60S:XTPDockingPane.obj
 0001:000ad040       ?OnCaptionButtonRectChanged@CXTPDockingPaneBase@@MAEXPAVCXTPDockingPaneCaptionButton@@@Z 004ae040 f i ToolkitPro1501vc60S:XTPDockingPane.obj
 0001:000ad040       ?OnCalcDynamicSize@CXTPControl@@UAEXK@Z 004ae040 f i ToolkitPro1501vc60S:XTPDockingPane.obj
 0001:000ad040       ?SetBeginGroup@CControlButtonExpand@CXTPToolBar@@UAEXH@Z 004ae040 f i ToolkitPro1501vc60S:XTPDockingPane.obj
 0001:000ad040       ?SetFocused@CXTPControl@@UAEXH@Z 004ae040 f i ToolkitPro1501vc60S:XTPDockingPane.obj
 0001:000ad050       ?IsCaptionButtonVisible@CXTPDockingPaneBase@@MAEHPAVCXTPDockingPaneCaptionButton@@@Z 004ae050 f i ToolkitPro1501vc60S:XTPDockingPane.obj
 0001:000ad060       ??_ECXTPDockingPane@@MAEPAXI@Z 004ae060 f i ToolkitPro1501vc60S:XTPDockingPane.obj
 0001:000ad060       ??_GCXTPDockingPane@@MAEPAXI@Z 004ae060 f i ToolkitPro1501vc60S:XTPDockingPane.obj
 0001:000ad080       ??1CXTPDockingPane@@MAE@XZ 004ae080 f   ToolkitPro1501vc60S:XTPDockingPane.obj
 0001:000ad130       ?SetID@CXTPDockingPane@@IAEXH@Z 004ae130 f   ToolkitPro1501vc60S:XTPDockingPane.obj
 0001:000ad1a0       ?SetWindowRect@CXTPDockingPane@@IAEXVCRect@@@Z 004ae1a0 f   ToolkitPro1501vc60S:XTPDockingPane.obj
 0001:000ad1e0       ?GetEnabled@CXTPDockingPane@@QBE?AW4XTPDockingPaneEnableOptions@@XZ 004ae1e0 f   ToolkitPro1501vc60S:XTPDockingPane.obj
 0001:000ad200       ?OnSizeParent@CXTPDockingPane@@MAEXPAVCWnd@@VCRect@@PAX@Z 004ae200 f   ToolkitPro1501vc60S:XTPDockingPane.obj
 0001:000ad2d0       ?SetFocus@CXTPDockingPane@@UAEXXZ 004ae2d0 f   ToolkitPro1501vc60S:XTPDockingPane.obj
 0001:000ad300       ?IsFocus@CXTPDockingPane@@QBEHXZ 004ae300 f   ToolkitPro1501vc60S:XTPDockingPane.obj
 0001:000ad330       ?SetParentContainer@CXTPDockingPane@@MAEXPAVCXTPDockingPaneBase@@@Z 004ae330 f   ToolkitPro1501vc60S:XTPDockingPane.obj
 0001:000ad390       ?ShowWindow@CXTPDockingPane@@IAEXH@Z 004ae390 f   ToolkitPro1501vc60S:XTPDockingPane.obj
 0001:000ad3d0       ?Close@CXTPDockingPane@@QAEXXZ 004ae3d0 f   ToolkitPro1501vc60S:XTPDockingPane.obj
 0001:000ad3f0       ?Hide@CXTPDockingPane@@QAEXXZ 004ae3f0 f   ToolkitPro1501vc60S:XTPDockingPane.obj
 0001:000ad420       ?Select@CXTPDockingPane@@QAEXXZ 004ae420 f   ToolkitPro1501vc60S:XTPDockingPane.obj
 0001:000ad440       ?GetDockingSite@CXTPDockingPane@@UBEPAVCWnd@@XZ 004ae440 f   ToolkitPro1501vc60S:XTPDockingPane.obj
 0001:000ad450       ?Copy@CXTPDockingPane@@EAEXPAVCXTPDockingPaneBase@@PAV?$CMap@PAVCXTPDockingPaneBase@@PAV1@PAV1@PAV1@@@K@Z 004ae450 f   ToolkitPro1501vc60S:XTPDockingPane.obj
 0001:000ad480       ?Copy@CXTPDockingPane@@MAEXPAV1@@Z 004ae480 f   ToolkitPro1501vc60S:XTPDockingPane.obj
 0001:000ad530       ?IsValid@CXTPDockingPane@@QBEHXZ 004ae530 f   ToolkitPro1501vc60S:XTPDockingPane.obj
 0001:000ad540       ?Attach@CXTPDockingPane@@QAEXPAVCWnd@@@Z 004ae540 f   ToolkitPro1501vc60S:XTPDockingPane.obj
 0001:000ad5c0       ?GetTitle@CXTPDockingPane@@UBE?AVCString@@XZ 004ae5c0 f   ToolkitPro1501vc60S:XTPDockingPane.obj
 0001:000ad5e0       ?GetTabCaption@CXTPDockingPane@@UBE?AVCString@@XZ 004ae5e0 f   ToolkitPro1501vc60S:XTPDockingPane.obj
 0001:000ad630       ?SetTitle@CXTPDockingPane@@QAEXPBD@Z 004ae630 f   ToolkitPro1501vc60S:XTPDockingPane.obj
 0001:000ad6f0       ?IsClosed@CXTPDockingPane@@QBEHXZ 004ae6f0 f   ToolkitPro1501vc60S:XTPDockingPane.obj
 0001:000ad6f0       ?IsVisible@CXTPStatusBarPane@@QBEHXZ 004ae6f0 f   ToolkitPro1501vc60S:XTPDockingPane.obj
 0001:000ad700       ?IsHidden@CXTPDockingPane@@UBEHXZ 004ae700 f   ToolkitPro1501vc60S:XTPDockingPane.obj
 0001:000ad710       ?IsSelected@CXTPDockingPane@@QBEHXZ 004ae710 f   ToolkitPro1501vc60S:XTPDockingPane.obj
 0001:000ad730       ?IsFloating@CXTPDockingPane@@QBEHXZ 004ae730 f   ToolkitPro1501vc60S:XTPDockingPane.obj
 0001:000ad780       ?GetIcon@CXTPDockingPane@@UBEPAVCXTPImageManagerIcon@@H@Z 004ae780 f   ToolkitPro1501vc60S:XTPDockingPane.obj
 0001:000ad7b0       ?GetItemColor@CXTPDockingPane@@UBEKXZ 004ae7b0 f   ToolkitPro1501vc60S:XTPDockingPane.obj
 0001:000ad7f0       ?GetMinMaxInfo@CXTPDockingPane@@UBEXPAUtagMINMAXINFO@@@Z 004ae7f0 f   ToolkitPro1501vc60S:XTPDockingPane.obj
 0001:000ad830       ?GetOptions@CXTPDockingPane@@QBEKXZ 004ae830 f   ToolkitPro1501vc60S:XTPDockingPane.obj
 0001:000ad850       ?GetAccessible@CXTPDockingPane@@MAEPAVCCmdTarget@@XZ 004ae850 f   ToolkitPro1501vc60S:XTPDockingPane.obj
 0001:000ad860       ?GetAccessibleParent@CXTPDockingPane@@MAEJPAPAUIDispatch@@@Z 004ae860 f   ToolkitPro1501vc60S:XTPDockingPane.obj
 0001:000ad890       ?GetAccessibleChildCount@CXTPDockingPane@@MAEJPAJ@Z 004ae890 f   ToolkitPro1501vc60S:XTPDockingPane.obj
 0001:000ad8c0       ?GetAccessibleChild@CXTPDockingPane@@MAEJUtagVARIANT@@PAPAUIDispatch@@@Z 004ae8c0 f   ToolkitPro1501vc60S:XTPDockingPane.obj
 0001:000ad900       ?GetAccessibleName@CXTPDockingPane@@MAEJUtagVARIANT@@PAPAG@Z 004ae900 f   ToolkitPro1501vc60S:XTPDockingPane.obj
 0001:000ad990       ?GetAccessibleDescription@CXTPDockingPane@@MAEJUtagVARIANT@@PAPAG@Z 004ae990 f   ToolkitPro1501vc60S:XTPDockingPane.obj
 0001:000ada20       ?GetAccessibleRole@CXTPDockingPane@@MAEJUtagVARIANT@@PAU2@@Z 004aea20 f   ToolkitPro1501vc60S:XTPDockingPane.obj
 0001:000ada60       ?AccessibleSelect@CXTPDockingPane@@MAEJJUtagVARIANT@@@Z 004aea60 f   ToolkitPro1501vc60S:XTPDockingPane.obj
 0001:000ada90       ?GetAccessibleState@CXTPDockingPane@@MAEJUtagVARIANT@@PAU2@@Z 004aea90 f   ToolkitPro1501vc60S:XTPDockingPane.obj
 0001:000adaf0       ?GetAccessibleDefaultAction@CXTPDockingPane@@MAEJUtagVARIANT@@PAPAG@Z 004aeaf0 f   ToolkitPro1501vc60S:XTPDockingPane.obj
 0001:000adb20       ?AccessibleDoDefaultAction@CXTPDockingPane@@MAEJUtagVARIANT@@@Z 004aeb20 f   ToolkitPro1501vc60S:XTPDockingPane.obj
 0001:000adb50       ?AccessibleLocation@CXTPDockingPane@@MAEJPAJ000UtagVARIANT@@@Z 004aeb50 f   ToolkitPro1501vc60S:XTPDockingPane.obj
 0001:000adc70       ?AccessibleHitTest@CXTPDockingPane@@MAEJJJPAUtagVARIANT@@@Z 004aec70 f   ToolkitPro1501vc60S:XTPDockingPane.obj
 0001:000adc90       ?GetInterfaceMap@CXTPDockingPane@@MBEPBUAFX_INTERFACEMAP@@XZ 004aec90 f   ToolkitPro1501vc60S:XTPDockingPane.obj
 0001:000adca0       ??_ECXTPDockingPane@@OBM@AEPAXI@Z 004aeca0 f i ToolkitPro1501vc60S:XTPDockingPane.obj
 0001:000adcb0       ??_ECXTPDockingPane@@OFE@AEPAXI@Z 004aecb0 f i ToolkitPro1501vc60S:XTPDockingPane.obj
 0001:000add00       ??0CLogFont@CXTPPaintManager@@QAE@XZ 004aed00 f   ToolkitPro1501vc60S:XTPPaintManager.obj
 0001:000add20       ??0CXTPNonClientMetrics@@QAE@XZ 004aed20 f   ToolkitPro1501vc60S:XTPPaintManager.obj
 0001:000add20       ??0CNonClientMetrics@CXTPPaintManager@@QAE@XZ 004aed20 f   ToolkitPro1501vc60S:XTPPaintManager.obj
 0001:000add50       ?GetRuntimeClass@CXTPPaintManager@@UBEPAUCRuntimeClass@@XZ 004aed50 f   ToolkitPro1501vc60S:XTPPaintManager.obj
 0001:000add60       ??0CXTPPaintManager@@IAE@XZ 004aed60 f   ToolkitPro1501vc60S:XTPPaintManager.obj
 0001:000ae080       ??_ECXTPPaintManagerFont@@UAEPAXI@Z 004af080 f i ToolkitPro1501vc60S:XTPPaintManager.obj
 0001:000ae080       ??_GCXTPPaintManagerFont@@UAEPAXI@Z 004af080 f i ToolkitPro1501vc60S:XTPPaintManager.obj
 0001:000ae0a0       ??1CXTPPaintManagerFont@@UAE@XZ 004af0a0 f i ToolkitPro1501vc60S:XTPPaintManager.obj
 0001:000ae0e0       ?GetGalleryPaintManager@CXTPPaintManager@@UBEPAVCXTPControlGalleryPaintManager@@XZ 004af0e0 f i ToolkitPro1501vc60S:XTPPaintManager.obj
 0001:000ae0f0       ?GetSliderPaintManager@CXTPPaintManager@@UBEPAVCXTPSliderPaintManager@@XZ 004af0f0 f i ToolkitPro1501vc60S:XTPPaintManager.obj
 0001:000ae100       ?GetProgressPaintManager@CXTPPaintManager@@UBEPAVCXTPProgressPaintManager@@XZ 004af100 f i ToolkitPro1501vc60S:XTPPaintManager.obj
 0001:000ae110       ??_GCXTPPaintManager@@MAEPAXI@Z 004af110 f i ToolkitPro1501vc60S:XTPPaintManager.obj
 0001:000ae110       ??_ECXTPPaintManager@@MAEPAXI@Z 004af110 f i ToolkitPro1501vc60S:XTPPaintManager.obj
 0001:000ae130       ?GetCurrentSystemTheme@CXTPPaintManager@@QAE?AW4XTPCurrentSystemTheme@@XZ 004af130 f   ToolkitPro1501vc60S:XTPPaintManager.obj
 0001:000ae170       ?GetXtremeColor@CXTPPaintManager@@QAEKI@Z 004af170 f   ToolkitPro1501vc60S:XTPPaintManager.obj
 0001:000ae1a0       ?SetColors@CXTPPaintManager@@QAEXHPBHPBK@Z 004af1a0 f   ToolkitPro1501vc60S:XTPPaintManager.obj
 0001:000ae1d0       ??1CXTPPaintManager@@MAE@XZ 004af1d0 f   ToolkitPro1501vc60S:XTPPaintManager.obj
 0001:000ae3a0       ?GetIconsInfo@CXTPPaintManager@@QAEPAUXTP_COMMANDBARS_ICONSINFO@@XZ 004af3a0 f   ToolkitPro1501vc60S:XTPPaintManager.obj
 0001:000ae3b0       ?UpdateColors@CXTPPaintManager@@UAEXXZ 004af3b0 f   ToolkitPro1501vc60S:XTPPaintManager.obj
 0001:000ae3e0       ?RefreshMetrics@CXTPPaintManager@@UAEXXZ 004af3e0 f   ToolkitPro1501vc60S:XTPPaintManager.obj
 0001:000ae510       ?GetFramePaintManager@CXTPPaintManager@@UAEPAVCXTPFramePaintManager@@XZ 004af510 f   ToolkitPro1501vc60S:XTPPaintManager.obj
 0001:000ae590       ?GetRibbonPaintManager@CXTPPaintManager@@UAEPAVCXTPRibbonPaintManager@@XZ 004af590 f   ToolkitPro1501vc60S:XTPPaintManager.obj
 0001:000ae610       ?GetControlHeight@CXTPPaintManager@@QBEHXZ 004af610 f   ToolkitPro1501vc60S:XTPPaintManager.obj
 0001:000ae630       ?CreateTheme@CXTPPaintManager@@SAPAV1@W4XTPPaintTheme@@@Z 004af630 f   ToolkitPro1501vc60S:XTPPaintManager.obj
 0001:000ae840       ??_GCXTPDefaultTheme@@UAEPAXI@Z 004af840 f i ToolkitPro1501vc60S:XTPPaintManager.obj
 0001:000ae840       ??_GCXTPOfficeTheme@@UAEPAXI@Z 004af840 f i ToolkitPro1501vc60S:XTPPaintManager.obj
 0001:000ae840       ??_ECXTPDefaultTheme@@UAEPAXI@Z 004af840 f i ToolkitPro1501vc60S:XTPPaintManager.obj
 0001:000ae840       ??_GCXTPVisualStudio6Theme@@UAEPAXI@Z 004af840 f i ToolkitPro1501vc60S:XTPPaintManager.obj
 0001:000ae840       ??_ECXTPOfficeTheme@@UAEPAXI@Z 004af840 f i ToolkitPro1501vc60S:XTPPaintManager.obj
 0001:000ae840       ??_ECXTPVisualStudio6Theme@@UAEPAXI@Z 004af840 f i ToolkitPro1501vc60S:XTPPaintManager.obj
 0001:000ae860       ?SetTheme@CXTPPaintManager@@SAXW4XTPPaintTheme@@@Z 004af860 f   ToolkitPro1501vc60S:XTPPaintManager.obj
 0001:000ae890       ?SetCustomTheme@CXTPPaintManager@@SAXPAV1@@Z 004af890 f   ToolkitPro1501vc60S:XTPPaintManager.obj
 0001:000ae8c0       ?Done@CXTPPaintManager@@SAXXZ 004af8c0 f   ToolkitPro1501vc60S:XTPPaintManager.obj
 0001:000ae8e0       ?Triangle@CXTPPaintManager@@SAXPAVCDC@@VCPoint@@11K@Z 004af8e0 f   ToolkitPro1501vc60S:XTPPaintManager.obj
 0001:000ae9b0       ?Rectangle@CXTPPaintManager@@QAEXPAVCDC@@VCRect@@HH@Z 004af9b0 f   ToolkitPro1501vc60S:XTPPaintManager.obj
 0001:000aea10       ?Draw3dRect@CXTPPaintManager@@QAEXPAVCDC@@VCRect@@HH@Z 004afa10 f   ToolkitPro1501vc60S:XTPPaintManager.obj
 0001:000aea40       ?_DrawCheckMark@CXTPPaintManager@@IAEXPAVCDC@@VCRect@@KH@Z 004afa40 f   ToolkitPro1501vc60S:XTPPaintManager.obj
 0001:000aeba0       ?AlphaEllipse@CXTPPaintManager@@QAEXPAVCDC@@VCRect@@KK@Z 004afba0 f   ToolkitPro1501vc60S:XTPPaintManager.obj
 0001:000aede0       ?DrawPopupBarRadioMark@CXTPPaintManager@@UAEXPAVCDC@@VCRect@@HK@Z 004afde0 f   ToolkitPro1501vc60S:XTPPaintManager.obj
 0001:000aee40       ?DrawPopupBarCheckMark@CXTPPaintManager@@UAEXPAVCDC@@VCRect@@HK@Z 004afe40 f   ToolkitPro1501vc60S:XTPPaintManager.obj
 0001:000aeed0       ?DrawComboExpandMark@CXTPPaintManager@@UAEXPAVCDC@@VCRect@@K@Z 004afed0 f   ToolkitPro1501vc60S:XTPPaintManager.obj
 0001:000aef50       ?HorizontalLine@CXTPPaintManager@@QAEXPAVCDC@@HHHK@Z 004aff50 f   ToolkitPro1501vc60S:XTPPaintManager.obj
 0001:000aef80       ?VerticalLine@CXTPPaintManager@@QAEXPAVCDC@@HHHK@Z 004aff80 f   ToolkitPro1501vc60S:XTPPaintManager.obj
 0001:000aefb0       ?Line@CXTPPaintManager@@QAEXPAVCDC@@VCPoint@@1@Z 004affb0 f   ToolkitPro1501vc60S:XTPPaintManager.obj
 0001:000aefe0       ?Line@CXTPPaintManager@@QAEXPAVCDC@@HHHHH@Z 004affe0 f   ToolkitPro1501vc60S:XTPPaintManager.obj
 0001:000af080       ?StripMnemonics@CXTPPaintManager@@SAXAAVCString@@@Z 004b0080 f   ToolkitPro1501vc60S:XTPPaintManager.obj
 0001:000af090       ?SplitString@CXTPPaintManager@@IAEXABVCString@@AAV2@1@Z 004b0090 f   ToolkitPro1501vc60S:XTPPaintManager.obj
 0001:000af1e0       ?DrawTextApi@CXTPPaintManager@@SAXPAVCDC@@ABVCString@@PAUtagRECT@@IH@Z 004b01e0 f   ToolkitPro1501vc60S:XTPPaintManager.obj
 0001:000af440       ?DrawControlText3@CXTPPaintManager@@IAEXPAVCDC@@PAVCXTPControl@@ABVCString@@2VCRect@@HH@Z 004b0440 f   ToolkitPro1501vc60S:XTPPaintManager.obj
 0001:000af680       ?DrawDropDownGlyph@CXTPPaintManager@@UAEXPAVCDC@@PAVCXTPControl@@VCPoint@@HHHH@Z 004b0680 f   ToolkitPro1501vc60S:XTPPaintManager.obj
 0001:000af700       ?DrawControlText2@CXTPPaintManager@@QAE?AVCSize@@PAVCDC@@PAVCXTPControl@@VCRect@@HHH@Z 004b0700 f   ToolkitPro1501vc60S:XTPPaintManager.obj
 0001:000afc50       ?DrawControlText@CXTPPaintManager@@QAE?AVCSize@@PAVCDC@@PAVCXTPControl@@VCRect@@HHHH@Z 004b0c50 f   ToolkitPro1501vc60S:XTPPaintManager.obj
 0001:000affc0       ?FontExists@CXTPPaintManager@@SAHPBD@Z 004b0fc0 f   ToolkitPro1501vc60S:XTPPaintManager.obj
 0001:000affd0       ?SetCommandBarsFontIndirect@CXTPPaintManager@@QAEXPAUtagLOGFONTA@@H@Z 004b0fd0 f   ToolkitPro1501vc60S:XTPPaintManager.obj
 0001:000b01f0       ?UpdateFonts@CXTPPaintManager@@UAEXXZ 004b11f0 f   ToolkitPro1501vc60S:XTPPaintManager.obj
 0001:000b0440       ?DrawControlEntry@CXTPPaintManager@@UAEXPAVCDC@@PAVCXTPControl@@@Z 004b1440 f   ToolkitPro1501vc60S:XTPPaintManager.obj
 0001:000b0520       ?GetControlTextColor@CXTPPaintManager@@UAEKPAVCXTPControl@@@Z 004b1520 f   ToolkitPro1501vc60S:XTPPaintManager.obj
 0001:000b0620       ?GetPopupBarGripperWidth@CXTPPaintManager@@UAEHPAVCXTPCommandBar@@@Z 004b1620 f   ToolkitPro1501vc60S:XTPPaintManager.obj
 0001:000b0690       ?GetControlEditBackColor@CXTPPaintManager@@UAEKPAVCXTPControl@@@Z 004b1690 f   ToolkitPro1501vc60S:XTPPaintManager.obj
 0001:000b06c0       ?DrawControlEdit@CXTPPaintManager@@UAE?AVCSize@@PAVCDC@@PAVCXTPControlEdit@@H@Z 004b16c0 f   ToolkitPro1501vc60S:XTPPaintManager.obj
 0001:000b0b40       ?DrawControlComboBox@CXTPPaintManager@@UAE?AVCSize@@PAVCDC@@PAVCXTPControlComboBox@@H@Z 004b1b40 f   ToolkitPro1501vc60S:XTPPaintManager.obj
 0001:000b1030       ?DrawControl@CXTPPaintManager@@QAE?AVCSize@@PAVCDC@@PAVCXTPControl@@H@Z 004b2030 f   ToolkitPro1501vc60S:XTPPaintManager.obj
 0001:000b10e0       ?FillDockBar@CXTPPaintManager@@UAEXPAVCDC@@PAVCXTPDockBar@@@Z 004b20e0 f   ToolkitPro1501vc60S:XTPPaintManager.obj
 0001:000b1120       ?FillMessageBar@CXTPPaintManager@@UAEXPAVCDC@@PAVCXTPMessageBar@@@Z 004b2120 f   ToolkitPro1501vc60S:XTPPaintManager.obj
 0001:000b11d0       ?DrawMessageBarButton@CXTPPaintManager@@UAEXPAVCDC@@PAVCXTPMessageBarButton@@@Z 004b21d0 f   ToolkitPro1501vc60S:XTPPaintManager.obj
 0001:000b1420       ?FillStatusBar@CXTPPaintManager@@UAEXPAVCDC@@PAVCXTPStatusBar@@@Z 004b2420 f   ToolkitPro1501vc60S:XTPPaintManager.obj
 0001:000b14a0       ?GetControlTextOrientation@CXTPPaintManager@@UAE?AW4XTPBarTextOrientation@@PAVCXTPControl@@@Z 004b24a0 f   ToolkitPro1501vc60S:XTPPaintManager.obj
 0001:000b14e0       ?GetControlFont@CXTPPaintManager@@UAEPAVCFont@@PAVCXTPControl@@@Z 004b24e0 f   ToolkitPro1501vc60S:XTPPaintManager.obj
 0001:000b1540       ?GetCommandBarFont@CXTPPaintManager@@UAEPAVCFont@@PAVCXTPCommandBar@@@Z 004b2540 f   ToolkitPro1501vc60S:XTPPaintManager.obj
 0001:000b1580       ?DrawSpecialControl@CXTPPaintManager@@UAE?AVCSize@@PAVCDC@@W4XTPSpecialControl@@PAVCXTPControl@@PAVCXTPCommandBar@@HPAX@Z 004b2580 f   ToolkitPro1501vc60S:XTPPaintManager.obj
 0001:000b1c20       ?DrawControlText@CXTPPaintManager@@IAE?AVCSize@@PAVCDC@@PAVCXTPControl@@VCRect@@HHV2@H@Z 004b2c20 f   ToolkitPro1501vc60S:XTPPaintManager.obj
 0001:000b1df0       ??0CRect@@QAE@PBUtagRECT@@@Z 004b2df0 f i ToolkitPro1501vc60S:XTPPaintManager.obj
 0001:000b1df0       ??0CRect@@QAE@ABUtagRECT@@@Z 004b2df0 f i ToolkitPro1501vc60S:XTPPaintManager.obj
 0001:000b1e10       ?GetSplitButtonCommandRect@CXTPPaintManager@@UAE?AVCRect@@PAVCXTPControl@@@Z 004b2e10 f   ToolkitPro1501vc60S:XTPPaintManager.obj
 0001:000b1f10       ?DrawControlCheckBoxMark@CXTPPaintManager@@UAE?AVCSize@@PAVCDC@@VCRect@@HHHHH@Z 004b2f10 f   ToolkitPro1501vc60S:XTPPaintManager.obj
 0001:000b1ff0       ?DrawControlRadioButtonMark@CXTPPaintManager@@UAE?AVCSize@@PAVCDC@@VCRect@@HHHHH@Z 004b2ff0 f   ToolkitPro1501vc60S:XTPPaintManager.obj
 0001:000b20e0       ?GetControlSize@CXTPPaintManager@@IAE?AVCSize@@PAVCXTPControl@@V2@H@Z 004b30e0 f   ToolkitPro1501vc60S:XTPPaintManager.obj
 0001:000b2160       ?GetPopupBarImageSize@CXTPPaintManager@@MAE?AVCSize@@PAVCXTPCommandBar@@@Z 004b3160 f   ToolkitPro1501vc60S:XTPPaintManager.obj
 0001:000b21b0       ?DrawPopupBarText@CXTPPaintManager@@MAEXPAVCDC@@ABVCString@@AAVCRect@@IHHH@Z 004b31b0 f   ToolkitPro1501vc60S:XTPPaintManager.obj
 0001:000b22c0       ?DrawControlPopupParent@CXTPPaintManager@@UAE?AVCSize@@PAVCDC@@PAVCXTPControl@@H@Z 004b32c0 f   ToolkitPro1501vc60S:XTPPaintManager.obj
 0001:000b2960       ?GetShortcutText@CXTPControl@@QBE?AVCString@@XZ 004b3960 f i ToolkitPro1501vc60S:XTPPaintManager.obj
 0001:000b2a40       ?GetShortcutText@CXTPControlAction@@QBE?AVCString@@XZ 004b3a40 f i ToolkitPro1501vc60S:XTPPaintManager.obj
 0001:000b2a60       ?GetIconSize@CXTPPaintManager@@IAE?AVCSize@@PAVCXTPControl@@@Z 004b3a60 f   ToolkitPro1501vc60S:XTPPaintManager.obj
 0001:000b2ac0       ?GetSplitDropDownHeight@CXTPPaintManager@@QBEHXZ 004b3ac0 f   ToolkitPro1501vc60S:XTPPaintManager.obj
 0001:000b2af0       ?GetStretchIconSize@CXTPPaintManager@@IAE?AVCSize@@PAVCXTPImageManagerIcon@@V2@@Z 004b3af0 f   ToolkitPro1501vc60S:XTPPaintManager.obj
 0001:000b2b80       ?DrawControlToolBarParent@CXTPPaintManager@@UAE?AVCSize@@PAVCDC@@PAVCXTPControl@@H@Z 004b3b80 f   ToolkitPro1501vc60S:XTPPaintManager.obj
 0001:000b3a90       ?GetCommandBarBorders@CXTPPaintManager@@UAE?AVCRect@@PAVCXTPCommandBar@@@Z 004b4a90 f   ToolkitPro1501vc60S:XTPPaintManager.obj
 0001:000b3ac0       ?GradientFill@CXTPPaintManager@@QAEXPAVCDC@@PAUtagRECT@@KKHPBU3@@Z 004b4ac0 f   ToolkitPro1501vc60S:XTPPaintManager.obj
 0001:000b3af0       ?DrawStatusBarGripper@CXTPPaintManager@@UAEXPAVCDC@@VCRect@@@Z 004b4af0 f   ToolkitPro1501vc60S:XTPPaintManager.obj
 0001:000b3cf0       ?AnimateExpanding@CXTPPaintManager@@UAEXPAVCXTPCommandBar@@PAVCDC@@1H@Z 004b4cf0 f   ToolkitPro1501vc60S:XTPPaintManager.obj
 0001:000b4050       ?AlphaBlendU@CXTPPaintManager@@IAEXPAE0HH0E@Z 004b5050 f   ToolkitPro1501vc60S:XTPPaintManager.obj
 0001:000b4100       ?Animate@CXTPPaintManager@@UAEXPAVCDC@@0VCRect@@W4XTPAnimationType@@@Z 004b5100 f   ToolkitPro1501vc60S:XTPPaintManager.obj
 0001:000b4570       ?DrawStatusBarButtonFace@CXTPPaintManager@@UAEXPAVCDC@@VCRect@@PAVCXTPStatusBarPane@@@Z 004b5570 f   ToolkitPro1501vc60S:XTPPaintManager.obj
 0001:000b4600       ?DrawStatusBarPaneBorder@CXTPPaintManager@@UAEXPAVCDC@@VCRect@@PAVCXTPStatusBarPane@@H@Z 004b5600 f   ToolkitPro1501vc60S:XTPPaintManager.obj
 0001:000b4690       ?DrawStatusBarPaneSeparator@CXTPPaintManager@@UAEXPAVCDC@@VCRect@@PAVCXTPStatusBarPane@@@Z 004b5690 f   ToolkitPro1501vc60S:XTPPaintManager.obj
 0001:000b46d0       ?DrawStatusBarPaneEntry@CXTPPaintManager@@UAEXPAVCDC@@VCRect@@PAVCXTPStatusBarPane@@@Z 004b56d0 f   ToolkitPro1501vc60S:XTPPaintManager.obj
 0001:000b4ac0       ??0CPoint@@QAE@HH@Z        004b5ac0 f i ToolkitPro1501vc60S:XTPPaintManager.obj
 0001:000b4ae0       ?DrawStatusBarSwitchPane@CXTPPaintManager@@UAEHPAVCDC@@VCRect@@PAVCXTPStatusBarSwitchPane@@@Z 004b5ae0 f   ToolkitPro1501vc60S:XTPPaintManager.obj
 0001:000b4ca0       ?DrawCommandBarGripper@CXTPPaintManager@@UAE?AVCSize@@PAVCDC@@PAVCXTPCommandBar@@H@Z 004b5ca0 f   ToolkitPro1501vc60S:XTPPaintManager.obj
 0001:000b4e70       ?IsFlatToolBar@CXTPPaintManager@@MAEHPAVCXTPCommandBar@@@Z 004b5e70 f   ToolkitPro1501vc60S:XTPPaintManager.obj
 0001:000b4e90       ?FillWorkspace@CXTPPaintManager@@UAEXPAVCDC@@VCRect@@1@Z 004b5e90 f   ToolkitPro1501vc60S:XTPPaintManager.obj
 0001:000b4eb0       ?FillCompositeAlpha@CXTPPaintManager@@SAXPAVCDC@@VCRect@@@Z 004b5eb0 f   ToolkitPro1501vc60S:XTPPaintManager.obj
 0001:000b4fe0       ?DrawKeyboardTip@CXTPPaintManager@@UAEXPAVCDC@@PAVCXTPCommandBarKeyboardTip@@H@Z 004b5fe0 f   ToolkitPro1501vc60S:XTPPaintManager.obj
 0001:000b50d0       ?GetAutoIconSize@CXTPPaintManager@@QBE?AVCSize@@H@Z 004b60d0 f   ToolkitPro1501vc60S:XTPPaintManager.obj
 0001:000b5170       ?DrawControlMDIButton@CXTPPaintManager@@UAEXPAVCDC@@PAVCXTPControlButton@@@Z 004b6170 f   ToolkitPro1501vc60S:XTPPaintManager.obj
 0001:000b5290       ??0CXTPPaintManagerColor@@QAE@XZ 004b6290 f   ToolkitPro1501vc60S:XTPColorManager.obj
 0001:000b52b0       ??0CXTPPaintManagerColor@@QAE@K@Z 004b62b0 f   ToolkitPro1501vc60S:XTPColorManager.obj
 0001:000b52d0       ?Serialize@CXTPPaintManagerColor@@UAEXAAVCArchive@@@Z 004b62d0 f   ToolkitPro1501vc60S:XTPColorManager.obj
 0001:000b5390       ??0CXTPPaintManagerColorGradient@@QAE@XZ 004b6390 f   ToolkitPro1501vc60S:XTPColorManager.obj
 0001:000b53c0       ??0CXTPPaintManagerColorGradient@@QAE@K@Z 004b63c0 f   ToolkitPro1501vc60S:XTPColorManager.obj
 0001:000b5400       ?SetStandardValue@CXTPPaintManagerColorGradient@@QAEXK@Z 004b6400 f   ToolkitPro1501vc60S:XTPColorManager.obj
 0001:000b5420       ?SetStandardValue@CXTPPaintManagerColorGradient@@QAEXKKM@Z 004b6420 f   ToolkitPro1501vc60S:XTPColorManager.obj
 0001:000b5440       ?SetStandardValue@CXTPPaintManagerColorGradient@@QAEXAAV1@@Z 004b6440 f   ToolkitPro1501vc60S:XTPColorManager.obj
 0001:000b5470       ?Serialize@CXTPPaintManagerColorGradient@@UAEXAAVCArchive@@@Z 004b6470 f   ToolkitPro1501vc60S:XTPColorManager.obj
 0001:000b5500       ??0CXTPColorManager@@AAE@XZ 004b6500 f   ToolkitPro1501vc60S:XTPColorManager.obj
 0001:000b5650       ?Instance@CXTPColorManager@@CAAAV1@XZ 004b6650 f   ToolkitPro1501vc60S:XTPColorManager.obj
 0001:000b56a0       ?ColorWidth@CXTPColorManager@@AAEMHH@Z 004b66a0 f   ToolkitPro1501vc60S:XTPColorManager.obj
 0001:000b56d0       ?ColorDelta@CXTPColorManager@@AAEMKK@Z 004b66d0 f   ToolkitPro1501vc60S:XTPColorManager.obj
 0001:000b5760       ?Length@CXTPColorManager@@AAEMKK@Z 004b6760 f   ToolkitPro1501vc60S:XTPColorManager.obj
 0001:000b5780       ?LongColor@CXTPColorManager@@QAEHKKHM@Z 004b6780 f   ToolkitPro1501vc60S:XTPColorManager.obj
 0001:000b5800       ?MixColor@CXTPColorManager@@AAEKKKM@Z 004b6800 f   ToolkitPro1501vc60S:XTPColorManager.obj
 0001:000b5b90       ?AdjustColor@CXTPColorManager@@AAEKKKM@Z 004b6b90 f   ToolkitPro1501vc60S:XTPColorManager.obj
 0001:000b5e20       ?LightColor@CXTPColorManager@@QBEKKKH@Z 004b6e20 f   ToolkitPro1501vc60S:XTPColorManager.obj
 0001:000b5ee0       ?GetColor@CXTPColorManager@@QBEKH@Z 004b6ee0 f   ToolkitPro1501vc60S:XTPColorManager.obj
 0001:000b5f10       ?RefreshSysColors@CXTPColorManager@@AAEXXZ 004b6f10 f   ToolkitPro1501vc60S:XTPColorManager.obj
 0001:000b5f60       ?RefreshXPColors@CXTPColorManager@@AAEXXZ 004b6f60 f   ToolkitPro1501vc60S:XTPColorManager.obj
 0001:000b60c0       ?RefreshGradientColors@CXTPColorManager@@AAEXXZ 004b70c0 f   ToolkitPro1501vc60S:XTPColorManager.obj
 0001:000b6530       ?RefreshXtremeColors@@YAXXZ 004b7530 f   ToolkitPro1501vc60S:XTPColorManager.obj
 0001:000b6540       ?IsLowResolution@CXTPColorManager@@QAEHPAUHDC__@@@Z 004b7540 f   ToolkitPro1501vc60S:XTPColorManager.obj
 0001:000b65c0       ?RefreshColors@CXTPColorManager@@QAEXXZ 004b75c0 f   ToolkitPro1501vc60S:XTPColorManager.obj
 0001:000b7000       ?GetLunaColor@CXTPColorManager@@QBEKH@Z 004b8000 f   ToolkitPro1501vc60S:XTPColorManager.obj
 0001:000b7030       ?RefreshLunaColors@CXTPColorManager@@QAEXXZ 004b8030 f   ToolkitPro1501vc60S:XTPColorManager.obj
 0001:000b72f0       ?GetRDelta@CXTPColorManager@@AAENK@Z 004b82f0 f   ToolkitPro1501vc60S:XTPColorManager.obj
 0001:000b7310       ?GetGDelta@CXTPColorManager@@AAENK@Z 004b8310 f   ToolkitPro1501vc60S:XTPColorManager.obj
 0001:000b7330       ?GetBDelta@CXTPColorManager@@AAENK@Z 004b8330 f   ToolkitPro1501vc60S:XTPColorManager.obj
 0001:000b7350       ?DisableLunaColors@CXTPColorManager@@QAEXH@Z 004b8350 f   ToolkitPro1501vc60S:XTPColorManager.obj
 0001:000b7360       ?IsLunaColorsDisabled@CXTPColorManager@@QBEHXZ 004b8360 f   ToolkitPro1501vc60S:XTPColorManager.obj
 0001:000b7370       ?GetWinThemeWrapperTheme@CXTPColorManager@@QBE?AW4XTPCurrentSystemTheme@@XZ 004b8370 f   ToolkitPro1501vc60S:XTPColorManager.obj
 0001:000b7380       ?_GetWinThemeWrapperTheme@CXTPColorManager@@AAE?AW4XTPCurrentSystemTheme@@XZ 004b8380 f   ToolkitPro1501vc60S:XTPColorManager.obj
 0001:000b7640       ?GetCurrentSystemTheme@CXTPColorManager@@QBE?AW4XTPCurrentSystemTheme@@XZ 004b8640 f   ToolkitPro1501vc60S:XTPColorManager.obj
 0001:000b76c0       ?BitmapsCompatible@CXTPImageManager@@ABEHPAUtagBITMAP@@0@Z 004b86c0 f   ToolkitPro1501vc60S:XTPImageManager.obj
 0001:000b7710       ?McTransparentBlt@CXTPImageManager@@ABEHPAUHDC__@@HHHH0HHHHI@Z 004b8710 f   ToolkitPro1501vc60S:XTPImageManager.obj
 0001:000b79b0       ?IsWindow2000@CXTPImageManager@@ABEHXZ 004b89b0 f   ToolkitPro1501vc60S:XTPImageManager.obj
 0001:000b79d0       ?TransparentBlt@CXTPImageManager@@QBEHPAUHDC__@@ABVCRect@@01I@Z 004b89d0 f   ToolkitPro1501vc60S:XTPImageManager.obj
 0001:000b7aa0       ?BlendImages@CXTPImageManager@@ABEHPAUHBITMAP__@@H0H0@Z 004b8aa0 f   ToolkitPro1501vc60S:XTPImageManager.obj
 0001:000b7ce0       ?Create32BPPDIBSection@CXTPImageManager@@SAPAUHBITMAP__@@PAUHDC__@@HHPAPAE@Z 004b8ce0 f   ToolkitPro1501vc60S:XTPImageManager.obj
 0001:000b7d50       ?DoAlphaBlend@CXTPImageManager@@ABEHPAUHDC__@@HHHH0HHHH@Z 004b8d50 f   ToolkitPro1501vc60S:XTPImageManager.obj
 0001:000b7f90       ?AlphaBlend@CXTPImageManager@@QBEHPAUHDC__@@ABVCRect@@01@Z 004b8f90 f   ToolkitPro1501vc60S:XTPImageManager.obj
 0001:000b80e0       ??1CXTPImageManagerImageList@@QAE@XZ 004b90e0 f   ToolkitPro1501vc60S:XTPImageManager.obj
 0001:000b8190       ?RemoveAll@CXTPImageManagerImageList@@QAEXXZ 004b9190 f   ToolkitPro1501vc60S:XTPImageManager.obj
 0001:000b8240       ?Lookup@CXTPImageManagerImageList@@QAEHI@Z 004b9240 f   ToolkitPro1501vc60S:XTPImageManager.obj
 0001:000b8270       ?GetIconSize@CXTPImageManagerImageList@@QBE?AVCSize@@XZ 004b9270 f   ToolkitPro1501vc60S:XTPImageManager.obj
 0001:000b82b0       ?GetIcon@CXTPImageManagerImageList@@QAEPAVCXTPImageManagerIcon@@I@Z 004b92b0 f   ToolkitPro1501vc60S:XTPImageManager.obj
 0001:000b8450       ?Draw@CXTPImageManagerImageList@@QAEXPAVCDC@@VCPoint@@PAVCXTPImageManagerIcon@@VCSize@@KKI@Z 004b9450 f   ToolkitPro1501vc60S:XTPImageManager.obj
 0001:000b84b0       ?IsAlphaBitmapFile@CXTPImageManagerIcon@@SAHPBD@Z 004b94b0 f   ToolkitPro1501vc60S:XTPImageManager.obj
 0001:000b8550       ?IsPngBitmapFile@CXTPImageManagerIcon@@SAHPBD@Z 004b9550 f   ToolkitPro1501vc60S:XTPImageManager.obj
 0001:000b85f0       ?LoadBitmapFromFile@CXTPImageManagerIcon@@SAPAUHBITMAP__@@PBDPAH@Z 004b95f0 f   ToolkitPro1501vc60S:XTPImageManager.obj
 0001:000b8890       ??1CXTPGraphicBitmapPng@@UAE@XZ 004b9890 f i ToolkitPro1501vc60S:XTPImageManager.obj
 0001:000b88d0       ?IsPngBitmapResource@CXTPImageManagerIcon@@SAHPAUHINSTANCE__@@PBD@Z 004b98d0 f   ToolkitPro1501vc60S:XTPImageManager.obj
 0001:000b8930       ?IsAlphaBitmapResource@CXTPImageManagerIcon@@SAHPAUHINSTANCE__@@PBD@Z 004b9930 f   ToolkitPro1501vc60S:XTPImageManager.obj
 0001:000b8980       ?LoadBitmapFromResource@CXTPImageManagerIcon@@SAPAUHBITMAP__@@PBDPAH@Z 004b9980 f   ToolkitPro1501vc60S:XTPImageManager.obj
 0001:000b8ae0       ?LoadBitmapFromResource@CXTPImageManagerIcon@@SAPAUHBITMAP__@@PAUHINSTANCE__@@PBDPAH@Z 004b9ae0 f   ToolkitPro1501vc60S:XTPImageManager.obj
 0001:000b8c30       ?LoadAlphaBitmap@CXTPImageManagerIcon@@SAPAUHBITMAP__@@I@Z 004b9c30 f   ToolkitPro1501vc60S:XTPImageManager.obj
 0001:000b8c50       ?LoadAlphaBitmap@CXTPImageManagerIcon@@SAPAUHBITMAP__@@PAUHINSTANCE__@@PBD@Z 004b9c50 f   ToolkitPro1501vc60S:XTPImageManager.obj
 0001:000b8e00       ?LoadAlphaIcon@CXTPImageManagerIcon@@SAPAUHBITMAP__@@PBDH@Z 004b9e00 f   ToolkitPro1501vc60S:XTPImageManager.obj
 0001:000b90b0       ?SetIconFromIcoFile@CXTPImageManager@@QAEHPBDIVCSize@@W4XTPImageState@@@Z 004ba0b0 f   ToolkitPro1501vc60S:XTPImageManager.obj
 0001:000b9420       ??0CXTPImageManagerResource@@QAE@PAVCXTPImageManager@@VCSize@@@Z 004ba420 f   ToolkitPro1501vc60S:XTPImageManager.obj
 0001:000b94f0       ??1CBitmapDC@CXTPImageManagerResource@@UAE@XZ 004ba4f0 f i ToolkitPro1501vc60S:XTPImageManager.obj
 0001:000b9530       ??_GCBitmapDC@CXTPImageManagerResource@@UAEPAXI@Z 004ba530 f i ToolkitPro1501vc60S:XTPImageManager.obj
 0001:000b9530       ??_ECBitmapDC@CXTPImageManagerResource@@UAEPAXI@Z 004ba530 f i ToolkitPro1501vc60S:XTPImageManager.obj
 0001:000b9550       ??1CXTPImageManagerResource@@QAE@XZ 004ba550 f   ToolkitPro1501vc60S:XTPImageManager.obj
 0001:000b9610       ?RemoveAll@CXTPImageManagerResource@@AAEXXZ 004ba610 f   ToolkitPro1501vc60S:XTPImageManager.obj
 0001:000b96b0       ?GetResource@CXTPImageManager@@QAEPAVCXTPImageManagerResource@@VCSize@@@Z 004ba6b0 f   ToolkitPro1501vc60S:XTPImageManager.obj
 0001:000b9840       ?AllocBitmap@CXTPImageManagerResource@@AAEPAUXTP_IMAGERESOURCE_INFO@@XZ 004ba840 f   ToolkitPro1501vc60S:XTPImageManager.obj
 0001:000b9bf0       ?Clear@CXTPImageManagerResource@@QAEXPAUXTP_IMAGERESOURCE_INFO@@@Z 004babf0 f   ToolkitPro1501vc60S:XTPImageManager.obj
 0001:000b9cc0       ?IsAlphaIconHandle@CXTPImageManagerIcon@@SAHPAUHICON__@@@Z 004bacc0 f   ToolkitPro1501vc60S:XTPImageManager.obj
 0001:000b9d70       ?Add@CXTPImageManagerResource@@QAEPAUXTP_IMAGERESOURCE_INFO@@ABVCXTPImageManagerIconHandle@@@Z 004bad70 f   ToolkitPro1501vc60S:XTPImageManager.obj
 0001:000ba0d0       ?IsDrawReverted@CXTPImageManager@@QBEHPAVCDC@@@Z 004bb0d0 f   ToolkitPro1501vc60S:XTPImageManager.obj
 0001:000ba100       ?CreateIcon@CXTPImageManagerResource@@QAEXAAVCXTPImageManagerIconHandle@@PAUXTP_IMAGERESOURCE_INFO@@@Z 004bb100 f   ToolkitPro1501vc60S:XTPImageManager.obj
 0001:000ba330       ?DrawIconComposited@CXTPImageManagerResource@@AAEXPAVCDC@@PAUXTP_IMAGERESOURCE_INFO@@VCPoint@@VCSize@@@Z 004bb330 f   ToolkitPro1501vc60S:XTPImageManager.obj
 0001:000ba5b0       ?Draw@CXTPImageManagerResource@@QAEXPAVCDC@@PAUXTP_IMAGERESOURCE_INFO@@VCPoint@@VCSize@@H@Z 004bb5b0 f   ToolkitPro1501vc60S:XTPImageManager.obj
 0001:000ba8c0       ?GetExtent@CXTPImageManagerResource@@QBE?AVCSize@@XZ 004bb8c0 f   ToolkitPro1501vc60S:XTPImageManager.obj
 0001:000ba8e0       ?Init@CXTPImageManagerIconHandle@@IAEXXZ 004bb8e0 f   ToolkitPro1501vc60S:XTPImageManager.obj
 0001:000ba910       ??0CXTPImageManagerIconHandle@@QAE@XZ 004bb910 f   ToolkitPro1501vc60S:XTPImageManager.obj
 0001:000ba920       ??0CXTPImageManagerIconHandle@@QAE@PAUHICON__@@H@Z 004bb920 f   ToolkitPro1501vc60S:XTPImageManager.obj
 0001:000ba960       ??0CXTPImageManagerIconHandle@@QAE@PAUHBITMAP__@@@Z 004bb960 f   ToolkitPro1501vc60S:XTPImageManager.obj
 0001:000ba9a0       ?CopyHandle@CXTPImageManagerIconHandle@@QAEXPAUHBITMAP__@@@Z 004bb9a0 f   ToolkitPro1501vc60S:XTPImageManager.obj
 0001:000ba9f0       ?CopyHandle@CXTPImageManagerIconHandle@@QAEXABV1@@Z 004bb9f0 f   ToolkitPro1501vc60S:XTPImageManager.obj
 0001:000bab30       ??4CXTPImageManagerIconHandle@@QAEABV0@QAUHICON__@@@Z 004bbb30 f   ToolkitPro1501vc60S:XTPImageManager.obj
 0001:000bab70       ??4CXTPImageManagerIconHandle@@QAEABV0@QAUHBITMAP__@@@Z 004bbb70 f   ToolkitPro1501vc60S:XTPImageManager.obj
 0001:000babb0       ??1CXTPImageManagerIconHandle@@QAE@XZ 004bbbb0 f   ToolkitPro1501vc60S:XTPImageManager.obj
 0001:000babc0       ?IsEmpty@CXTPImageManagerIconHandle@@QBEHXZ 004bbbc0 f   ToolkitPro1501vc60S:XTPImageManager.obj
 0001:000babf0       ?IsAlpha@CXTPImageManagerIconHandle@@QBEHXZ 004bbbf0 f   ToolkitPro1501vc60S:XTPImageManager.obj
 0001:000bac10       ?GetBitmap@CXTPImageManagerIconHandle@@QBEPAUHBITMAP__@@XZ 004bbc10 f   ToolkitPro1501vc60S:XTPImageManager.obj
 0001:000bac30       ??BCXTPA2W@CXTPResourceManager@@QBEPBGXZ 004bbc30 f   ToolkitPro1501vc60S:XTPImageManager.obj
 0001:000bac30       ??CCXTPMarkupAutoPtr@@QBEPAVCXTPMarkupObject@@XZ 004bbc30 f   ToolkitPro1501vc60S:XTPImageManager.obj
 0001:000bac30       ?GetIcon@CXTPImageManagerIconHandle@@QBEPAUHICON__@@XZ 004bbc30 f   ToolkitPro1501vc60S:XTPImageManager.obj
 0001:000bac40       ?Clear@CXTPImageManagerIconHandle@@QAEXXZ 004bbc40 f   ToolkitPro1501vc60S:XTPImageManager.obj
 0001:000bac90       ?GetExtent@CXTPImageManagerIconHandle@@QBE?AVCSize@@XZ 004bbc90 f   ToolkitPro1501vc60S:XTPImageManager.obj
 0001:000bacb0       ?_GetExtent@CXTPImageManagerIconHandle@@ABE?AVCSize@@XZ 004bbcb0 f   ToolkitPro1501vc60S:XTPImageManager.obj
 0001:000bad50       ?Draw@CXTPImageManagerIconHandle@@QAEXPAVCDC@@VCPoint@@VCSize@@H@Z 004bbd50 f   ToolkitPro1501vc60S:XTPImageManager.obj
 0001:000baec0       ?CreateIconFromResource@CXTPImageManagerIconHandle@@QAEHPBDVCSize@@H@Z 004bbec0 f   ToolkitPro1501vc60S:XTPImageManager.obj
 0001:000baf30       ?CreateIconFromResource@CXTPImageManagerIconHandle@@QAEHPAUHINSTANCE__@@PBDVCSize@@H@Z 004bbf30 f   ToolkitPro1501vc60S:XTPImageManager.obj
 0001:000bb190       ?PreMultiply@CXTPImageManagerIconHandle@@QAEPAEXZ 004bc190 f   ToolkitPro1501vc60S:XTPImageManager.obj
 0001:000bb210       ?IsAlpha@CXTPImageManagerIcon@@QBEHXZ 004bc210 f   ToolkitPro1501vc60S:XTPImageManager.obj
 0001:000bb220       ?PreMultiplyAlphaBitmap@CXTPImageManagerIcon@@SAPAUHBITMAP__@@PAU2@PAHPAPAE@Z 004bc220 f   ToolkitPro1501vc60S:XTPImageManager.obj
 0001:000bb470       ?GetBitmapBits@CXTPImageManagerIcon@@SAHAAVCDC@@PAUHBITMAP__@@AAPAUtagBITMAPINFO@@AAPAXAAI@Z 004bc470 f   ToolkitPro1501vc60S:XTPImageManager.obj
 0001:000bb5c0       ?CopyAlphaBitmap@CXTPImageManagerIcon@@SAPAUHBITMAP__@@PAU2@PAPAE@Z 004bc5c0 f   ToolkitPro1501vc60S:XTPImageManager.obj
 0001:000bb700       ??0CXTPImageManagerIcon@@QAE@IHHPAVCXTPImageManagerIconSet@@@Z 004bc700 f   ToolkitPro1501vc60S:XTPImageManager.obj
 0001:000bb7e0       ??_ECXTPImageManagerIcon@@UAEPAXI@Z 004bc7e0 f i ToolkitPro1501vc60S:XTPImageManager.obj
 0001:000bb7e0       ??_GCXTPImageManagerIcon@@UAEPAXI@Z 004bc7e0 f i ToolkitPro1501vc60S:XTPImageManager.obj
 0001:000bb800       ??0CXTPImageManagerIcon@@QAE@IHHPAVCXTPImageManagerImageList@@@Z 004bc800 f   ToolkitPro1501vc60S:XTPImageManager.obj
 0001:000bb890       ??1CXTPImageManagerIcon@@UAE@XZ 004bc890 f   ToolkitPro1501vc60S:XTPImageManager.obj
 0001:000bb960       ?GetIndex@CXTPControlGalleryItem@@QBEHXZ 004bc960 f   ToolkitPro1501vc60S:XTPImageManager.obj
 0001:000bb960       ?GetID@CXTPImageManagerIcon@@QBEIXZ 004bc960 f   ToolkitPro1501vc60S:XTPImageManager.obj
 0001:000bb970       ?GetCount@CXTPCommandBarList@@QBEHXZ 004bc970 f   ToolkitPro1501vc60S:XTPImageManager.obj
 0001:000bb970       ?GetHeight@CXTPImageManagerIcon@@QBEHXZ 004bc970 f   ToolkitPro1501vc60S:XTPImageManager.obj
 0001:000bb970       ?GetCount@CXTPMenuBarMDIMenus@@QBEHXZ 004bc970 f   ToolkitPro1501vc60S:XTPImageManager.obj
 0001:000bb980       ?Clear@CXTPImageManagerIcon@@AAEXH@Z 004bc980 f   ToolkitPro1501vc60S:XTPImageManager.obj
 0001:000bb9e0       ?Refresh@CXTPImageManagerIcon@@QAEXXZ 004bc9e0 f   ToolkitPro1501vc60S:XTPImageManager.obj
 0001:000bba00       ?GetIcon@CXTPImageManagerIcon@@QAEAAVCXTPImageManagerIconHandle@@XZ 004bca00 f   ToolkitPro1501vc60S:XTPImageManager.obj
 0001:000bba10       ?GetIcon@CXTPImageManagerIcon@@QAEAAVCXTPImageManagerIconHandle@@W4XTPImageState@@@Z 004bca10 f   ToolkitPro1501vc60S:XTPImageManager.obj
 0001:000bba60       ?GetFadedIcon@CXTPImageManagerIcon@@QAEAAVCXTPImageManagerIconHandle@@XZ 004bca60 f   ToolkitPro1501vc60S:XTPImageManager.obj
 0001:000bba90       ?GetShadowIcon@CXTPImageManagerIcon@@QAEAAVCXTPImageManagerIconHandle@@XZ 004bca90 f   ToolkitPro1501vc60S:XTPImageManager.obj
 0001:000bbab0       ?GetHotIcon@CXTPImageManagerIcon@@QAEAAVCXTPImageManagerIconHandle@@XZ 004bcab0 f   ToolkitPro1501vc60S:XTPImageManager.obj
 0001:000bbad0       ?GetCheckedIcon@CXTPImageManagerIcon@@QAEAAVCXTPImageManagerIconHandle@@XZ 004bcad0 f   ToolkitPro1501vc60S:XTPImageManager.obj
 0001:000bbb00       ?GetPressedIcon@CXTPImageManagerIcon@@QAEAAVCXTPImageManagerIconHandle@@XZ 004bcb00 f   ToolkitPro1501vc60S:XTPImageManager.obj
 0001:000bbb30       ?HasDisabledIcon@CXTPImageManagerIcon@@QBEHXZ 004bcb30 f   ToolkitPro1501vc60S:XTPImageManager.obj
 0001:000bbb60       ?GetDisabledIcon@CXTPImageManagerIcon@@QAEAAVCXTPImageManagerIconHandle@@H@Z 004bcb60 f   ToolkitPro1501vc60S:XTPImageManager.obj
 0001:000bbba0       ?SetIcon@CXTPImageManagerIcon@@QAEHABVCXTPImageManagerIconHandle@@@Z 004bcba0 f   ToolkitPro1501vc60S:XTPImageManager.obj
 0001:000bbbf0       ?SetHotIcon@CXTPImageManagerIcon@@QAEXABVCXTPImageManagerIconHandle@@@Z 004bcbf0 f   ToolkitPro1501vc60S:XTPImageManager.obj
 0001:000bbc10       ?SetCheckedIcon@CXTPImageManagerIcon@@QAEXABVCXTPImageManagerIconHandle@@@Z 004bcc10 f   ToolkitPro1501vc60S:XTPImageManager.obj
 0001:000bbc30       ?SetPressedIcon@CXTPImageManagerIcon@@QAEXABVCXTPImageManagerIconHandle@@@Z 004bcc30 f   ToolkitPro1501vc60S:XTPImageManager.obj
 0001:000bbc50       ?SetDisabledIcon@CXTPImageManagerIcon@@QAEXABVCXTPImageManagerIconHandle@@@Z 004bcc50 f   ToolkitPro1501vc60S:XTPImageManager.obj
 0001:000bbc70       ?LightenColor@CXTPImageManagerIcon@@AAEKKN@Z 004bcc70 f   ToolkitPro1501vc60S:XTPImageManager.obj
 0001:000bbd00       ?CreateFadedIcon@CXTPImageManagerIcon@@AAEXXZ 004bcd00 f   ToolkitPro1501vc60S:XTPImageManager.obj
 0001:000bbf80       ?CreateShadowIcon@CXTPImageManagerIcon@@AAEXXZ 004bcf80 f   ToolkitPro1501vc60S:XTPImageManager.obj
 0001:000bc280       ?CreateDisabledIcon@CXTPImageManagerIcon@@QAEXKK@Z 004bd280 f   ToolkitPro1501vc60S:XTPImageManager.obj
 0001:000bc830       ?GetExtent@CXTPImageManagerIcon@@QBE?AVCSize@@XZ 004bd830 f   ToolkitPro1501vc60S:XTPImageManager.obj
 0001:000bc860       ?GetExtent@CXTPImageManagerIcon@@SA?AVCSize@@PAUHICON__@@@Z 004bd860 f   ToolkitPro1501vc60S:XTPImageManager.obj
 0001:000bc8e0       ?ScaleToFit@CXTPImageManagerIcon@@SAPAUHICON__@@PAU2@VCSize@@H@Z 004bd8e0 f   ToolkitPro1501vc60S:XTPImageManager.obj
 0001:000bc9c0       ?GetDIBBitmap@CXTPImageManagerIcon@@AAEHPAUHBITMAP__@@AAPAEAAIAAPAUtagBITMAPINFO@@2@Z 004bd9c0 f   ToolkitPro1501vc60S:XTPImageManager.obj
 0001:000bcb80       ?ReadDIBBitmap@CXTPImageManagerIcon@@AAEPAUHBITMAP__@@AAVCArchive@@PAPAE@Z 004bdb80 f   ToolkitPro1501vc60S:XTPImageManager.obj
 0001:000bcd10       ?WriteDIBBitmap@CXTPImageManagerIcon@@AAEXAAVCArchive@@PAUHBITMAP__@@@Z 004bdd10 f   ToolkitPro1501vc60S:XTPImageManager.obj
 0001:000bcdd0       ?SerializeIcon@CXTPImageManagerIcon@@QAEXAAVCXTPImageManagerIconHandle@@AAVCArchive@@J@Z 004bddd0 f   ToolkitPro1501vc60S:XTPImageManager.obj
 0001:000bd020       ?Serialize@CXTPImageManagerIcon@@UAEXAAVCArchive@@@Z 004be020 f   ToolkitPro1501vc60S:XTPImageManager.obj
 0001:000bd130       ?DrawAlphaBitmap@CXTPImageManagerIcon@@SAXPAVCDC@@PAUHBITMAP__@@VCPoint@@VCSize@@23@Z 004be130 f   ToolkitPro1501vc60S:XTPImageManager.obj
 0001:000bd220       ?DrawMono@CXTPImageManagerIcon@@QAEXPAVCDC@@VCPoint@@AAVCXTPImageManagerIconHandle@@VCSize@@K@Z 004be220 f   ToolkitPro1501vc60S:XTPImageManager.obj
 0001:000bd380       ?Draw@CXTPImageManagerIcon@@QAEXPAVCDC@@VCPoint@@VCSize@@@Z 004be380 f   ToolkitPro1501vc60S:XTPImageManager.obj
 0001:000bd3c0       ?Draw@CXTPImageManagerIcon@@QAEXPAVCDC@@VCPoint@@@Z 004be3c0 f   ToolkitPro1501vc60S:XTPImageManager.obj
 0001:000bd400       ?DrawIconComposited@CXTPImageManagerIcon@@SAXPAVCDC@@VCPoint@@VCSize@@PAUHICON__@@@Z 004be400 f   ToolkitPro1501vc60S:XTPImageManager.obj
 0001:000bd5b0       ?Draw@CXTPImageManagerIcon@@QAEXPAVCDC@@VCPoint@@AAVCXTPImageManagerIconHandle@@VCSize@@KKI@Z 004be5b0 f   ToolkitPro1501vc60S:XTPImageManager.obj
 0001:000bd630       ??0CXTPImageManagerIconSet@@QAE@IPAVCXTPImageManager@@@Z 004be630 f   ToolkitPro1501vc60S:XTPImageManager.obj
 0001:000bd680       ??_ECXTPImageManagerIconSet@@UAEPAXI@Z 004be680 f i ToolkitPro1501vc60S:XTPImageManager.obj
 0001:000bd680       ??_GCXTPImageManagerIconSet@@UAEPAXI@Z 004be680 f i ToolkitPro1501vc60S:XTPImageManager.obj
 0001:000bd6a0       ??1CXTPImageManagerIconSet@@UAE@XZ 004be6a0 f   ToolkitPro1501vc60S:XTPImageManager.obj
 0001:000bd750       ?RemoveAll@CXTPImageManagerIconSet@@QAEXXZ 004be750 f   ToolkitPro1501vc60S:XTPImageManager.obj
 0001:000bd810       ?CreateIcon@CXTPImageManagerIconSet@@AAEPAVCXTPImageManagerIcon@@I@Z 004be810 f   ToolkitPro1501vc60S:XTPImageManager.obj
 0001:000bd990       ?SetIcon@CXTPImageManagerIconSet@@AAEXABVCXTPImageManagerIconHandle@@I@Z 004be990 f   ToolkitPro1501vc60S:XTPImageManager.obj
 0001:000bd9b0       ?SetDisabledIcon@CXTPImageManagerIconSet@@AAEXABVCXTPImageManagerIconHandle@@I@Z 004be9b0 f   ToolkitPro1501vc60S:XTPImageManager.obj
 0001:000bd9d0       ?SetHotIcon@CXTPImageManagerIconSet@@AAEXABVCXTPImageManagerIconHandle@@I@Z 004be9d0 f   ToolkitPro1501vc60S:XTPImageManager.obj
 0001:000bd9f0       ?SetCheckedIcon@CXTPImageManagerIconSet@@AAEXABVCXTPImageManagerIconHandle@@I@Z 004be9f0 f   ToolkitPro1501vc60S:XTPImageManager.obj
 0001:000bda10       ?SetPressedIcon@CXTPImageManagerIconSet@@AAEXABVCXTPImageManagerIconHandle@@I@Z 004bea10 f   ToolkitPro1501vc60S:XTPImageManager.obj
 0001:000bda30       ?GetIcon@CXTPImageManagerIconSet@@QAEPAVCXTPImageManagerIcon@@IH@Z 004bea30 f   ToolkitPro1501vc60S:XTPImageManager.obj
 0001:000bdb80       ?RefreshAll@CXTPImageManagerIconSet@@QAEXXZ 004beb80 f   ToolkitPro1501vc60S:XTPImageManager.obj
 0001:000bdbf0       ??0CXTPImageManager@@QAE@XZ 004bebf0 f   ToolkitPro1501vc60S:XTPImageManager.obj
 0001:000bdcc0       ??_ECXTPImageManager@@UAEPAXI@Z 004becc0 f i ToolkitPro1501vc60S:XTPImageManager.obj
 0001:000bdcc0       ??_GCXTPImageManager@@UAEPAXI@Z 004becc0 f i ToolkitPro1501vc60S:XTPImageManager.obj
 0001:000bdce0       ?XTPImageManager@@YAPAVCXTPImageManager@@XZ 004bece0 f   ToolkitPro1501vc60S:XTPImageManager.obj
 0001:000bdd30       ??1CXTPImageManager@@UAE@XZ 004bed30 f   ToolkitPro1501vc60S:XTPImageManager.obj
 0001:000bde60       ?LoadToolbar@CXTPImageManager@@ABEHIAAPAIAAHAAVCSize@@@Z 004bee60 f   ToolkitPro1501vc60S:XTPImageManager.obj
 0001:000bdf40       ?SetIcons@CXTPImageManager@@QAEHIIW4XTPImageState@@@Z 004bef40 f   ToolkitPro1501vc60S:XTPImageManager.obj
 0001:000bdfc0       ?SetIcons@CXTPImageManager@@QAEHIW4XTPImageState@@@Z 004befc0 f   ToolkitPro1501vc60S:XTPImageManager.obj
 0001:000bdfe0       ?SetIcons@CXTPImageManager@@QAEHIAAVCImageList@@W4XTPImageState@@@Z 004befe0 f   ToolkitPro1501vc60S:XTPImageManager.obj
 0001:000be070       ?SetIcon@CXTPImageManager@@QAEHABVCXTPImageManagerIconHandle@@IVCSize@@W4XTPImageState@@@Z 004bf070 f   ToolkitPro1501vc60S:XTPImageManager.obj
 0001:000be2e0       ?SetIconFromResource@CXTPImageManager@@QAEHPAUHINSTANCE__@@PBDIVCSize@@W4XTPImageState@@@Z 004bf2e0 f   ToolkitPro1501vc60S:XTPImageManager.obj
 0001:000be4a0       ?SetIcon@CXTPImageManager@@QAEHPBDIVCSize@@W4XTPImageState@@@Z 004bf4a0 f   ToolkitPro1501vc60S:XTPImageManager.obj
 0001:000be580       ?SetIcons@CXTPImageManager@@QAEHAAVCImageList@@PAIHVCSize@@W4XTPImageState@@@Z 004bf580 f   ToolkitPro1501vc60S:XTPImageManager.obj
 0001:000be730       ?SplitBitmap@CXTPImageManager@@ABEHPAUHBITMAP__@@HPAPAU2@@Z 004bf730 f   ToolkitPro1501vc60S:XTPImageManager.obj
 0001:000be990       ?GetBitmapMaskColor@CXTPImageManager@@SAKAAVCBitmap@@VCPoint@@@Z 004bf990 f   ToolkitPro1501vc60S:XTPImageManager.obj
 0001:000be9d0       ?ResampleAlphaLayer@CXTPImageManager@@SAPAUHBITMAP__@@PAU2@K@Z 004bf9d0 f   ToolkitPro1501vc60S:XTPImageManager.obj
 0001:000bebb0       ?SetIcons@CXTPImageManager@@QAEHAAVCBitmap@@PAIHVCSize@@W4XTPImageState@@H@Z 004bfbb0 f   ToolkitPro1501vc60S:XTPImageManager.obj
 0001:000bef50       ?SetIcons@CXTPImageManager@@QAEHIPAIHVCSize@@W4XTPImageState@@@Z 004bff50 f   ToolkitPro1501vc60S:XTPImageManager.obj
 0001:000bef80       ?SetIcons@CXTPImageManager@@QAEHPBDPAIHVCSize@@W4XTPImageState@@@Z 004bff80 f   ToolkitPro1501vc60S:XTPImageManager.obj
 0001:000bf070       ?AddCustomIcon@CXTPImageManager@@QAEIABVCXTPImageManagerIconHandle@@@Z 004c0070 f   ToolkitPro1501vc60S:XTPImageManager.obj
 0001:000bf1f0       ?CopyImage@CXTPImageManager@@AAEXI@Z 004c01f0 f   ToolkitPro1501vc60S:XTPImageManager.obj
 0001:000bf320       ?PasteCustomImage@CXTPImageManager@@AAEIAAVCOleDataObject@@@Z 004c0320 f   ToolkitPro1501vc60S:XTPImageManager.obj
 0001:000bf430       ?IsPrimaryImageExists@CXTPImageManager@@QBEHIH@Z 004c0430 f   ToolkitPro1501vc60S:XTPImageManager.obj
 0001:000bf4a0       ?GetImage@CXTPImageManager@@QBEPAVCXTPImageManagerIcon@@IH@Z 004c04a0 f   ToolkitPro1501vc60S:XTPImageManager.obj
 0001:000bf4f0       ?GetIconSet@CXTPImageManager@@QBEPAVCXTPImageManagerIconSet@@I@Z 004c04f0 f   ToolkitPro1501vc60S:XTPImageManager.obj
 0001:000bf530       ?GetImageList@CXTPImageManager@@QBEPAVCXTPImageManagerImageList@@I@Z 004c0530 f   ToolkitPro1501vc60S:XTPImageManager.obj
 0001:000bf570       ?RemoveAll@CXTPImageManager@@QAEXXZ 004c0570 f   ToolkitPro1501vc60S:XTPImageManager.obj
 0001:000bf710       ?RefreshAll@CXTPImageManager@@QAEXXZ 004c0710 f   ToolkitPro1501vc60S:XTPImageManager.obj
 0001:000bf7a0       ?SetMaskColor@CXTPImageManager@@QAEKK@Z 004c07a0 f   ToolkitPro1501vc60S:XTPImageManager.obj
 0001:000bf7b0       ?IsAlphaIconsImageListSupported@CXTPImageManager@@SAHXZ 004c07b0 f   ToolkitPro1501vc60S:XTPImageManager.obj
 0001:000bf7d0       ?DoPropExchange@CXTPImageManager@@QAEXIPAVCXTPPropExchange@@@Z 004c07d0 f   ToolkitPro1501vc60S:XTPImageManager.obj
 0001:000bfba0       ??1CXTPPropExchangeEnumeratorPtr@@QAE@XZ 004c0ba0 f i ToolkitPro1501vc60S:XTPImageManager.obj
 0001:000bfbb0       ?Serialize@CXTPImageManager@@QAEXIAAVCArchive@@@Z 004c0bb0 f   ToolkitPro1501vc60S:XTPImageManager.obj
 0001:000bfc20       ?DoPropExchange@CXTPImageManager@@QAEXPAVCXTPPropExchange@@@Z 004c0c20 f   ToolkitPro1501vc60S:XTPImageManager.obj
 0001:000bfdc0       ?Serialize@CXTPImageManager@@UAEXAAVCArchive@@@Z 004c0dc0 f   ToolkitPro1501vc60S:XTPImageManager.obj
 0001:000bfe20       ??1?$CArray@PAUXTP_IMAGERESOURCE_INFO@@PAU1@@@UAE@XZ 004c0e20 f i ToolkitPro1501vc60S:XTPImageManager.obj
 0001:000bfe70       ??1?$CMap@IIPAVCXTPImageManagerIcon@@PAV1@@@UAE@XZ 004c0e70 f i ToolkitPro1501vc60S:XTPImageManager.obj
 0001:000bfef0       ??1?$CMap@IIPAVCXTPImageManagerIconSet@@PAV1@@@UAE@XZ 004c0ef0 f i ToolkitPro1501vc60S:XTPImageManager.obj
 0001:000bff70       ??1?$CArray@PAVCXTPImageManagerImageList@@PAV1@@@UAE@XZ 004c0f70 f i ToolkitPro1501vc60S:XTPImageManager.obj
 0001:000bffc0       ??1?$CMap@KKPAVCXTPImageManagerResource@@PAV1@@@UAE@XZ 004c0fc0 f i ToolkitPro1501vc60S:XTPImageManager.obj
 0001:000c0040       ??_E?$CArray@PAUXTP_IMAGERESOURCE_INFO@@PAU1@@@UAEPAXI@Z 004c1040 f i ToolkitPro1501vc60S:XTPImageManager.obj
 0001:000c0040       ??_G?$CArray@PAUXTP_IMAGERESOURCE_INFO@@PAU1@@@UAEPAXI@Z 004c1040 f i ToolkitPro1501vc60S:XTPImageManager.obj
 0001:000c0060       ??_E?$CMap@IIPAVCXTPImageManagerIcon@@PAV1@@@UAEPAXI@Z 004c1060 f i ToolkitPro1501vc60S:XTPImageManager.obj
 0001:000c0060       ??_G?$CMap@IIPAVCXTPImageManagerIcon@@PAV1@@@UAEPAXI@Z 004c1060 f i ToolkitPro1501vc60S:XTPImageManager.obj
 0001:000c0080       ??_E?$CMap@IIPAVCXTPImageManagerIconSet@@PAV1@@@UAEPAXI@Z 004c1080 f i ToolkitPro1501vc60S:XTPImageManager.obj
 0001:000c0080       ??_G?$CMap@IIPAVCXTPImageManagerIconSet@@PAV1@@@UAEPAXI@Z 004c1080 f i ToolkitPro1501vc60S:XTPImageManager.obj
 0001:000c00a0       ??_E?$CArray@PAVCXTPImageManagerImageList@@PAV1@@@UAEPAXI@Z 004c10a0 f i ToolkitPro1501vc60S:XTPImageManager.obj
 0001:000c00a0       ??_G?$CArray@PAVCXTPImageManagerImageList@@PAV1@@@UAEPAXI@Z 004c10a0 f i ToolkitPro1501vc60S:XTPImageManager.obj
 0001:000c00c0       ??_E?$CMap@KKPAVCXTPImageManagerResource@@PAV1@@@UAEPAXI@Z 004c10c0 f i ToolkitPro1501vc60S:XTPImageManager.obj
 0001:000c00c0       ??_G?$CMap@KKPAVCXTPImageManagerResource@@PAV1@@@UAEPAXI@Z 004c10c0 f i ToolkitPro1501vc60S:XTPImageManager.obj
 0001:000c00e0       ??A?$CMap@IIPAVCXTPImageManagerIconSet@@PAV1@@@QAEAAPAVCXTPImageManagerIconSet@@I@Z 004c10e0 f i ToolkitPro1501vc60S:XTPImageManager.obj
 0001:000c00e0       ??A?$CMap@IIPAVCRgn@@PAV1@@@QAEAAPAVCRgn@@I@Z 004c10e0 f i ToolkitPro1501vc60S:XTPImageManager.obj
 0001:000c00e0       ??A?$CMap@HHPAVCXTPDockingPaneBase@@PAV1@@@QAEAAPAVCXTPDockingPaneBase@@H@Z 004c10e0 f i ToolkitPro1501vc60S:XTPImageManager.obj
 0001:000c00e0       ??A?$CMap@PAVCXTPMarkupDependencyProperty@@PAV1@PAVCXTPMarkupObject@@PAV2@@@QAEAAPAVCXTPMarkupObject@@PAVCXTPMarkupDependencyProperty@@@Z 004c10e0 f i ToolkitPro1501vc60S:XTPImageManager.obj
 0001:000c01c0       ??1CXTPCommandBarList@@UAE@XZ 004c11c0 f   ToolkitPro1501vc60S:XTPCommandBar.obj
 0001:000c0240       ??_GCXTPCommandBarList@@UAEPAXI@Z 004c1240 f i ToolkitPro1501vc60S:XTPCommandBar.obj
 0001:000c0240       ??_ECXTPCommandBarList@@UAEPAXI@Z 004c1240 f i ToolkitPro1501vc60S:XTPCommandBar.obj
 0001:000c0260       ?GetAt@CXTPCommandBarList@@QBEPAVCXTPCommandBar@@H@Z 004c1260 f   ToolkitPro1501vc60S:XTPCommandBar.obj
 0001:000c0280       ?Add@CXTPCommandBarList@@UAEPAVCXTPCommandBar@@PAV2@@Z 004c1280 f   ToolkitPro1501vc60S:XTPCommandBar.obj
 0001:000c03f0       ?Lookup@CXTPCommandBarList@@QBEHPAVCXTPCommandBar@@@Z 004c13f0 f   ToolkitPro1501vc60S:XTPCommandBar.obj
 0001:000c0430       ?RemoveAll@CXTPCommandBarList@@QAEXXZ 004c1430 f   ToolkitPro1501vc60S:XTPCommandBar.obj
 0001:000c0480       ?FindCommandBar@CXTPCommandBarList@@QBEPAVCXTPCommandBar@@I@Z 004c1480 f   ToolkitPro1501vc60S:XTPCommandBar.obj
 0001:000c04c0       ?CreateObject@CXTPCommandBar@@SGPAVCObject@@XZ 004c14c0 f   ToolkitPro1501vc60S:XTPCommandBar.obj
 0001:000c0520       ?GetRuntimeClass@CXTPCommandBar@@UBEPAUCRuntimeClass@@XZ 004c1520 f   ToolkitPro1501vc60S:XTPCommandBar.obj
 0001:000c0550       ?Clone@CXTPCommandBar@@UAEPAV1@H@Z 004c1550 f   ToolkitPro1501vc60S:XTPCommandBar.obj
 0001:000c0580       ??0CXTPCommandBar@@IAE@XZ  004c1580 f   ToolkitPro1501vc60S:XTPCommandBar.obj
 0001:000c0760       ?DelayRedraw@CXTPCommandBar@@UAEXXZ 004c1760 f i ToolkitPro1501vc60S:XTPCommandBar.obj
 0001:000c0770       ?CalcDynamicLayout@CXTPCommandBar@@MAE?AVCSize@@HK@Z 004c1770 f i ToolkitPro1501vc60S:XTPCommandBar.obj
 0001:000c0780       ?IsCustomizable@CXTPCommandBar@@UBEHXZ 004c1780 f i ToolkitPro1501vc60S:XTPCommandBar.obj
 0001:000c0790       ??_GCXTPCommandBar@@MAEPAXI@Z 004c1790 f i ToolkitPro1501vc60S:XTPCommandBar.obj
 0001:000c0790       ??_ECXTPCommandBar@@MAEPAXI@Z 004c1790 f i ToolkitPro1501vc60S:XTPCommandBar.obj
 0001:000c07b0       ??1CXTPCommandBar@@MAE@XZ  004c17b0 f   ToolkitPro1501vc60S:XTPCommandBar.obj
 0001:000c0920       ?SetControls@CXTPCommandBar@@QAEXPAVCXTPControls@@@Z 004c1920 f   ToolkitPro1501vc60S:XTPCommandBar.obj
 0001:000c0960       ?OnRemoved@CXTPCommandBar@@MAEXXZ 004c1960 f   ToolkitPro1501vc60S:XTPCommandBar.obj
 0001:000c09d0       ?GetMessageMap@CXTPCommandBar@@MBEPBUAFX_MSGMAP@@XZ 004c19d0 f   ToolkitPro1501vc60S:XTPCommandBar.obj
 0001:000c09e0       ?OnCreate@CXTPCommandBar@@QAEHPAUtagCREATESTRUCTA@@@Z 004c19e0 f   ToolkitPro1501vc60S:XTPCommandBar.obj
 0001:000c0a70       ?OnDestroy@CXTPCommandBar@@QAEXXZ 004c1a70 f   ToolkitPro1501vc60S:XTPCommandBar.obj
 0001:000c0ac0       ?IsMouseLocked@CXTPCommandBar@@IBEHXZ 004c1ac0 f   ToolkitPro1501vc60S:XTPCommandBar.obj
 0001:000c0af0       ?OnMouseMove@CXTPCommandBar@@QAEXIVCPoint@@@Z 004c1af0 f   ToolkitPro1501vc60S:XTPCommandBar.obj
 0001:000c0c70       ?OnMouseLeave@CXTPCommandBar@@QAEXXZ 004c1c70 f   ToolkitPro1501vc60S:XTPCommandBar.obj
 0001:000c0cb0       ?OnNcMouseMove@CXTPCommandBar@@QAEXIVCPoint@@@Z 004c1cb0 f   ToolkitPro1501vc60S:XTPCommandBar.obj
 0001:000c0cd0       ?OnTrackEnter@CXTPCommandBar@@UAEXXZ 004c1cd0 f   ToolkitPro1501vc60S:XTPCommandBar.obj
 0001:000c0ce0       ?OnLButtonDown@CXTPCommandBar@@QAEXIVCPoint@@@Z 004c1ce0 f   ToolkitPro1501vc60S:XTPCommandBar.obj
 0001:000c0e20       ?OnLButtonDblClk@CXTPCommandBar@@QAEXIVCPoint@@@Z 004c1e20 f   ToolkitPro1501vc60S:XTPCommandBar.obj
 0001:000c0e60       ?OnLButtonUp@CXTPCommandBar@@QAEXIVCPoint@@@Z 004c1e60 f   ToolkitPro1501vc60S:XTPCommandBar.obj
 0001:000c0eb0       ?OnRButtonUp@CXTPCommandBar@@QAEXIVCPoint@@@Z 004c1eb0 f   ToolkitPro1501vc60S:XTPCommandBar.obj
 0001:000c0f60       ?SetSelected@CXTPCommandBar@@UAEHHH@Z 004c1f60 f   ToolkitPro1501vc60S:XTPCommandBar.obj
 0001:000c10a0       ?SetPopuped@CXTPCommandBar@@QAEHHH@Z 004c20a0 f   ToolkitPro1501vc60S:XTPCommandBar.obj
 0001:000c11c0       ?OnIdleUpdateCmdUI@CXTPCommandBar@@UAEJIJ@Z 004c21c0 f   ToolkitPro1501vc60S:XTPCommandBar.obj
 0001:000c1230       ?Enable@CCommandBarCmdUI@CXTPCommandBar@@UAEXH@Z 004c2230 f   ToolkitPro1501vc60S:XTPCommandBar.obj
 0001:000c1290       ?SetCheck@CCommandBarCmdUI@CXTPCommandBar@@UAEXH@Z 004c2290 f   ToolkitPro1501vc60S:XTPCommandBar.obj
 0001:000c12b0       ?SetText@CCommandBarCmdUI@CXTPCommandBar@@UAEXPBD@Z 004c22b0 f   ToolkitPro1501vc60S:XTPCommandBar.obj
 0001:000c12d0       ?OnInitialUpdate@CXTPCommandBar@@QAEXXZ 004c22d0 f   ToolkitPro1501vc60S:XTPCommandBar.obj
 0001:000c12e0       ?OnUpdateCmdUI@CXTPCommandBar@@QAEXXZ 004c22e0 f   ToolkitPro1501vc60S:XTPCommandBar.obj
 0001:000c1470       ?LoadMenuA@CXTPControls@@QAEHPAVCMenu@@@Z 004c2470 f   ToolkitPro1501vc60S:XTPCommandBar.obj
 0001:000c15c0       ?LoadMenuA@CXTPCommandBar@@UAEHPAVCMenu@@H@Z 004c25c0 f   ToolkitPro1501vc60S:XTPCommandBar.obj
 0001:000c1620       ?ProcessSpecialKey@CXTPCommandBar@@MAEHW4XTPSpecialKey@@@Z 004c2620 f   ToolkitPro1501vc60S:XTPCommandBar.obj
 0001:000c1b80       ?IsHelpMode@CXTPCommandBar@@IBEHXZ 004c2b80 f   ToolkitPro1501vc60S:XTPCommandBar.obj
 0001:000c1ba0       ?OnHookKeyDown@CXTPCommandBar@@MAEHIJ@Z 004c2ba0 f   ToolkitPro1501vc60S:XTPCommandBar.obj
 0001:000c1ff0       ?HideKeyboardTips@CXTPCommandBar@@QAEXXZ 004c2ff0 f   ToolkitPro1501vc60S:XTPCommandBar.obj
 0001:000c2010       ?OnKeyboardTip@CXTPCommandBar@@UAEXPAVCXTPCommandBarKeyboardTip@@@Z 004c3010 f   ToolkitPro1501vc60S:XTPCommandBar.obj
 0001:000c2070       ?OnKeyboardTipChar@CXTPCommandBar@@QAEXI@Z 004c3070 f   ToolkitPro1501vc60S:XTPCommandBar.obj
 0001:000c21f0       ?OnHookMessage@CXTPCommandBar@@UAEHPAUHWND__@@IAAIAAJ2@Z 004c31f0 f   ToolkitPro1501vc60S:XTPCommandBar.obj
 0001:000c22c0       ?SetTrackingMode@CXTPCommandBar@@UAEHHHH@Z 004c32c0 f   ToolkitPro1501vc60S:XTPCommandBar.obj
 0001:000c2520       ?GetControlCount@CXTPCommandBar@@QBEHXZ 004c3520 f   ToolkitPro1501vc60S:XTPCommandBar.obj
 0001:000c2530       ?GetControl@CXTPCommandBar@@QBEPAVCXTPControl@@H@Z 004c3530 f   ToolkitPro1501vc60S:XTPCommandBar.obj
 0001:000c2570       ?OnTimer@CXTPCommandBar@@QAEXI@Z 004c3570 f   ToolkitPro1501vc60S:XTPCommandBar.obj
 0001:000c2690       ?OnControlsChanged@CXTPCommandBar@@MAEXXZ 004c3690 f   ToolkitPro1501vc60S:XTPCommandBar.obj
 0001:000c26b0       ?Redraw@CXTPCommandBar@@UAEXPBUtagRECT@@H@Z 004c36b0 f   ToolkitPro1501vc60S:XTPCommandBar.obj
 0001:000c2720       ?EnableAnimation@CXTPCommandBar@@QAEXH@Z 004c3720 f   ToolkitPro1501vc60S:XTPCommandBar.obj
 0001:000c2740       ?IsAnimationEnabled@CXTPCommandBar@@QBEHXZ 004c3740 f   ToolkitPro1501vc60S:XTPCommandBar.obj
 0001:000c2750       ?EnableDoubleBuffer@CXTPCommandBar@@QAEXH@Z 004c3750 f   ToolkitPro1501vc60S:XTPCommandBar.obj
 0001:000c2760       ?SetShowGripper@CXTPCommandBar@@QAEXH@Z 004c3760 f   ToolkitPro1501vc60S:XTPCommandBar.obj
 0001:000c2790       ?GetShowGripper@CXTPCommandBar@@QBEHXZ 004c3790 f   ToolkitPro1501vc60S:XTPCommandBar.obj
 0001:000c27a0       ?OnPaint@CXTPCommandBar@@QAEXXZ 004c37a0 f   ToolkitPro1501vc60S:XTPCommandBar.obj
 0001:000c2800       ?OnPrintClient@CXTPCommandBar@@QAEJIJ@Z 004c3800 f   ToolkitPro1501vc60S:XTPCommandBar.obj
 0001:000c2860       ?GetBorders@CXTPCommandBar@@UAE?AVCRect@@XZ 004c3860 f   ToolkitPro1501vc60S:XTPCommandBar.obj
 0001:000c28a0       ?FillCommandBarEntry@CXTPCommandBar@@UAEXPAVCDC@@@Z 004c38a0 f   ToolkitPro1501vc60S:XTPCommandBar.obj
 0001:000c28c0       ?DrawCommandBar@CXTPCommandBar@@UAEXPAVCDC@@VCRect@@@Z 004c38c0 f   ToolkitPro1501vc60S:XTPCommandBar.obj
 0001:000c2af0       ?CustomizeDrawMarker@CXTPCommandBar@@IAEXPAVCDC@@@Z 004c3af0 f   ToolkitPro1501vc60S:XTPCommandBar.obj
 0001:000c2d40       ?FindAccelEx@CXTPCommandBar@@QBEHIAAH@Z 004c3d40 f   ToolkitPro1501vc60S:XTPCommandBar.obj
 0001:000c2ee0       ?GetFrameSite@CXTPCommandBar@@QBEPAVCFrameWnd@@XZ 004c3ee0 f   ToolkitPro1501vc60S:XTPCommandBar.obj
 0001:000c2f10       ?GetSite@CXTPCommandBar@@QBEPAVCWnd@@XZ 004c3f10 f   ToolkitPro1501vc60S:XTPCommandBar.obj
 0001:000c2f70       ?GetOwnerSite@CXTPCommandBar@@QBEPAVCWnd@@XZ 004c3f70 f   ToolkitPro1501vc60S:XTPCommandBar.obj
 0001:000c2fd0       ?GetRootParent@CXTPCommandBar@@QBEPAV1@XZ 004c3fd0 f   ToolkitPro1501vc60S:XTPCommandBar.obj
 0001:000c3000       ?GetCommandBars@CXTPCommandBar@@QBEPAVCXTPCommandBars@@XZ 004c4000 f   ToolkitPro1501vc60S:XTPCommandBar.obj
 0001:000c3030       ?IsCustomizeMode@CXTPCommandBar@@QBEHXZ 004c4030 f   ToolkitPro1501vc60S:XTPCommandBar.obj
 0001:000c3040       ?OnCustomizeDragEnter@CXTPCommandBar@@UAEKPAVCXTPControl@@VCPoint@@@Z 004c4040 f   ToolkitPro1501vc60S:XTPCommandBar.obj
 0001:000c3070       ?OnCustomizeDragLeave@CXTPCommandBar@@UAEXXZ 004c4070 f   ToolkitPro1501vc60S:XTPCommandBar.obj
 0001:000c30a0       ?CustomizeFindDropIndex@CXTPCommandBar@@MAEXPAVCXTPControl@@ABVCPoint@@AAVCRect@@AAH3@Z 004c40a0 f   ToolkitPro1501vc60S:XTPCommandBar.obj
 0001:000c3410       ?OnCustomizeDragOver@CXTPCommandBar@@UAEKPAVCXTPControl@@VCPoint@@@Z 004c4410 f   ToolkitPro1501vc60S:XTPCommandBar.obj
 0001:000c3550       ?OnCustomizeDrop@CXTPCommandBar@@UAEXPAVCXTPControl@@AAKVCPoint@@2@Z 004c4550 f   ToolkitPro1501vc60S:XTPCommandBar.obj
 0001:000c36d0       ?OnRButtonDown@CXTPCommandBar@@QAEXIVCPoint@@@Z 004c46d0 f   ToolkitPro1501vc60S:XTPCommandBar.obj
 0001:000c37c0       ?InvalidateParents@CXTPCommandBar@@QAEXXZ 004c47c0 f   ToolkitPro1501vc60S:XTPCommandBar.obj
 0001:000c3800       ?OnControlSelected@CXTPCommandBar@@UAEXHPAVCXTPControl@@@Z 004c4800 f   ToolkitPro1501vc60S:XTPCommandBar.obj
 0001:000c3960       ?SetStatusText@CXTPCommandBar@@QAEHABVCString@@@Z 004c4960 f   ToolkitPro1501vc60S:XTPCommandBar.obj
 0001:000c39e0       ?SetPaintManager@CXTPCommandBar@@QAEXPAVCXTPPaintManager@@@Z 004c49e0 f   ToolkitPro1501vc60S:XTPCommandBar.obj
 0001:000c3a10       ?GetPaintManager@CXTPCommandBar@@QBEPAVCXTPPaintManager@@XZ 004c4a10 f   ToolkitPro1501vc60S:XTPCommandBar.obj
 0001:000c3a60       ?SetImageManager@CXTPCommandBar@@QAEXPAVCXTPImageManager@@@Z 004c4a60 f   ToolkitPro1501vc60S:XTPCommandBar.obj
 0001:000c3a90       ?GetImageManager@CXTPCommandBar@@QBEPAVCXTPImageManager@@XZ 004c4a90 f   ToolkitPro1501vc60S:XTPCommandBar.obj
 0001:000c3ad0       ?Copy@CXTPCommandBar@@MAEXPAV1@H@Z 004c4ad0 f   ToolkitPro1501vc60S:XTPCommandBar.obj
 0001:000c3ba0       ?GetActiveDocTemplate@CXTPCommandBar@@IBEIXZ 004c4ba0 f   ToolkitPro1501vc60S:XTPCommandBar.obj
 0001:000c3bc0       ?UpdateDocTemplateControls@CXTPCommandBar@@IAEXXZ 004c4bc0 f   ToolkitPro1501vc60S:XTPCommandBar.obj
 0001:000c3d40       ?SetFlags@CXTPCommandBar@@QAEXKK@Z 004c4d40 f   ToolkitPro1501vc60S:XTPCommandBar.obj
 0001:000c3d60       ?OnHelpHitTest@CXTPCommandBar@@QAEJIJ@Z 004c4d60 f   ToolkitPro1501vc60S:XTPCommandBar.obj
 0001:000c3de0       ?OnNcHitTest@CXTPCommandBar@@QAEJVCPoint@@@Z 004c4de0 f   ToolkitPro1501vc60S:XTPCommandBar.obj
 0001:000c3e50       ?OnNcLButtonDown@CXTPCommandBar@@QAEXIVCPoint@@@Z 004c4e50 f   ToolkitPro1501vc60S:XTPCommandBar.obj
 0001:000c3e90       ?SetWidth@CXTPCommandBar@@QAEXH@Z 004c4e90 f   ToolkitPro1501vc60S:XTPCommandBar.obj
 0001:000c3ea0       ?GetWidth@CXTPCommandBar@@QBEHXZ 004c4ea0 f   ToolkitPro1501vc60S:XTPCommandBar.obj
 0001:000c3eb0       ?IsLayoutRTL@CXTPCommandBar@@QBEHXZ 004c4eb0 f   ToolkitPro1501vc60S:XTPCommandBar.obj
 0001:000c3ed0       ?OnMouseHitTest@CXTPCommandBar@@MAEHVCPoint@@@Z 004c4ed0 f   ToolkitPro1501vc60S:XTPCommandBar.obj
 0001:000c4020       ?GetAccessible@CXTPCommandBar@@MAEPAVCCmdTarget@@XZ 004c5020 f   ToolkitPro1501vc60S:XTPCommandBar.obj
 0001:000c4030       ?GetAccessibleParent@CXTPCommandBar@@MAEJPAPAUIDispatch@@@Z 004c5030 f   ToolkitPro1501vc60S:XTPCommandBar.obj
 0001:000c40b0       ?GetAccessibleChildCount@CXTPCommandBar@@MAEJPAJ@Z 004c50b0 f   ToolkitPro1501vc60S:XTPCommandBar.obj
 0001:000c40e0       ?GetAccessibleChild@CXTPCommandBar@@MAEJUtagVARIANT@@PAPAUIDispatch@@@Z 004c50e0 f   ToolkitPro1501vc60S:XTPCommandBar.obj
 0001:000c4130       ?GetAccessibleName@CXTPCommandBar@@MAEJUtagVARIANT@@PAPAG@Z 004c5130 f   ToolkitPro1501vc60S:XTPCommandBar.obj
 0001:000c42e0       ?GetAccessibleRole@CXTPCommandBar@@MAEJUtagVARIANT@@PAU2@@Z 004c52e0 f   ToolkitPro1501vc60S:XTPCommandBar.obj
 0001:000c4350       ?GetAccessibleState@CXTPCommandBar@@MAEJUtagVARIANT@@PAU2@@Z 004c5350 f   ToolkitPro1501vc60S:XTPCommandBar.obj
 0001:000c43d0       ?AccessibleLocation@CXTPCommandBar@@MAEJPAJ000UtagVARIANT@@@Z 004c53d0 f   ToolkitPro1501vc60S:XTPCommandBar.obj
 0001:000c44b0       ?AccessibleHitTest@CXTPCommandBar@@MAEJJJPAUtagVARIANT@@@Z 004c54b0 f   ToolkitPro1501vc60S:XTPCommandBar.obj
 0001:000c4580       ?OnGetObject@CXTPCommandBar@@QAEJIJ@Z 004c5580 f   ToolkitPro1501vc60S:XTPCommandBar.obj
 0001:000c4620       ?FilterToolTipMessage@CXTPCommandBar@@QAEXIIJ@Z 004c5620 f   ToolkitPro1501vc60S:XTPCommandBar.obj
 0001:000c4650       ?OnWndMsg@CXTPCommandBar@@UAEHIIJPAJ@Z 004c5650 f   ToolkitPro1501vc60S:XTPCommandBar.obj
 0001:000c4680       ?GetInterfaceMap@CXTPCommandBar@@MBEPBUAFX_INTERFACEMAP@@XZ 004c5680 f   ToolkitPro1501vc60S:XTPCommandBar.obj
 0001:000c4690       ??_9@$BBHA@AE              004c5690 f i ToolkitPro1501vc60S:XTPCommandBar.obj
 0001:000c46a0       ??_ECXTPCommandBar@@ODM@AEPAXI@Z 004c56a0 f i ToolkitPro1501vc60S:XTPCommandBar.obj
 0001:000c46b0       ??_ECXTPCommandBar@@OEE@AEPAXI@Z 004c56b0 f i ToolkitPro1501vc60S:XTPCommandBar.obj
 0001:000c46c0       ?CreateObject@CXTPToolBar@@SGPAVCObject@@XZ 004c56c0 f   ToolkitPro1501vc60S:XTPToolBar.obj
 0001:000c4720       ?GetRuntimeClass@CXTPToolBar@@UBEPAUCRuntimeClass@@XZ 004c5720 f   ToolkitPro1501vc60S:XTPToolBar.obj
 0001:000c4750       ?Clone@CXTPToolBar@@UAEPAVCXTPCommandBar@@H@Z 004c5750 f   ToolkitPro1501vc60S:XTPToolBar.obj
 0001:000c4780       ?Draw@CControlButtonHide@CXTPToolBar@@UAEXPAVCDC@@@Z 004c5780 f   ToolkitPro1501vc60S:XTPToolBar.obj
 0001:000c47c0       ?IsHiddenExists@CControlButtonExpand@CXTPToolBar@@QAEHXZ 004c57c0 f   ToolkitPro1501vc60S:XTPToolBar.obj
 0001:000c4810       ?Draw@CControlButtonExpand@CXTPToolBar@@UAEXPAVCDC@@@Z 004c5810 f   ToolkitPro1501vc60S:XTPToolBar.obj
 0001:000c4870       ?OnSetPopup@CControlButtonExpand@CXTPToolBar@@UAEHH@Z 004c5870 f   ToolkitPro1501vc60S:XTPToolBar.obj
 0001:000c4aa0       ??0CXTPToolBar@@QAE@XZ     004c5aa0 f   ToolkitPro1501vc60S:XTPToolBar.obj
 0001:000c4b90       ?IsVisible@CXTPToolBar@@UBEHXZ 004c5b90 f i ToolkitPro1501vc60S:XTPToolBar.obj
 0001:000c4ba0       ??_ECXTPToolBar@@UAEPAXI@Z 004c5ba0 f i ToolkitPro1501vc60S:XTPToolBar.obj
 0001:000c4ba0       ??_GCXTPToolBar@@UAEPAXI@Z 004c5ba0 f i ToolkitPro1501vc60S:XTPToolBar.obj
 0001:000c4bc0       ?EnableDocking@CXTPToolBar@@QAEXK@Z 004c5bc0 f   ToolkitPro1501vc60S:XTPToolBar.obj
 0001:000c4bd0       ??1CXTPToolBar@@UAE@XZ     004c5bd0 f   ToolkitPro1501vc60S:XTPToolBar.obj
 0001:000c4c50       ?SetButtons@CXTPCommandBar@@QAEHPAIH@Z 004c5c50 f   ToolkitPro1501vc60S:XTPToolBar.obj
 0001:000c4e60       ??1XTP_COMMANDBARS_CREATECONTROL@@QAE@XZ 004c5e60 f i ToolkitPro1501vc60S:XTPToolBar.obj
 0001:000c4e70       ?LoadToolBar@CXTPToolBar@@UAEHIH@Z 004c5e70 f   ToolkitPro1501vc60S:XTPToolBar.obj
 0001:000c4eb0       ?LoadToolBar@CXTPCommandBar@@UAEHIH@Z 004c5eb0 f   ToolkitPro1501vc60S:XTPToolBar.obj
 0001:000c5000       ?items@CToolBarData@?1??LoadToolBar@CXTPCommandBar@@UAEHIH@Z@QAEPAGXZ 004c6000 f   ToolkitPro1501vc60S:XTPToolBar.obj
 0001:000c5000       ?items@CToolBarData@?1??LoadToolbar@CXTPImageManager@@ABEHIAAPAIAAHAAVCSize@@@Z@QAEPAGXZ 004c6000 f   ToolkitPro1501vc60S:XTPToolBar.obj
 0001:000c5010       ?SetPosition@CXTPToolBar@@UAEHW4XTPBarPosition@@@Z 004c6010 f   ToolkitPro1501vc60S:XTPToolBar.obj
 0001:000c5060       ?GetMessageMap@CXTPToolBar@@MBEPBUAFX_MSGMAP@@XZ 004c6060 f   ToolkitPro1501vc60S:XTPToolBar.obj
 0001:000c5070       ?OnSetCursor@CXTPToolBar@@IAEHPAVCWnd@@II@Z 004c6070 f   ToolkitPro1501vc60S:XTPToolBar.obj
 0001:000c51f0       ?OnToolHitTest@CXTPCommandBar@@UBEHVCPoint@@PAUtagTOOLINFOA@@@Z 004c61f0 f   ToolkitPro1501vc60S:XTPToolBar.obj
 0001:000c5530       ?OnRButtonDown@CXTPToolBar@@IAEXIVCPoint@@@Z 004c6530 f   ToolkitPro1501vc60S:XTPToolBar.obj
 0001:000c55f0       ?Create@CXTPToolBar@@MAEHPAVCWnd@@H@Z 004c65f0 f   ToolkitPro1501vc60S:XTPToolBar.obj
 0001:000c5750       ?GetBorders@CXTPToolBar@@MAE?AVCRect@@XZ 004c6750 f   ToolkitPro1501vc60S:XTPToolBar.obj
 0001:000c5800       ?CalcDockingLayout@CXTPToolBar@@UAE?AVCSize@@HKH@Z 004c6800 f   ToolkitPro1501vc60S:XTPToolBar.obj
 0001:000c5b50       ?GetCommandBar@CXTPControlPopup@@UBEPAVCXTPCommandBar@@XZ 004c6b50 f i ToolkitPro1501vc60S:XTPToolBar.obj
 0001:000c5b60       ?GetPopuped@CXTPControlPopup@@UBEHXZ 004c6b60 f i ToolkitPro1501vc60S:XTPToolBar.obj
 0001:000c5b70       ?SetRect@CControlButtonExpand@CXTPToolBar@@UAEXVCRect@@@Z 004c6b70 f i ToolkitPro1501vc60S:XTPToolBar.obj
 0001:000c5bb0       ?CalcDynamicLayout@CXTPToolBar@@UAE?AVCSize@@HK@Z 004c6bb0 f   ToolkitPro1501vc60S:XTPToolBar.obj
 0001:000c5f60       ?OnExecute@CControlButtonHide@CXTPToolBar@@UAEXXZ 004c6f60 f i ToolkitPro1501vc60S:XTPToolBar.obj
 0001:000c5f60       ?OnExecute@CControlButtonHide@CXTPDialogBar@@UAEXXZ 004c6f60 f i ToolkitPro1501vc60S:XTPToolBar.obj
 0001:000c5f80       ?GetCommandBar@CXTPControl@@UBEPAVCXTPCommandBar@@XZ 004c6f80 f i ToolkitPro1501vc60S:XTPToolBar.obj
 0001:000c5f80       ?IsDialogBar@CXTPCommandBar@@UBEHXZ 004c6f80 f i ToolkitPro1501vc60S:XTPToolBar.obj
 0001:000c5f80       ?IsEvent@CXTPMarkupDependencyProperty@@UBEHXZ 004c6f80 f i ToolkitPro1501vc60S:XTPToolBar.obj
 0001:000c5f80       ?IsCustomizeMovable@CXTPRibbonBarControlCaptionButton@@MBEHXZ 004c6f80 f i ToolkitPro1501vc60S:XTPToolBar.obj
 0001:000c5f80       ?IsCustomizeMovable@CControlButtonExpand@CXTPToolBar@@UBEHXZ 004c6f80 f i ToolkitPro1501vc60S:XTPToolBar.obj
 0001:000c5f80       ?HeaderHasFocus@CXTPTabManager@@MBEHXZ 004c6f80 f i ToolkitPro1501vc60S:XTPToolBar.obj
 0001:000c5f80       ?BaseTheme@CXTPDefaultTheme@@MAE?AW4XTPPaintTheme@@XZ 004c6f80 f i ToolkitPro1501vc60S:XTPToolBar.obj
 0001:000c5f80       ?GetPopuped@CXTPControl@@UBEHXZ 004c6f80 f i ToolkitPro1501vc60S:XTPToolBar.obj
 0001:000c5f80       ?IsCustomizable@CXTPControlComboBoxList@@MBEHXZ 004c6f80 f i ToolkitPro1501vc60S:XTPToolBar.obj
 0001:000c5f80       ?IsRibbonBar@CXTPCommandBar@@UBEHXZ 004c6f80 f i ToolkitPro1501vc60S:XTPToolBar.obj
 0001:000c5f80       ?IsFocused@CXTPControl@@UBEHXZ 004c6f80 f i ToolkitPro1501vc60S:XTPToolBar.obj
 0001:000c5f80       ?IsCustomizeMovable@CXTPRibbonBarControlQuickAccessPopup@@UBEHXZ 004c6f80 f i ToolkitPro1501vc60S:XTPToolBar.obj
 0001:000c5f80       ?GetCustomizeMinHeight@CXTPControl@@MBEHXZ 004c6f80 f i ToolkitPro1501vc60S:XTPToolBar.obj
 0001:000c5f80       ?GetSelected@CXTPControlLabel@@UBEHXZ 004c6f80 f i ToolkitPro1501vc60S:XTPToolBar.obj
 0001:000c5f80       ?IsCaptionVisible@CControlButtonExpand@CXTPToolBar@@UBEHXZ 004c6f80 f i ToolkitPro1501vc60S:XTPToolBar.obj
 0001:000c5f80       ?IsFocusable@CXTPControl@@MBEHXZ 004c6f80 f i ToolkitPro1501vc60S:XTPToolBar.obj
 0001:000c5f80       ?IsAllowDefaultValues@CXTPPropExchangeArchive@@UBEHXZ 004c6f80 f i ToolkitPro1501vc60S:XTPToolBar.obj
 0001:000c5f80       ?GetPaneHwnd@CXTPDockingPaneBase@@UBEPAUHWND__@@XZ 004c6f80 f i ToolkitPro1501vc60S:XTPToolBar.obj
 0001:000c5f80       ?GetParentCommandBar@CXTPCommandBar@@UBEPAV1@XZ 004c6f80 f i ToolkitPro1501vc60S:XTPToolBar.obj
 0001:000c5f80       ?IsResizable@CXTPCommandBar@@UBEHXZ 004c6f80 f i ToolkitPro1501vc60S:XTPToolBar.obj
 0001:000c5f80       ?IsMouseLocked@CXTPTabManager@@MBEHXZ 004c6f80 f i ToolkitPro1501vc60S:XTPToolBar.obj
 0001:000c5f80       ?IsCustomizeMovable@CControlGroupsScroll@CXTPRibbonScrollableBar@@UBEHXZ 004c6f80 f i ToolkitPro1501vc60S:XTPToolBar.obj
 0001:000c5f80       ?IsPopupBar@CXTPCommandBar@@UBEHXZ 004c6f80 f i ToolkitPro1501vc60S:XTPToolBar.obj
 0001:000c5f80       ?IsVisible@CXTPCommandBar@@UBEHXZ 004c6f80 f i ToolkitPro1501vc60S:XTPToolBar.obj
 0001:000c5f80       ?GetCustomizeMinWidth@CXTPControl@@MBEHXZ 004c6f80 f i ToolkitPro1501vc60S:XTPToolBar.obj
 0001:000c5f80       ?IsTransparent@CXTPControl@@UBEHXZ 004c6f80 f i ToolkitPro1501vc60S:XTPToolBar.obj
 0001:000c5f80       ?IsAllowBlobValues@CXTPPropExchange@@UBEHXZ 004c6f80 f i ToolkitPro1501vc60S:XTPToolBar.obj
 0001:000c5f80       ?IsCustomizeMovable@CControlButtonHide@CXTPToolBar@@UBEHXZ 004c6f80 f i ToolkitPro1501vc60S:XTPToolBar.obj
 0001:000c5f80       ?IsPrinting@CXTPMarkupDrawingContext@@UBEHXZ 004c6f80 f i ToolkitPro1501vc60S:XTPToolBar.obj
 0001:000c5f90       ?OnRecalcLayout@CXTPToolBar@@UAEXXZ 004c6f90 f   ToolkitPro1501vc60S:XTPToolBar.obj
 0001:000c60b0       ?OnNcCreate@CXTPToolBar@@IAEHPAUtagCREATESTRUCTA@@@Z 004c70b0 f   ToolkitPro1501vc60S:XTPToolBar.obj
 0001:000c60b0       ?OnNcCreate@CXTPPopupBar@@IAEHPAUtagCREATESTRUCTA@@@Z 004c70b0 f   ToolkitPro1501vc60S:XTPToolBar.obj
 0001:000c6150       ?OnFloatStatus@CXTPToolBar@@IAEJIJ@Z 004c7150 f   ToolkitPro1501vc60S:XTPToolBar.obj
 0001:000c6260       ?IsFloatingFrameFocused@CXTPToolBar@@ABEHXZ 004c7260 f   ToolkitPro1501vc60S:XTPToolBar.obj
 0001:000c62c0       ?OnMouseActivate@CXTPToolBar@@IAEHPAVCWnd@@II@Z 004c72c0 f   ToolkitPro1501vc60S:XTPToolBar.obj
 0001:000c6300       ?OnLButtonDown@CXTPToolBar@@IAEXIVCPoint@@@Z 004c7300 f   ToolkitPro1501vc60S:XTPToolBar.obj
 0001:000c63a0       ?OnLButtonDblClk@CXTPToolBar@@IAEXIVCPoint@@@Z 004c73a0 f   ToolkitPro1501vc60S:XTPToolBar.obj
 0001:000c63f0       ?OnNcHitTest@CXTPToolBar@@IAEJVCPoint@@@Z 004c73f0 f   ToolkitPro1501vc60S:XTPToolBar.obj
 0001:000c64c0       ?OnNcLButtonDown@CXTPToolBar@@IAEXIVCPoint@@@Z 004c74c0 f   ToolkitPro1501vc60S:XTPToolBar.obj
 0001:000c6540       ?IsWindowVisible@CXTPToolBar@@QBEHXZ 004c7540 f   ToolkitPro1501vc60S:XTPToolBar.obj
 0001:000c65a0       ?SetVisible@CXTPToolBar@@UAEXH@Z 004c75a0 f   ToolkitPro1501vc60S:XTPToolBar.obj
 0001:000c66e0       ?OnSizeParent@CXTPToolBar@@IAEJIJ@Z 004c76e0 f   ToolkitPro1501vc60S:XTPToolBar.obj
 0001:000c67e0       ?GetAutoIconSize@CXTPCommandBar@@IBE?AVCSize@@H@Z 004c77e0 f   ToolkitPro1501vc60S:XTPToolBar.obj
 0001:000c6810       ?GetIconSize@CXTPCommandBar@@UBE?AVCSize@@XZ 004c7810 f   ToolkitPro1501vc60S:XTPToolBar.obj
 0001:000c6930       ?GetLargeIconSize@CXTPCommandBar@@QBE?AVCSize@@H@Z 004c7930 f   ToolkitPro1501vc60S:XTPToolBar.obj
 0001:000c6a50       ?GetButtonSize@CXTPCommandBar@@UBE?AVCSize@@XZ 004c7a50 f   ToolkitPro1501vc60S:XTPToolBar.obj
 0001:000c6ab0       ?IsTextBelowIcons@CXTPCommandBar@@QBEHXZ 004c7ab0 f   ToolkitPro1501vc60S:XTPToolBar.obj
 0001:000c6ad0       ?_FindNearest@CXTPToolBar@@ABEHPAVCXTPControls@@PAVCXTPControl@@HH@Z 004c7ad0 f   ToolkitPro1501vc60S:XTPToolBar.obj
 0001:000c6b30       ?Reset@CXTPToolBar@@UAEXH@Z 004c7b30 f   ToolkitPro1501vc60S:XTPToolBar.obj
 0001:000c6d40       ??1CXTPPushRoutingFrame@CXTPToolBar@@QAE@XZ 004c7d40 f i ToolkitPro1501vc60S:XTPToolBar.obj
 0001:000c6d50       ?BuildCustomizePopup@CXTPToolBar@@AAEXPAVCXTPCommandBar@@@Z 004c7d50 f   ToolkitPro1501vc60S:XTPToolBar.obj
 0001:000c71f0       ?OnExecute@CControlButtonCustomize@CXTPToolBar@@UAEXXZ 004c81f0 f i ToolkitPro1501vc60S:XTPToolBar.obj
 0001:000c72b0       ?OnSetPreviewMode@CXTPToolBar@@QAEXH@Z 004c82b0 f   ToolkitPro1501vc60S:XTPToolBar.obj
 0001:000c7340       ?Copy@CXTPToolBar@@MAEXPAVCXTPCommandBar@@H@Z 004c8340 f   ToolkitPro1501vc60S:XTPToolBar.obj
 0001:000c7380       ?OnHookKeyDown@CXTPToolBar@@UAEHIJ@Z 004c8380 f   ToolkitPro1501vc60S:XTPToolBar.obj
 0001:000c7430       ?OnSetFocus@CXTPToolBar@@IAEXPAVCWnd@@@Z 004c8430 f   ToolkitPro1501vc60S:XTPToolBar.obj
 0001:000c7470       ?ShouldSerializeBar@CXTPToolBar@@MAEHXZ 004c8470 f   ToolkitPro1501vc60S:XTPToolBar.obj
 0001:000c74a0       ??_ECXTPToolBar@@WDM@AEPAXI@Z 004c84a0 f i ToolkitPro1501vc60S:XTPToolBar.obj
 0001:000c74b0       ??_ECXTPToolBar@@WEE@AEPAXI@Z 004c84b0 f i ToolkitPro1501vc60S:XTPToolBar.obj
 0001:000c74c0       ?GetTransparentColor@CXTPTransparentBitmap@@QBEKXZ 004c84c0 f   ToolkitPro1501vc60S:XTPDrawHelpers.obj
 0001:000c7510       ?ConvertToIcon@CXTPTransparentBitmap@@QBEPAUHICON__@@XZ 004c8510 f   ToolkitPro1501vc60S:XTPDrawHelpers.obj
 0001:000c7600       ??0CXTPEmptyRect@@QAE@XZ   004c8600 f   ToolkitPro1501vc60S:XTPDrawHelpers.obj
 0001:000c7610       ??0CXTPWindowRect@@QAE@PAUHWND__@@@Z 004c8610 f   ToolkitPro1501vc60S:XTPDrawHelpers.obj
 0001:000c7640       ??0CXTPWindowRect@@QAE@PBVCWnd@@@Z 004c8640 f   ToolkitPro1501vc60S:XTPDrawHelpers.obj
 0001:000c76a0       ??0CXTPClientRect@@QAE@PBVCWnd@@@Z 004c86a0 f   ToolkitPro1501vc60S:XTPDrawHelpers.obj
 0001:000c7700       ??0CXTPBufferDC@@QAE@PAUHDC__@@ABVCRect@@@Z 004c8700 f   ToolkitPro1501vc60S:XTPDrawHelpers.obj
 0001:000c77d0       ??_ECXTPBufferDC@@UAEPAXI@Z 004c87d0 f i ToolkitPro1501vc60S:XTPDrawHelpers.obj
 0001:000c77d0       ??_GCXTPBufferDC@@UAEPAXI@Z 004c87d0 f i ToolkitPro1501vc60S:XTPDrawHelpers.obj
 0001:000c77f0       ??0CXTPBufferDC@@QAE@AAVCPaintDC@@@Z 004c87f0 f   ToolkitPro1501vc60S:XTPDrawHelpers.obj
 0001:000c7920       ??1CXTPBufferDC@@UAE@XZ    004c8920 f   ToolkitPro1501vc60S:XTPDrawHelpers.obj
 0001:000c79d0       ??0CXTPFontDC@@QAE@PAVCDC@@PAVCFont@@@Z 004c89d0 f   ToolkitPro1501vc60S:XTPDrawHelpers.obj
 0001:000c7a10       ??_ECXTPFontDC@@UAEPAXI@Z  004c8a10 f i ToolkitPro1501vc60S:XTPDrawHelpers.obj
 0001:000c7a10       ??_GCXTPFontDC@@UAEPAXI@Z  004c8a10 f i ToolkitPro1501vc60S:XTPDrawHelpers.obj
 0001:000c7a30       ??1CXTPFontDC@@UAE@XZ      004c8a30 f   ToolkitPro1501vc60S:XTPDrawHelpers.obj
 0001:000c7a50       ?SetFont@CXTPFontDC@@QAEXPAVCFont@@@Z 004c8a50 f   ToolkitPro1501vc60S:XTPDrawHelpers.obj
 0001:000c7a80       ?ReleaseFont@CXTPFontDC@@QAEXXZ 004c8a80 f   ToolkitPro1501vc60S:XTPDrawHelpers.obj
 0001:000c7aa0       ?ReleaseColor@CXTPFontDC@@QAEXXZ 004c8aa0 f   ToolkitPro1501vc60S:XTPDrawHelpers.obj
 0001:000c7ad0       ??0CXTPPenDC@@QAE@PAVCDC@@PAVCPen@@@Z 004c8ad0 f   ToolkitPro1501vc60S:XTPDrawHelpers.obj
 0001:000c7b30       ??_GCXTPPenDC@@UAEPAXI@Z   004c8b30 f i ToolkitPro1501vc60S:XTPDrawHelpers.obj
 0001:000c7b30       ??_ECXTPPenDC@@UAEPAXI@Z   004c8b30 f i ToolkitPro1501vc60S:XTPDrawHelpers.obj
 0001:000c7b50       ??0CXTPPenDC@@QAE@PAUHDC__@@K@Z 004c8b50 f   ToolkitPro1501vc60S:XTPDrawHelpers.obj
 0001:000c7be0       ??1CXTPPenDC@@UAE@XZ       004c8be0 f   ToolkitPro1501vc60S:XTPDrawHelpers.obj
 0001:000c7c40       ?Color@CXTPPenDC@@QAEXK@Z  004c8c40 f   ToolkitPro1501vc60S:XTPDrawHelpers.obj
 0001:000c7ca0       ??0CXTPBrushDC@@QAE@PAUHDC__@@K@Z 004c8ca0 f   ToolkitPro1501vc60S:XTPDrawHelpers.obj
 0001:000c7d20       ??_GCXTPBrushDC@@UAEPAXI@Z 004c8d20 f i ToolkitPro1501vc60S:XTPDrawHelpers.obj
 0001:000c7d20       ??_ECXTPBrushDC@@UAEPAXI@Z 004c8d20 f i ToolkitPro1501vc60S:XTPDrawHelpers.obj
 0001:000c7d40       ??1CXTPBrushDC@@UAE@XZ     004c8d40 f   ToolkitPro1501vc60S:XTPDrawHelpers.obj
 0001:000c7da0       ??0CXTPCompatibleDC@@QAE@PAVCDC@@PAVCBitmap@@@Z 004c8da0 f   ToolkitPro1501vc60S:XTPDrawHelpers.obj
 0001:000c7e30       ??_GCXTPCompatibleDC@@UAEPAXI@Z 004c8e30 f i ToolkitPro1501vc60S:XTPDrawHelpers.obj
 0001:000c7e30       ??_ECXTPCompatibleDC@@UAEPAXI@Z 004c8e30 f i ToolkitPro1501vc60S:XTPDrawHelpers.obj
 0001:000c7e50       ??0CXTPCompatibleDC@@QAE@PAVCDC@@PAUHBITMAP__@@@Z 004c8e50 f   ToolkitPro1501vc60S:XTPDrawHelpers.obj
 0001:000c7ed0       ??1CXTPCompatibleDC@@UAE@XZ 004c8ed0 f   ToolkitPro1501vc60S:XTPDrawHelpers.obj
 0001:000c7f40       ??0CXTPSplitterTracker@@QAE@HH@Z 004c8f40 f   ToolkitPro1501vc60S:XTPDrawHelpers.obj
 0001:000c7fa0       ?OnInvertTracker@CXTPSplitterTracker@@AAEXVCRect@@@Z 004c8fa0 f   ToolkitPro1501vc60S:XTPDrawHelpers.obj
 0001:000c8050       ?Track@CXTPSplitterTracker@@QAEHPAVCWnd@@VCRect@@AAV3@VCPoint@@H@Z 004c9050 f   ToolkitPro1501vc60S:XTPDrawHelpers.obj
 0001:000c84d0       ??0CXTPDrawHelpers@@QAE@XZ 004c94d0 f   ToolkitPro1501vc60S:XTPDrawHelpers.obj
 0001:000c8530       ??_GCXTPDrawHelpers@@UAEPAXI@Z 004c9530 f i ToolkitPro1501vc60S:XTPDrawHelpers.obj
 0001:000c8530       ??_ECXTPDrawHelpers@@UAEPAXI@Z 004c9530 f i ToolkitPro1501vc60S:XTPDrawHelpers.obj
 0001:000c8550       ?XTPDrawHelpers@@YAPAVCXTPDrawHelpers@@XZ 004c9550 f   ToolkitPro1501vc60S:XTPDrawHelpers.obj
 0001:000c85a0       ??1CXTPDrawHelpers@@UAE@XZ 004c95a0 f   ToolkitPro1501vc60S:XTPDrawHelpers.obj
 0001:000c85b0       ?GradientFill@CXTPDrawHelpers@@QAEHPAUHDC__@@PAU_TRIVERTEX@@KPAXKK@Z 004c95b0 f   ToolkitPro1501vc60S:XTPDrawHelpers.obj
 0001:000c85e0       ?GradientFillSlow@CXTPDrawHelpers@@AAEXPAVCDC@@PBUtagRECT@@KKH@Z 004c95e0 f   ToolkitPro1501vc60S:XTPDrawHelpers.obj
 0001:000c8750       ?GradientFillFast@CXTPDrawHelpers@@AAEXPAVCDC@@PBUtagRECT@@KKH@Z 004c9750 f   ToolkitPro1501vc60S:XTPDrawHelpers.obj
 0001:000c8820       ?GradientFill@CXTPDrawHelpers@@QAEXPAVCDC@@PBUtagRECT@@KKH@Z 004c9820 f   ToolkitPro1501vc60S:XTPDrawHelpers.obj
 0001:000c88f0       ?GradientFill@CXTPDrawHelpers@@QAEXPAVCDC@@PBUtagRECT@@KKH1@Z 004c98f0 f   ToolkitPro1501vc60S:XTPDrawHelpers.obj
 0001:000c8b00       ?GradientFill@CXTPDrawHelpers@@QAEXPAVCDC@@PBUtagRECT@@ABVCXTPPaintManagerColorGradient@@H1@Z 004c9b00 f   ToolkitPro1501vc60S:XTPDrawHelpers.obj
 0001:000c8cc0       ?StripMnemonics@CXTPDrawHelpers@@SAXAAVCString@@@Z 004c9cc0 f   ToolkitPro1501vc60S:XTPDrawHelpers.obj
 0001:000c8cf0       ?StripMnemonics@CXTPDrawHelpers@@SAXPAD@Z 004c9cf0 f   ToolkitPro1501vc60S:XTPDrawHelpers.obj
 0001:000c8d20       ?BlendColors@CXTPDrawHelpers@@SAKKKN@Z 004c9d20 f   ToolkitPro1501vc60S:XTPDrawHelpers.obj
 0001:000c8e10       ?DarkenColor@CXTPDrawHelpers@@SAKJK@Z 004c9e10 f   ToolkitPro1501vc60S:XTPDrawHelpers.obj
 0001:000c8e80       ?Dlu2Pix@CXTPDrawHelpers@@SA?AVCPoint@@HH@Z 004c9e80 f   ToolkitPro1501vc60S:XTPDrawHelpers.obj
 0001:000c8ec0       ?RGBtoHSL@CXTPDrawHelpers@@SAKK@Z 004c9ec0 f   ToolkitPro1501vc60S:XTPDrawHelpers.obj
 0001:000c9060       ?HueToRGB@CXTPDrawHelpers@@CAHHHH@Z 004ca060 f   ToolkitPro1501vc60S:XTPDrawHelpers.obj
 0001:000c9130       ?HSLtoRGB@CXTPDrawHelpers@@SAKK@Z 004ca130 f   ToolkitPro1501vc60S:XTPDrawHelpers.obj
 0001:000c9260       ?FontExists@CXTPDrawHelpers@@SAHPBD@Z 004ca260 f   ToolkitPro1501vc60S:XTPDrawHelpers.obj
 0001:000c9340       ?GetVerticalFontName@CXTPDrawHelpers@@SA?AVCString@@H@Z 004ca340 f   ToolkitPro1501vc60S:XTPDrawHelpers.obj
 0001:000c9450       ?IsContextRTL@CXTPDrawHelpers@@SAHPAVCDC@@@Z 004ca450 f   ToolkitPro1501vc60S:XTPDrawHelpers.obj
 0001:000c9480       ?IsContextRTL@CXTPDrawHelpers@@SAHPAUHDC__@@@Z 004ca480 f   ToolkitPro1501vc60S:XTPDrawHelpers.obj
 0001:000c94d0       ?SetContextRTL@CXTPDrawHelpers@@SAXPAVCDC@@H@Z 004ca4d0 f   ToolkitPro1501vc60S:XTPDrawHelpers.obj
 0001:000c94f0       ?SetContextRTL@CXTPDrawHelpers@@SAXPAUHDC__@@H@Z 004ca4f0 f   ToolkitPro1501vc60S:XTPDrawHelpers.obj
 0001:000c9540       ?KeyToLayout@CXTPDrawHelpers@@SAXPAVCWnd@@AAI@Z 004ca540 f   ToolkitPro1501vc60S:XTPDrawHelpers.obj
 0001:000c9590       ?Triangle@CXTPDrawHelpers@@SAXPAVCDC@@VCPoint@@11K@Z 004ca590 f   ToolkitPro1501vc60S:XTPDrawHelpers.obj
 0001:000c9660       ?IsLowResolution@CXTPDrawHelpers@@SAHPAUHDC__@@@Z 004ca660 f   ToolkitPro1501vc60S:XTPDrawHelpers.obj
 0001:000c9680       ?IsTopParentActive@CXTPDrawHelpers@@SAHPAUHWND__@@@Z 004ca680 f   ToolkitPro1501vc60S:XTPDrawHelpers.obj
 0001:000c96c0       ?ScreenToWindow@CXTPDrawHelpers@@SAXPAVCWnd@@PAUtagPOINT@@@Z 004ca6c0 f   ToolkitPro1501vc60S:XTPDrawHelpers.obj
 0001:000c9730       ?RegisterWndClass@CXTPDrawHelpers@@SAHPAUHINSTANCE__@@PBDIPAUHICON__@@PAUHBRUSH__@@@Z 004ca730 f   ToolkitPro1501vc60S:XTPDrawHelpers.obj
 0001:000c97b0       ?GetWindowCaption@CXTPDrawHelpers@@SAXPAUHWND__@@AAVCString@@@Z 004ca7b0 f   ToolkitPro1501vc60S:XTPDrawHelpers.obj
 0001:000c97f0       ?GetIconLogFont@CXTPDrawHelpers@@SAHPAUtagLOGFONTA@@@Z 004ca7f0 f   ToolkitPro1501vc60S:XTPDrawHelpers.obj
 0001:000c9860       ??1?$CProcessLocal@VXTP_PRINT_STATE@@@@QAE@XZ 004ca860 f i ToolkitPro1501vc60S:XTPDrawHelpers.obj
 0001:000c9860       ??1?$CProcessLocal@VCXTPResourceManager@@@@QAE@XZ 004ca860 f i ToolkitPro1501vc60S:XTPDrawHelpers.obj
 0001:000c9870       ?GetRuntimeClass@CXTPCustomizeSheet@@UBEPAUCRuntimeClass@@XZ 004ca870 f   ToolkitPro1501vc60S:XTPCustomizeSheet.obj
 0001:000c9880       ??0CXTPCustomizeSheet@@QAE@PAVCXTPCommandBars@@I@Z 004ca880 f   ToolkitPro1501vc60S:XTPCustomizeSheet.obj
 0001:000c9aa0       ??_GCXTPCustomizeSheet@@UAEPAXI@Z 004caaa0 f i ToolkitPro1501vc60S:XTPCustomizeSheet.obj
 0001:000c9aa0       ??_ECXTPCustomizeSheet@@UAEPAXI@Z 004caaa0 f i ToolkitPro1501vc60S:XTPCustomizeSheet.obj
 0001:000c9ac0       ??1CXTPCustomizeSheet@@UAE@XZ 004caac0 f   ToolkitPro1501vc60S:XTPCustomizeSheet.obj
 0001:000c9b50       ?CreateContextMenu@CXTPCustomizeSheet@@AAEXXZ 004cab50 f   ToolkitPro1501vc60S:XTPCustomizeSheet.obj
 0001:000c9eb0       ?GetCustomizeMinWidth@CXTPControlEdit@@MBEHXZ 004caeb0 f i ToolkitPro1501vc60S:XTPCustomizeSheet.obj
 0001:000c9ec0       ?OnThemeChanged@CXTPControlEdit@@MAEXXZ 004caec0 f i ToolkitPro1501vc60S:XTPCustomizeSheet.obj
 0001:000c9ed0       ?OnExecute@CCustomizeButton@CXTPCustomizeSheet@@EAEXXZ 004caed0 f i ToolkitPro1501vc60S:XTPCustomizeSheet.obj
 0001:000c9f30       ?OnSetSelected@CCustomizeEdit@CXTPCustomizeSheet@@EAEHH@Z 004caf30 f i ToolkitPro1501vc60S:XTPCustomizeSheet.obj
 0001:000c9fb0       ?OnExecute@CCustomizeEdit@CXTPCustomizeSheet@@EAEXXZ 004cafb0 f i ToolkitPro1501vc60S:XTPCustomizeSheet.obj
 0001:000ca010       ??_GCCustomizeEdit@CXTPCustomizeSheet@@UAEPAXI@Z 004cb010 f i ToolkitPro1501vc60S:XTPCustomizeSheet.obj
 0001:000ca010       ??_ECCustomizeEdit@CXTPCustomizeSheet@@UAEPAXI@Z 004cb010 f i ToolkitPro1501vc60S:XTPCustomizeSheet.obj
 0001:000ca030       ??1CCustomizeEdit@CXTPCustomizeSheet@@UAE@XZ 004cb030 f i ToolkitPro1501vc60S:XTPCustomizeSheet.obj
 0001:000ca040       ?AddPage@CXTPCustomizeSheet@@QAEXPAVCXTPPropertyPage@@@Z 004cb040 f   ToolkitPro1501vc60S:XTPCustomizeSheet.obj
 0001:000ca070       ?GetMessageMap@CXTPCustomizeSheet@@MBEPBUAFX_MSGMAP@@XZ 004cb070 f   ToolkitPro1501vc60S:XTPCustomizeSheet.obj
 0001:000ca080       ?CreateClient@CXTPCustomizeSheet@@EAEHXZ 004cb080 f   ToolkitPro1501vc60S:XTPCustomizeSheet.obj
 0001:000ca090       ?OnInitDialog@CXTPCustomizeSheet@@MAEHXZ 004cb090 f   ToolkitPro1501vc60S:XTPCustomizeSheet.obj
 0001:000ca150       ?ContextMenu@CXTPCustomizeSheet@@QAEXVCPoint@@@Z 004cb150 f   ToolkitPro1501vc60S:XTPCustomizeSheet.obj
 0001:000ca1a0       ?DoModal@CXTPCustomizeSheet@@UAEHXZ 004cb1a0 f   ToolkitPro1501vc60S:XTPCustomizeSheet.obj
 0001:000ca4b0       ??0CXTPCustomizeHook@@QAE@PAVCXTPCustomizeSheet@@P81@AEHIJ@Z@Z 004cb4b0 f i ToolkitPro1501vc60S:XTPCustomizeSheet.obj
 0001:000ca4d0       ?Unhook@CXTPCustomizeHook@@QAEXXZ 004cb4d0 f i ToolkitPro1501vc60S:XTPCustomizeSheet.obj
 0001:000ca4d0       ??1CXTPCustomizeHook@@QAE@XZ 004cb4d0 f i ToolkitPro1501vc60S:XTPCustomizeSheet.obj
 0001:000ca4f0       ??1CXTPCustomizeHooks@@QAE@XZ 004cb4f0 f i ToolkitPro1501vc60S:XTPCustomizeSheet.obj
 0001:000ca560       ?MouseProc@CXTPCustomizeHooks@@SGJHIJ@Z 004cb560 f i ToolkitPro1501vc60S:XTPCustomizeSheet.obj
 0001:000ca5b0       ?KeyProc@CXTPCustomizeHooks@@SGJHIJ@Z 004cb5b0 f i ToolkitPro1501vc60S:XTPCustomizeSheet.obj
 0001:000ca600       ?MessageProc@CXTPCustomizeHooks@@SGJHIJ@Z 004cb600 f i ToolkitPro1501vc60S:XTPCustomizeSheet.obj
 0001:000ca650       ?FilterMouse@CXTPCustomizeSheet@@AAEHIJ@Z 004cb650 f   ToolkitPro1501vc60S:XTPCustomizeSheet.obj
 0001:000ca870       ?FilterKey@CXTPCustomizeSheet@@AAEHIJ@Z 004cb870 f   ToolkitPro1501vc60S:XTPCustomizeSheet.obj
 0001:000ca910       ?FilterMessage@CXTPCustomizeSheet@@AAEHIJ@Z 004cb910 f   ToolkitPro1501vc60S:XTPCustomizeSheet.obj
 0001:000ca960       ?GetDragControl@CXTPCustomizeSheet@@QBEPAVCXTPControl@@XZ 004cb960 f   ToolkitPro1501vc60S:XTPCustomizeSheet.obj
 0001:000ca980       ?OnCustomizeDefaultStyle@CXTPCustomizeSheet@@IAEXXZ 004cb980 f   ToolkitPro1501vc60S:XTPCustomizeSheet.obj
 0001:000ca9b0       ?OnCustomizeImageAndText@CXTPCustomizeSheet@@IAEXXZ 004cb9b0 f   ToolkitPro1501vc60S:XTPCustomizeSheet.obj
 0001:000ca9e0       ?OnCustomizeTextOnly@CXTPCustomizeSheet@@IAEXXZ 004cb9e0 f   ToolkitPro1501vc60S:XTPCustomizeSheet.obj
 0001:000caa10       ?OnCustomizeBeginGroup@CXTPCustomizeSheet@@IAEXXZ 004cba10 f   ToolkitPro1501vc60S:XTPCustomizeSheet.obj
 0001:000caa40       ?OnCustomizeDelete@CXTPCustomizeSheet@@IAEXXZ 004cba40 f   ToolkitPro1501vc60S:XTPCustomizeSheet.obj
 0001:000caa80       ?OnCustomizeEditImage@CXTPCustomizeSheet@@IAEXXZ 004cba80 f   ToolkitPro1501vc60S:XTPCustomizeSheet.obj
 0001:000cae10       ??1CDlgToolBar@CXTPImageEditorDlg@@UAE@XZ 004cbe10 f i ToolkitPro1501vc60S:XTPCustomizeSheet.obj
 0001:000cae20       ??1CXTPImageEditorDlg@@UAE@XZ 004cbe20 f i ToolkitPro1501vc60S:XTPCustomizeSheet.obj
 0001:000caf20       ??1CXTPImageEditorPicker@@UAE@XZ 004cbf20 f i ToolkitPro1501vc60S:XTPCustomizeSheet.obj
 0001:000caf20       ??1CXTPImageEditorPreview@@UAE@XZ 004cbf20 f i ToolkitPro1501vc60S:XTPCustomizeSheet.obj
 0001:000caf30       ?OnCustomizeCopyImage@CXTPCustomizeSheet@@IAEXXZ 004cbf30 f   ToolkitPro1501vc60S:XTPCustomizeSheet.obj
 0001:000cb290       ?OnCustomizePasteImage@CXTPCustomizeSheet@@IAEXXZ 004cc290 f   ToolkitPro1501vc60S:XTPCustomizeSheet.obj
 0001:000cb4b0       ?OnCustomizeResetImage@CXTPCustomizeSheet@@IAEXXZ 004cc4b0 f   ToolkitPro1501vc60S:XTPCustomizeSheet.obj
 0001:000cb4e0       ?OnCustomizeReset@CXTPCustomizeSheet@@IAEXXZ 004cc4e0 f   ToolkitPro1501vc60S:XTPCustomizeSheet.obj
 0001:000cb500       ?OnInitCommandsPopup@CXTPCustomizeSheet@@IAEXPAVCXTPPopupBar@@@Z 004cc500 f   ToolkitPro1501vc60S:XTPCustomizeSheet.obj
 0001:000cb620       ?OnCmdMsg@CXTPCustomizeSheet@@MAEHIHPAXPAUAFX_CMDHANDLERINFO@@@Z 004cc620 f   ToolkitPro1501vc60S:XTPCustomizeSheet.obj
 0001:000cb6a0       ?OnCustomizeName@CXTPCustomizeSheet@@IAEJIJ@Z 004cc6a0 f   ToolkitPro1501vc60S:XTPCustomizeSheet.obj
 0001:000cb890       ?IsAllowChangeStyle@CXTPCustomizeSheet@@ABEHPAVCXTPControl@@@Z 004cc890 f   ToolkitPro1501vc60S:XTPCustomizeSheet.obj
 0001:000cb920       ?OnUpdateCustomizeDefaultStyle@CXTPCustomizeSheet@@IAEXPAVCCmdUI@@@Z 004cc920 f   ToolkitPro1501vc60S:XTPCustomizeSheet.obj
 0001:000cb990       ?OnUpdateCustomizeImageAndText@CXTPCustomizeSheet@@IAEXPAVCCmdUI@@@Z 004cc990 f   ToolkitPro1501vc60S:XTPCustomizeSheet.obj
 0001:000cb9e0       ?OnUpdateCustomizeTextOnly@CXTPCustomizeSheet@@IAEXPAVCCmdUI@@@Z 004cc9e0 f   ToolkitPro1501vc60S:XTPCustomizeSheet.obj
 0001:000cba30       ?OnUpdateCustomizeCopyImage@CXTPCustomizeSheet@@IAEXPAVCCmdUI@@@Z 004cca30 f   ToolkitPro1501vc60S:XTPCustomizeSheet.obj
 0001:000cba30       ?OnUpdateCustomizeEditImage@CXTPCustomizeSheet@@IAEXPAVCCmdUI@@@Z 004cca30 f   ToolkitPro1501vc60S:XTPCustomizeSheet.obj
 0001:000cbac0       ?OnUpdateCustomizePasteImage@CXTPCustomizeSheet@@IAEXPAVCCmdUI@@@Z 004ccac0 f   ToolkitPro1501vc60S:XTPCustomizeSheet.obj
 0001:000cbb20       ?OnUpdateCustomizeResetImage@CXTPCustomizeSheet@@IAEXPAVCCmdUI@@@Z 004ccb20 f   ToolkitPro1501vc60S:XTPCustomizeSheet.obj
 0001:000cbb50       ?OnUpdateCustomizeReset@CXTPCustomizeSheet@@IAEXPAVCCmdUI@@@Z 004ccb50 f   ToolkitPro1501vc60S:XTPCustomizeSheet.obj
 0001:000cbba0       ?OnUpdateCustomizeBeginGroup@CXTPCustomizeSheet@@IAEXPAVCCmdUI@@@Z 004ccba0 f   ToolkitPro1501vc60S:XTPCustomizeSheet.obj
 0001:000cbbe0       ?OnUpdateCustomizeName@CXTPCustomizeSheet@@IAEXPAVCCmdUI@@@Z 004ccbe0 f   ToolkitPro1501vc60S:XTPCustomizeSheet.obj
 0001:000cbcd0       ?OnSize@CXTPTabClientWnd@@IAEXIHH@Z 004cccd0 f   ToolkitPro1501vc60S:XTPCustomizeSheet.obj
 0001:000cbcd0       ?OnChar@CXTPDockingPaneWindowSelect@@QAEXIII@Z 004cccd0 f   ToolkitPro1501vc60S:XTPCustomizeSheet.obj
 0001:000cbcd0       ?OnRButtonDown@CXTPTabClientWnd@@IAEXIVCPoint@@@Z 004cccd0 f   ToolkitPro1501vc60S:XTPCustomizeSheet.obj
 0001:000cbcd0       ?OnSysKeyDown@CXTPCustomizeSheet@@IAEXIII@Z 004cccd0 f   ToolkitPro1501vc60S:XTPCustomizeSheet.obj
 0001:000cbce0       ?OnGrabFocus@CXTPCustomizeSheet@@IAEXXZ 004ccce0 f   ToolkitPro1501vc60S:XTPCustomizeSheet.obj
 0001:000cbcf0       ?PreTranslateMessage@CXTPCustomizeSheet@@MAEHPAUtagMSG@@@Z 004cccf0 f   ToolkitPro1501vc60S:XTPCustomizeSheet.obj
 0001:000cbd00       ?MessageBoxA@CXTPCustomizeSheet@@QAEHPBDI@Z 004ccd00 f   ToolkitPro1501vc60S:XTPCustomizeSheet.obj
 0001:000cbdf0       ??1COleDataObject@@QAE@XZ  004ccdf0 f i ToolkitPro1501vc60S:XTPCustomizeSheet.obj
 0001:000cbe00       ??_ECCustomizeEdit@CXTPCustomizeSheet@@WBM@AEPAXI@Z 004cce00 f i ToolkitPro1501vc60S:XTPCustomizeSheet.obj
 0001:000cbe10       ??0CXTPGroupLine@@QAE@XZ   004cce10 f   ToolkitPro1501vc60S:XTPCustomizeOptionsPage.obj
 0001:000cbe80       ??_GCXTPGroupLine@@UAEPAXI@Z 004cce80 f i ToolkitPro1501vc60S:XTPCustomizeOptionsPage.obj
 0001:000cbe80       ??_ECXTPGroupLine@@UAEPAXI@Z 004cce80 f i ToolkitPro1501vc60S:XTPCustomizeOptionsPage.obj
 0001:000cbea0       ??1CXTPGroupLine@@UAE@XZ   004ccea0 f i ToolkitPro1501vc60S:XTPCustomizeOptionsPage.obj
 0001:000cbef0       ?GetMessageMap@CXTPGroupLine@@MBEPBUAFX_MSGMAP@@XZ 004ccef0 f   ToolkitPro1501vc60S:XTPCustomizeOptionsPage.obj
 0001:000cbf00       ?OnPaint@CXTPGroupLine@@IAEXXZ 004ccf00 f   ToolkitPro1501vc60S:XTPCustomizeOptionsPage.obj
 0001:000cc1c0       ??0CXTPCustomizeOptionsPage@@QAE@PAVCXTPCustomizeSheet@@@Z 004cd1c0 f   ToolkitPro1501vc60S:XTPCustomizeOptionsPage.obj
 0001:000cc2a0       ??_GCXTPCustomizeOptionsPage@@UAEPAXI@Z 004cd2a0 f i ToolkitPro1501vc60S:XTPCustomizeOptionsPage.obj
 0001:000cc2a0       ??_ECXTPCustomizeOptionsPage@@UAEPAXI@Z 004cd2a0 f i ToolkitPro1501vc60S:XTPCustomizeOptionsPage.obj
 0001:000cc2c0       ??1CXTPCustomizeOptionsPage@@UAE@XZ 004cd2c0 f   ToolkitPro1501vc60S:XTPCustomizeOptionsPage.obj
 0001:000cc370       ?GetCommandBars@CXTPCustomizeOptionsPage@@QBEPAVCXTPCommandBars@@XZ 004cd370 f   ToolkitPro1501vc60S:XTPCustomizeOptionsPage.obj
 0001:000cc390       ?DoDataExchange@CXTPCustomizeOptionsPage@@MAEXPAVCDataExchange@@@Z 004cd390 f   ToolkitPro1501vc60S:XTPCustomizeOptionsPage.obj
 0001:000cc410       ?GetMessageMap@CXTPCustomizeOptionsPage@@MBEPBUAFX_MSGMAP@@XZ 004cd410 f   ToolkitPro1501vc60S:XTPCustomizeOptionsPage.obj
 0001:000cc420       ?AddComboString@CXTPCustomizeOptionsPage@@IAEXI@Z 004cd420 f   ToolkitPro1501vc60S:XTPCustomizeOptionsPage.obj
 0001:000cc4a0       ?OnInitDialog@CXTPCustomizeOptionsPage@@MAEHXZ 004cd4a0 f   ToolkitPro1501vc60S:XTPCustomizeOptionsPage.obj
 0001:000cc620       ?OnCheckFullMenus@CXTPCustomizeOptionsPage@@IAEXXZ 004cd620 f   ToolkitPro1501vc60S:XTPCustomizeOptionsPage.obj
 0001:000cc660       ?OnAnimationChanged@CXTPCustomizeOptionsPage@@IAEXXZ 004cd660 f   ToolkitPro1501vc60S:XTPCustomizeOptionsPage.obj
 0001:000cc690       ?OnCheckAfterdelay@CXTPCustomizeOptionsPage@@IAEXXZ 004cd690 f   ToolkitPro1501vc60S:XTPCustomizeOptionsPage.obj
 0001:000cc6b0       ?OnCheckLargeicons@CXTPCustomizeOptionsPage@@IAEXXZ 004cd6b0 f   ToolkitPro1501vc60S:XTPCustomizeOptionsPage.obj
 0001:000cc6e0       ?OnCheckScreenttips@CXTPCustomizeOptionsPage@@IAEXXZ 004cd6e0 f   ToolkitPro1501vc60S:XTPCustomizeOptionsPage.obj
 0001:000cc720       ?OnCheckShortcuts@CXTPCustomizeOptionsPage@@IAEXXZ 004cd720 f   ToolkitPro1501vc60S:XTPCustomizeOptionsPage.obj
 0001:000cc740       ?OnResetData@CXTPCustomizeOptionsPage@@IAEXXZ 004cd740 f   ToolkitPro1501vc60S:XTPCustomizeOptionsPage.obj
 0001:000cc7e0       ??_ECXTPCustomizeOptionsPage@@WIM@AEPAXI@Z 004cd7e0 f i ToolkitPro1501vc60S:XTPCustomizeOptionsPage.obj
 0001:000cc7f0       ??0XTP_COMMANDBARS_CATEGORYINFO@@QAE@PBDPAVCXTPCommandBars@@@Z 004cd7f0 f   ToolkitPro1501vc60S:XTPCustomizeCommandsPage.obj
 0001:000cc880       ??1XTP_COMMANDBARS_CATEGORYINFO@@QAE@XZ 004cd880 f   ToolkitPro1501vc60S:XTPCustomizeCommandsPage.obj
 0001:000cc8d0       ?DrawItem@CXTPCustomizeCommandsListBox@@MAEXPAUtagDRAWITEMSTRUCT@@@Z 004cd8d0 f   ToolkitPro1501vc60S:XTPCustomizeCommandsPage.obj
 0001:000cc950       ?GetMessageMap@CXTPCustomizeCommandsListBox@@MBEPBUAFX_MSGMAP@@XZ 004cd950 f   ToolkitPro1501vc60S:XTPCustomizeCommandsPage.obj
 0001:000cc960       ?WindowProc@CXTPCustomizeCommandsListBox@@MAEJIIJ@Z 004cd960 f   ToolkitPro1501vc60S:XTPCustomizeCommandsPage.obj
 0001:000ccb20       ?OnSetFocus@CXTPCustomizeCommandsListBox@@IAEXPAVCWnd@@@Z 004cdb20 f   ToolkitPro1501vc60S:XTPCustomizeCommandsPage.obj
 0001:000ccb70       ?OnLButtonDown@CXTPCustomizeCommandsListBox@@IAEXIVCPoint@@@Z 004cdb70 f   ToolkitPro1501vc60S:XTPCustomizeCommandsPage.obj
 0001:000cccc0       ?CreateObject@CXTPCustomizeCommandsPage@@SGPAVCObject@@XZ 004cdcc0 f   ToolkitPro1501vc60S:XTPCustomizeCommandsPage.obj
 0001:000ccd20       ?GetRuntimeClass@CXTPCustomizeCommandsPage@@UBEPAUCRuntimeClass@@XZ 004cdd20 f   ToolkitPro1501vc60S:XTPCustomizeCommandsPage.obj
 0001:000ccd30       ??0CXTPCustomizeCommandsPage@@QAE@PAVCXTPCustomizeSheet@@@Z 004cdd30 f   ToolkitPro1501vc60S:XTPCustomizeCommandsPage.obj
 0001:000ccdf0       ??1CXTPCustomizeCommandsListBox@@UAE@XZ 004cddf0 f i ToolkitPro1501vc60S:XTPCustomizeCommandsPage.obj
 0001:000ccdf0       ??1CCheckListBox@@UAE@XZ   004cddf0 f i ToolkitPro1501vc60S:XTPCustomizeCommandsPage.obj
 0001:000cce00       ??_ECXTPCustomizeCommandsPage@@UAEPAXI@Z 004cde00 f i ToolkitPro1501vc60S:XTPCustomizeCommandsPage.obj
 0001:000cce00       ??_GCXTPCustomizeCommandsPage@@UAEPAXI@Z 004cde00 f i ToolkitPro1501vc60S:XTPCustomizeCommandsPage.obj
 0001:000cce20       ??1CXTPCustomizeCommandsPage@@UAE@XZ 004cde20 f   ToolkitPro1501vc60S:XTPCustomizeCommandsPage.obj
 0001:000ccf00       ?DoDataExchange@CXTPCustomizeCommandsPage@@MAEXPAVCDataExchange@@@Z 004cdf00 f   ToolkitPro1501vc60S:XTPCustomizeCommandsPage.obj
 0001:000ccf40       ?FindCategory@CXTPCustomizeCommandsPage@@QBEPAUXTP_COMMANDBARS_CATEGORYINFO@@PBD@Z 004cdf40 f   ToolkitPro1501vc60S:XTPCustomizeCommandsPage.obj
 0001:000ccf90       ?GetCategoryInfo@CXTPCustomizeCommandsPage@@QBEPAUXTP_COMMANDBARS_CATEGORYINFO@@H@Z 004cdf90 f   ToolkitPro1501vc60S:XTPCustomizeCommandsPage.obj
 0001:000ccfc0       ?AddCategory@CXTPCustomizeCommandsPage@@QAEHPBDPAVCMenu@@H@Z 004cdfc0 f   ToolkitPro1501vc60S:XTPCustomizeCommandsPage.obj
 0001:000cd080       ?AddCategories@CXTPCustomizeCommandsPage@@QAEHIH@Z 004ce080 f   ToolkitPro1501vc60S:XTPCustomizeCommandsPage.obj
 0001:000cd200       ?InsertBuiltInMenus@CXTPCustomizeCommandsPage@@QAEHIIH@Z 004ce200 f   ToolkitPro1501vc60S:XTPCustomizeCommandsPage.obj
 0001:000cd3d0       ?InsertNewMenuCategory@CXTPCustomizeCommandsPage@@QAEXIH@Z 004ce3d0 f   ToolkitPro1501vc60S:XTPCustomizeCommandsPage.obj
 0001:000cd520       ?InsertCategory@CXTPCustomizeCommandsPage@@QAEPAVCXTPControls@@PBDH@Z 004ce520 f   ToolkitPro1501vc60S:XTPCustomizeCommandsPage.obj
 0001:000cd770       ?InsertAllCommandsCategory@CXTPCustomizeCommandsPage@@QAEXIHH@Z 004ce770 f   ToolkitPro1501vc60S:XTPCustomizeCommandsPage.obj
 0001:000cda30       ?GetMessageMap@CXTPCustomizeCommandsPage@@MBEPBUAFX_MSGMAP@@XZ 004cea30 f   ToolkitPro1501vc60S:XTPCustomizeCommandsPage.obj
 0001:000cda40       ?OnInitDialog@CXTPCustomizeCommandsPage@@MAEHXZ 004cea40 f   ToolkitPro1501vc60S:XTPCustomizeCommandsPage.obj
 0001:000cdc10       ?OnDestroy@CXTPCustomizeCommandsPage@@IAEXXZ 004cec10 f   ToolkitPro1501vc60S:XTPCustomizeCommandsPage.obj
 0001:000cdc40       ?OnCategoriesSelectionChanged@CXTPCustomizeCommandsPage@@IAEXXZ 004cec40 f   ToolkitPro1501vc60S:XTPCustomizeCommandsPage.obj
 0001:000cdd00       ??1?$CArray@PAUXTP_COMMANDBARS_CATEGORYINFO@@PAU1@@@UAE@XZ 004ced00 f i ToolkitPro1501vc60S:XTPCustomizeCommandsPage.obj
 0001:000cdd50       ??_G?$CArray@PAUXTP_COMMANDBARS_CATEGORYINFO@@PAU1@@@UAEPAXI@Z 004ced50 f i ToolkitPro1501vc60S:XTPCustomizeCommandsPage.obj
 0001:000cdd50       ??_E?$CArray@PAUXTP_COMMANDBARS_CATEGORYINFO@@PAU1@@@UAEPAXI@Z 004ced50 f i ToolkitPro1501vc60S:XTPCustomizeCommandsPage.obj
 0001:000cdd70       ??_ECXTPCustomizeCommandsPage@@WIM@AEPAXI@Z 004ced70 f i ToolkitPro1501vc60S:XTPCustomizeCommandsPage.obj
 0001:000cdd80       ??0CXTPShortcutManagerAccel@@QAE@XZ 004ced80 f   ToolkitPro1501vc60S:XTPShortcutManager.obj
 0001:000cddb0       ??1CXTPColorManager@@UAE@XZ 004cedb0 f i ToolkitPro1501vc60S:XTPShortcutManager.obj
 0001:000cddb0       ??1CXTPShortcutManagerAccel@@UAE@XZ 004cedb0 f i ToolkitPro1501vc60S:XTPShortcutManager.obj
 0001:000cddb0       ??1CXTPControlTheme@@UAE@XZ 004cedb0 f i ToolkitPro1501vc60S:XTPShortcutManager.obj
 0001:000cddc0       ??0CXTPShortcutManagerAccel@@QAE@PAUtagACCEL@@@Z 004cedc0 f   ToolkitPro1501vc60S:XTPShortcutManager.obj
 0001:000cde00       ??0CXTPShortcutManagerAccel@@QAE@ABUXTP_SHORTCUTMANAGER_ACCEL@@@Z 004cee00 f   ToolkitPro1501vc60S:XTPShortcutManager.obj
 0001:000cde30       ??0CXTPShortcutManagerAccelTable@@QAE@PAVCXTPShortcutManager@@@Z 004cee30 f   ToolkitPro1501vc60S:XTPShortcutManager.obj
 0001:000cde50       ??1CXTPShortcutManagerAccelTable@@QAE@XZ 004cee50 f   ToolkitPro1501vc60S:XTPShortcutManager.obj
 0001:000cdeb0       ?RemoveAll@CXTPShortcutManagerAccelTable@@QAEXXZ 004ceeb0 f   ToolkitPro1501vc60S:XTPShortcutManager.obj
 0001:000cdf00       ?Add@CXTPShortcutManagerAccelTable@@QAEXABUXTP_SHORTCUTMANAGER_ACCEL@@@Z 004cef00 f   ToolkitPro1501vc60S:XTPShortcutManager.obj
 0001:000ce0c0       ?CopyAccelTable@CXTPShortcutManagerAccelTable@@QAEXPAUtagACCEL@@H@Z 004cf0c0 f   ToolkitPro1501vc60S:XTPShortcutManager.obj
 0001:000ce140       ?CopyAccels@CXTPShortcutManagerAccelTable@@QBEPAUXTP_SHORTCUTMANAGER_ACCEL@@XZ 004cf140 f   ToolkitPro1501vc60S:XTPShortcutManager.obj
 0001:000ce1b0       ?GetAt@CXTPShortcutManagerAccelTable@@QBEPAVCXTPShortcutManagerAccel@@H@Z 004cf1b0 f   ToolkitPro1501vc60S:XTPShortcutManager.obj
 0001:000ce1d0       ?CopyAccelTable@CXTPShortcutManagerAccelTable@@QAEXPAV1@@Z 004cf1d0 f   ToolkitPro1501vc60S:XTPShortcutManager.obj
 0001:000ce220       ??0CKeyNameText@CXTPShortcutManager@@QAE@XZ 004cf220 f   ToolkitPro1501vc60S:XTPShortcutManager.obj
 0001:000ce2a0       ?Parse@CKeyNameText@CXTPShortcutManager@@QAEGPBD@Z 004cf2a0 f   ToolkitPro1501vc60S:XTPShortcutManager.obj
 0001:000ce3a0       ?Translate@CKeyNameText@CXTPShortcutManager@@QAE?AVCString@@I@Z 004cf3a0 f   ToolkitPro1501vc60S:XTPShortcutManager.obj
 0001:000ce470       ?SetAt@CKeyNameText@CXTPShortcutManager@@QAEXIPBD@Z 004cf470 f   ToolkitPro1501vc60S:XTPShortcutManager.obj
 0001:000ce4a0       ??0CXTPShortcutManager@@QAE@PAVCXTPCommandBars@@@Z 004cf4a0 f   ToolkitPro1501vc60S:XTPShortcutManager.obj
 0001:000ce550       ?GetDefaultAccelerator@CXTPShortcutManager@@UBEPAVCXTPShortcutManagerAccelTable@@XZ 004cf550 f i ToolkitPro1501vc60S:XTPShortcutManager.obj
 0001:000ce560       ??_GCXTPShortcutManager@@UAEPAXI@Z 004cf560 f i ToolkitPro1501vc60S:XTPShortcutManager.obj
 0001:000ce560       ??_ECXTPShortcutManager@@UAEPAXI@Z 004cf560 f i ToolkitPro1501vc60S:XTPShortcutManager.obj
 0001:000ce580       ??1CXTPShortcutManager@@UAE@XZ 004cf580 f   ToolkitPro1501vc60S:XTPShortcutManager.obj
 0001:000ce690       ?Reset@CXTPShortcutManager@@UAEXXZ 004cf690 f   ToolkitPro1501vc60S:XTPShortcutManager.obj
 0001:000ce6b0       ?Format@CXTPShortcutManager@@UAE?AVCString@@PAVCXTPShortcutManagerAccel@@PAH@Z 004cf6b0 f   ToolkitPro1501vc60S:XTPShortcutManager.obj
 0001:000ce760       ?OnPreviewEditKey@CXTPShortcutManager@@UAEHPAVCXTPShortcutManagerAccel@@@Z 004cf760 f   ToolkitPro1501vc60S:XTPShortcutManager.obj
 0001:000ce790       ?DisableShortcuts@CXTPShortcutManager@@QAEXH@Z 004cf790 f   ToolkitPro1501vc60S:XTPShortcutManager.obj
 0001:000ce7b0       ?IsAccelMessage@CXTPShortcutManager@@ABEHAAUSHORTCUTACCEL@XTP_SHORTCUTMANAGER_ACCEL@@HPAUtagMSG@@@Z 004cf7b0 f   ToolkitPro1501vc60S:XTPShortcutManager.obj
 0001:000ce830       ?GetAccelKeyState@CXTPShortcutManager@@ABEHXZ 004cf830 f   ToolkitPro1501vc60S:XTPShortcutManager.obj
 0001:000ce8a0       ?TranslateAcceleratorA@CXTPShortcutManager@@QAEHPAUtagMSG@@@Z 004cf8a0 f   ToolkitPro1501vc60S:XTPShortcutManager.obj
 0001:000cec60       ?FindDefaultFrameAccelerator@CXTPShortcutManager@@QAEHHAAVCString@@@Z 004cfc60 f   ToolkitPro1501vc60S:XTPShortcutManager.obj
 0001:000cee20       ?FindDefaultAccelerator@CXTPShortcutManager@@UAEHHAAVCString@@@Z 004cfe20 f   ToolkitPro1501vc60S:XTPShortcutManager.obj
 0001:000cefc0       ??0CKeyHelper@CXTPShortcutManager@@QAE@PBVCXTPShortcutManagerAccel@@PAV1@@Z 004cffc0 f   ToolkitPro1501vc60S:XTPShortcutManager.obj
 0001:000cefe0       ??_GCKeyHelper@CXTPShortcutManager@@UAEPAXI@Z 004cffe0 f i ToolkitPro1501vc60S:XTPShortcutManager.obj
 0001:000cefe0       ??_ECKeyHelper@CXTPShortcutManager@@UAEPAXI@Z 004cffe0 f i ToolkitPro1501vc60S:XTPShortcutManager.obj
 0001:000cf000       ??1CKeyHelper@CXTPShortcutManager@@UAE@XZ 004d0000 f   ToolkitPro1501vc60S:XTPShortcutManager.obj
 0001:000cf010       ?Priority@CKeyHelper@CXTPShortcutManager@@QAEHXZ 004d0010 f   ToolkitPro1501vc60S:XTPShortcutManager.obj
 0001:000cf040       ?Format@CKeyHelper@CXTPShortcutManager@@QBEXAAVCString@@@Z 004d0040 f   ToolkitPro1501vc60S:XTPShortcutManager.obj
 0001:000cf130       ?Format@CKeyHelper@CXTPShortcutManager@@QBE?AVCString@@PBUSHORTCUTACCEL@XTP_SHORTCUTMANAGER_ACCEL@@@Z 004d0130 f   ToolkitPro1501vc60S:XTPShortcutManager.obj
 0001:000cf2b0       ?AddVirtKeyStr@CKeyHelper@CXTPShortcutManager@@IBEXAAVCString@@IH@Z 004d02b0 f   ToolkitPro1501vc60S:XTPShortcutManager.obj
 0001:000cf3c0       ?GetLocalKeyNameText@CKeyHelper@CXTPShortcutManager@@SA?AVCString@@I@Z 004d03c0 f   ToolkitPro1501vc60S:XTPShortcutManager.obj
 0001:000cf500       ?FindAccelPos@CXTPShortcutManager@@SAHPBD@Z 004d0500 f   ToolkitPro1501vc60S:XTPShortcutManager.obj
 0001:000cf540       ?CompareAccelKey@CXTPShortcutManager@@SAHDI@Z 004d0540 f   ToolkitPro1501vc60S:XTPShortcutManager.obj
 0001:000cf7b0       ?GetKeyNameTextA@CXTPShortcutManager@@UAE?AVCString@@I@Z 004d07b0 f   ToolkitPro1501vc60S:XTPShortcutManager.obj
 0001:000cf8d0       ?ToUpper@CXTPShortcutManager@@SADD@Z 004d08d0 f   ToolkitPro1501vc60S:XTPShortcutManager.obj
 0001:000cf8f0       ?UpdateAcellTable@CXTPShortcutManager@@QAEXPAUtagACCEL@@H@Z 004d08f0 f   ToolkitPro1501vc60S:XTPShortcutManager.obj
 0001:000cf910       ?UpdateAcellTable@CXTPShortcutManager@@QAEXPAUXTP_SHORTCUTMANAGER_ACCEL@@H@Z 004d0910 f   ToolkitPro1501vc60S:XTPShortcutManager.obj
 0001:000cf940       ?SaveShortcuts@CXTPShortcutManager@@QAEXPBD@Z 004d0940 f   ToolkitPro1501vc60S:XTPShortcutManager.obj
 0001:000cf9b0       ?LoadShortcuts@CXTPShortcutManager@@QAEXPBD@Z 004d09b0 f   ToolkitPro1501vc60S:XTPShortcutManager.obj
 0001:000cfaa0       ?ParseShortcutVirtKey@CXTPShortcutManager@@ABEHAAVCString@@H@Z 004d0aa0 f   ToolkitPro1501vc60S:XTPShortcutManager.obj
 0001:000cfbd0       ?ParseShortcut@CXTPShortcutManager@@ABEHVCString@@AAEAAG@Z 004d0bd0 f   ToolkitPro1501vc60S:XTPShortcutManager.obj
 0001:000cfce0       ?ParseShortcut@CXTPShortcutManager@@QAEHVCString@@PAVCXTPShortcutManagerAccel@@@Z 004d0ce0 f   ToolkitPro1501vc60S:XTPShortcutManager.obj
 0001:000cfe30       ?DoPropExchange@CXTPShortcutManager@@UAEXPAVCXTPPropExchange@@@Z 004d0e30 f   ToolkitPro1501vc60S:XTPShortcutManager.obj
 0001:000d02e0       ??1?$CArray@PAVCXTPShortcutManagerAccel@@PAV1@@@UAE@XZ 004d12e0 f i ToolkitPro1501vc60S:XTPShortcutManager.obj
 0001:000d0330       ?SetAt@?$CMap@GGVCString@@V1@@@QAEXGVCString@@@Z 004d1330 f i ToolkitPro1501vc60S:XTPShortcutManager.obj
 0001:000d0470       ??1?$CMap@GGVCString@@V1@@@UAE@XZ 004d1470 f i ToolkitPro1501vc60S:XTPShortcutManager.obj
 0001:000d0510       ?Serialize@?$CMap@GGVCString@@V1@@@UAEXAAVCArchive@@@Z 004d1510 f i ToolkitPro1501vc60S:XTPShortcutManager.obj
 0001:000d0640       ??1?$CArray@PAUHKL__@@AAPAU1@@@UAE@XZ 004d1640 f i ToolkitPro1501vc60S:XTPShortcutManager.obj
 0001:000d0690       ??1?$CArray@UtagACCEL@@AAU1@@@UAE@XZ 004d1690 f i ToolkitPro1501vc60S:XTPShortcutManager.obj
 0001:000d06e0       ?Serialize@?$CArray@UtagACCEL@@AAU1@@@UAEXAAVCArchive@@@Z 004d16e0 f i ToolkitPro1501vc60S:XTPShortcutManager.obj
 0001:000d0890       ??_G?$CArray@PAVCXTPShortcutManagerAccel@@PAV1@@@UAEPAXI@Z 004d1890 f i ToolkitPro1501vc60S:XTPShortcutManager.obj
 0001:000d0890       ??_E?$CArray@PAVCXTPShortcutManagerAccel@@PAV1@@@UAEPAXI@Z 004d1890 f i ToolkitPro1501vc60S:XTPShortcutManager.obj
 0001:000d08b0       ??_E?$CMap@GGVCString@@V1@@@UAEPAXI@Z 004d18b0 f i ToolkitPro1501vc60S:XTPShortcutManager.obj
 0001:000d08b0       ??_G?$CMap@GGVCString@@V1@@@UAEPAXI@Z 004d18b0 f i ToolkitPro1501vc60S:XTPShortcutManager.obj
 0001:000d08d0       ??_G?$CArray@PAUHKL__@@AAPAU1@@@UAEPAXI@Z 004d18d0 f i ToolkitPro1501vc60S:XTPShortcutManager.obj
 0001:000d08d0       ??_E?$CArray@PAUHKL__@@AAPAU1@@@UAEPAXI@Z 004d18d0 f i ToolkitPro1501vc60S:XTPShortcutManager.obj
 0001:000d08f0       ??_G?$CArray@UtagACCEL@@AAU1@@@UAEPAXI@Z 004d18f0 f i ToolkitPro1501vc60S:XTPShortcutManager.obj
 0001:000d08f0       ??_E?$CArray@UtagACCEL@@AAU1@@@UAEPAXI@Z 004d18f0 f i ToolkitPro1501vc60S:XTPShortcutManager.obj
 0001:000d0910       ?SetSize@?$CArray@UtagACCEL@@AAU1@@@QAEXHH@Z 004d1910 f i ToolkitPro1501vc60S:XTPShortcutManager.obj
 0001:000d0a70       ??0CToolBarInfo@CXTPToolBar@@QAE@XZ 004d1a70 f   ToolkitPro1501vc60S:XTPDockState.obj
 0001:000d0ad0       ?SaveState@CToolBarInfo@CXTPToolBar@@QAEHPBDH@Z 004d1ad0 f   ToolkitPro1501vc60S:XTPDockState.obj
 0001:000d0cc0       ?LoadState@CToolBarInfo@CXTPToolBar@@QAEHPBDHPAVCXTPDockState@@@Z 004d1cc0 f   ToolkitPro1501vc60S:XTPDockState.obj
 0001:000d0f00       ?ScalePoint@CXTPDockState@@QAEXAAVCPoint@@@Z 004d1f00 f   ToolkitPro1501vc60S:XTPDockState.obj
 0001:000d0f90       ?ScaleRectPos@CXTPDockState@@QAEXAAVCRect@@@Z 004d1f90 f   ToolkitPro1501vc60S:XTPDockState.obj
 0001:000d1040       ??0CXTPDockState@@QAE@XZ   004d2040 f   ToolkitPro1501vc60S:XTPDockState.obj
 0001:000d1080       ??1CXTPDockState@@QAE@XZ   004d2080 f   ToolkitPro1501vc60S:XTPDockState.obj
 0001:000d10e0       ?Clear@CXTPDockState@@AAEXXZ 004d20e0 f   ToolkitPro1501vc60S:XTPDockState.obj
 0001:000d1130       ?SaveState@CXTPDockState@@QAEXPBD@Z 004d2130 f   ToolkitPro1501vc60S:XTPDockState.obj
 0001:000d11e0       ?LoadState@CXTPDockState@@QAEXPBD@Z 004d21e0 f   ToolkitPro1501vc60S:XTPDockState.obj
 0001:000d1400       ?GetScreenSize@CXTPDockState@@AAE?AVCSize@@XZ 004d2400 f   ToolkitPro1501vc60S:XTPDockState.obj
 0001:000d1420       ?SetScreenSize@CXTPDockState@@AAEXAAVCSize@@@Z 004d2420 f   ToolkitPro1501vc60S:XTPDockState.obj
 0001:000d1470       ?GetBarInfo@CXTPToolBar@@QAEXPAVCToolBarInfo@1@@Z 004d2470 f   ToolkitPro1501vc60S:XTPDockState.obj
 0001:000d1580       ?SetBarInfo@CXTPToolBar@@QAEXPAVCToolBarInfo@1@@Z 004d2580 f   ToolkitPro1501vc60S:XTPDockState.obj
 0001:000d1670       ?GetIsolatedFileName@CXTPCommandBars@@IAE?AVCString@@ABV2@@Z 004d2670 f   ToolkitPro1501vc60S:XTPDockState.obj
 0001:000d1880       ?GetControlsFileName@CXTPCommandBars@@IAEHAAVCString@@PBD@Z 004d2880 f   ToolkitPro1501vc60S:XTPDockState.obj
 0001:000d19a0       ?SaveBarState@CXTPCommandBars@@QAEXPBDH@Z 004d29a0 f   ToolkitPro1501vc60S:XTPDockState.obj
 0001:000d1d30       ?_LoadControlsPart@CXTPCommandBars@@IAEXAAVCFile@@PAUXTP_COMMANDBARS_PROPEXCHANGE_PARAM@@@Z 004d2d30 f   ToolkitPro1501vc60S:XTPDockState.obj
 0001:000d1e60       ?LoadBarState@CXTPCommandBars@@QAEXPBDH@Z 004d2e60 f   ToolkitPro1501vc60S:XTPDockState.obj
 0001:000d2150       ?GetStatusBar@CXTPCommandBars@@QBEPAVCXTPStatusBar@@XZ 004d3150 f   ToolkitPro1501vc60S:XTPDockState.obj
 0001:000d2170       ?SaveDockBarsState@CXTPCommandBars@@IAEXPBD@Z 004d3170 f   ToolkitPro1501vc60S:XTPDockState.obj
 0001:000d22d0       ?LoadDockBarsState@CXTPCommandBars@@IAEXPBD@Z 004d32d0 f   ToolkitPro1501vc60S:XTPDockState.obj
 0001:000d2620       ?GetDockState@CXTPCommandBars@@IAEXAAVCXTPDockState@@@Z 004d3620 f   ToolkitPro1501vc60S:XTPDockState.obj
 0001:000d27f0       ?SetDockState@CXTPCommandBars@@IAEXAAVCXTPDockState@@@Z 004d37f0 f   ToolkitPro1501vc60S:XTPDockState.obj
 0001:000d2860       ?GenerateCommandBarList@CXTPCommandBars@@MAEXPAVCXTPCommandBarList@@PAUXTP_COMMANDBARS_PROPEXCHANGE_PARAM@@@Z 004d3860 f   ToolkitPro1501vc60S:XTPDockState.obj
 0001:000d2930       ?GenerateCommandBarList@CXTPCommandBar@@MAEXAAKPAVCXTPCommandBarList@@PAUXTP_COMMANDBARS_PROPEXCHANGE_PARAM@@@Z 004d3930 f   ToolkitPro1501vc60S:XTPDockState.obj
 0001:000d29a0       ?GenerateCommandBarList@CXTPMenuBar@@MAEXAAKPAVCXTPCommandBarList@@PAUXTP_COMMANDBARS_PROPEXCHANGE_PARAM@@@Z 004d39a0 f   ToolkitPro1501vc60S:XTPDockState.obj
 0001:000d2a10       ?GenerateCommandBarList@CXTPControl@@MAEXAAKPAVCXTPCommandBarList@@PAUXTP_COMMANDBARS_PROPEXCHANGE_PARAM@@@Z 004d3a10 f   ToolkitPro1501vc60S:XTPDockState.obj
 0001:000d2a40       ?GenerateCommandBarList@CXTPControls@@IAEXAAKPAVCXTPCommandBarList@@PAUXTP_COMMANDBARS_PROPEXCHANGE_PARAM@@@Z 004d3a40 f   ToolkitPro1501vc60S:XTPDockState.obj
 0001:000d2ab0       ?SaveCommandBarList@CXTPCommandBars@@MAEHPAVCXTPPropExchange@@PAVCXTPCommandBarList@@@Z 004d3ab0 f   ToolkitPro1501vc60S:XTPDockState.obj
 0001:000d2be0       ?LoadCommandBarList@CXTPCommandBars@@MAEHPAVCXTPPropExchange@@PAVCXTPCommandBarList@@@Z 004d3be0 f   ToolkitPro1501vc60S:XTPDockState.obj
 0001:000d2d50       ?MergeToolBar@CXTPToolBar@@MAEXPAVCXTPCommandBar@@H@Z 004d3d50 f   ToolkitPro1501vc60S:XTPDockState.obj
 0001:000d2ef0       ?RestoreCommandBarList@CXTPCommandBars@@MAEXPAVCXTPCommandBarList@@H@Z 004d3ef0 f   ToolkitPro1501vc60S:XTPDockState.obj
 0001:000d30b0       ?RestoreCommandBarList@CXTPCommandBar@@MAEXPAVCXTPCommandBarList@@@Z 004d40b0 f   ToolkitPro1501vc60S:XTPDockState.obj
 0001:000d30d0       ?RestoreCommandBarList@CXTPMenuBar@@MAEXPAVCXTPCommandBarList@@@Z 004d40d0 f   ToolkitPro1501vc60S:XTPDockState.obj
 0001:000d3130       ?RestoreCommandBarList@CXTPControlPopup@@MAEXPAVCXTPCommandBarList@@@Z 004d4130 f   ToolkitPro1501vc60S:XTPDockState.obj
 0001:000d3180       ?RestoreCommandBarList@CXTPControls@@IAEXPAVCXTPCommandBarList@@@Z 004d4180 f   ToolkitPro1501vc60S:XTPDockState.obj
 0001:000d31d0       ?DoPropExchange@CXTPCommandBar@@UAEXPAVCXTPPropExchange@@@Z 004d41d0 f   ToolkitPro1501vc60S:XTPDockState.obj
 0001:000d33a0       ?DoPropExchange@CXTPToolBar@@MAEXPAVCXTPPropExchange@@@Z 004d43a0 f   ToolkitPro1501vc60S:XTPDockState.obj
 0001:000d3460       ?DoPropExchange@CXTPMenuBar@@MAEXPAVCXTPPropExchange@@@Z 004d4460 f   ToolkitPro1501vc60S:XTPDockState.obj
 0001:000d3740       ?DoPropExchange@CXTPPopupBar@@MAEXPAVCXTPPropExchange@@@Z 004d4740 f   ToolkitPro1501vc60S:XTPDockState.obj
 0001:000d3850       ?ShouldSerializeControl@CXTPControls@@UAEHPAVCXTPControl@@@Z 004d4850 f   ToolkitPro1501vc60S:XTPDockState.obj
 0001:000d3870       ?DoPropExchange@CXTPControls@@UAEXPAVCXTPPropExchange@@@Z 004d4870 f   ToolkitPro1501vc60S:XTPDockState.obj
 0001:000d3c70       ?DoPropExchange@CXTPControl@@UAEXPAVCXTPPropExchange@@@Z 004d4c70 f   ToolkitPro1501vc60S:XTPDockState.obj
 0001:000d4030       ?DoPropExchange@CXTPControlButton@@UAEXPAVCXTPPropExchange@@@Z 004d5030 f   ToolkitPro1501vc60S:XTPDockState.obj
 0001:000d4060       ?DoPropExchange@CXTPControlPopup@@UAEXPAVCXTPPropExchange@@@Z 004d5060 f   ToolkitPro1501vc60S:XTPDockState.obj
 0001:000d40f0       ?DoPropExchange@CXTPControlComboBox@@UAEXPAVCXTPPropExchange@@@Z 004d50f0 f   ToolkitPro1501vc60S:XTPDockState.obj
 0001:000d4220       ?DoPropExchange@CXTPControlEdit@@UAEXPAVCXTPPropExchange@@@Z 004d5220 f   ToolkitPro1501vc60S:XTPDockState.obj
 0001:000d4360       ??1?$CArray@PAVCToolBarInfo@CXTPToolBar@@PAV12@@@UAE@XZ 004d5360 f i ToolkitPro1501vc60S:XTPDockState.obj
 0001:000d43b0       ??_G?$CArray@PAVCToolBarInfo@CXTPToolBar@@PAV12@@@UAEPAXI@Z 004d53b0 f i ToolkitPro1501vc60S:XTPDockState.obj
 0001:000d43b0       ??_E?$CArray@PAVCToolBarInfo@CXTPToolBar@@PAV12@@@UAEPAXI@Z 004d53b0 f i ToolkitPro1501vc60S:XTPDockState.obj
 0001:000d43d0       ??0CRichEditContext@CXTPCommandBarEditCtrl@@QAE@XZ 004d53d0 f   ToolkitPro1501vc60S:XTPControlComboBox.obj
 0001:000d4470       ??1CRichEditContext@CXTPCommandBarEditCtrl@@QAE@XZ 004d5470 f   ToolkitPro1501vc60S:XTPControlComboBox.obj
 0001:000d4480       ?GetRichEditContext@CXTPCommandBarEditCtrl@@IAEAAVCRichEditContext@1@XZ 004d5480 f   ToolkitPro1501vc60S:XTPControlComboBox.obj
 0001:000d44d0       ?CreateObject@CXTPCommandBarEditCtrl@@SGPAVCObject@@XZ 004d54d0 f   ToolkitPro1501vc60S:XTPControlComboBox.obj
 0001:000d4530       ?GetRuntimeClass@CXTPCommandBarEditCtrl@@UBEPAUCRuntimeClass@@XZ 004d5530 f   ToolkitPro1501vc60S:XTPControlComboBox.obj
 0001:000d4540       ??0CXTPCommandBarEditCtrl@@QAE@XZ 004d5540 f   ToolkitPro1501vc60S:XTPControlComboBox.obj
 0001:000d4560       ??1CXTPControlComboBoxEditCtrl@@UAE@XZ 004d5560 f i ToolkitPro1501vc60S:XTPControlComboBox.obj
 0001:000d4560       ??1CXTPCommandBarEditCtrl@@UAE@XZ 004d5560 f i ToolkitPro1501vc60S:XTPControlComboBox.obj
 0001:000d4560       ??1CXTPComboBoxEditCtrl@@UAE@XZ 004d5560 f i ToolkitPro1501vc60S:XTPControlComboBox.obj
 0001:000d4560       ??1CXTPControlEditCtrl@@UAE@XZ 004d5560 f i ToolkitPro1501vc60S:XTPControlComboBox.obj
 0001:000d4570       ?IsCommandEnabled@CXTPCommandBarEditCtrl@@IAEHI@Z 004d5570 f   ToolkitPro1501vc60S:XTPControlComboBox.obj
 0001:000d4610       ?OnCmdMsg@CXTPCommandBarEditCtrl@@UAEHIHPAXPAUAFX_CMDHANDLERINFO@@@Z 004d5610 f   ToolkitPro1501vc60S:XTPControlComboBox.obj
 0001:000d4660       ?OnCommand@CXTPCommandBarEditCtrl@@UAEHIJ@Z 004d5660 f   ToolkitPro1501vc60S:XTPControlComboBox.obj
 0001:000d46e0       ?ShowContextMenu@CXTPCommandBarEditCtrl@@UAEHPAVCXTPControl@@VCPoint@@@Z 004d56e0 f   ToolkitPro1501vc60S:XTPControlComboBox.obj
 0001:000d4910       ?CreateEdit@CXTPCommandBarEditCtrl@@UAEHKPAVCWnd@@@Z 004d5910 f   ToolkitPro1501vc60S:XTPControlComboBox.obj
 0001:000d49c0       ?IsDialogCode@CXTPCommandBarEditCtrl@@QAEHIJ@Z 004d59c0 f   ToolkitPro1501vc60S:XTPControlComboBox.obj
 0001:000d4a40       ?SetWindowTextEx@CXTPCommandBarEditCtrl@@QAEXPBD@Z 004d5a40 f   ToolkitPro1501vc60S:XTPControlComboBox.obj
 0001:000d4a70       ?GetColor@CXTPImageEditorPicker@@QAEKXZ 004d5a70 f   ToolkitPro1501vc60S:XTPControlComboBox.obj
 0001:000d4a70       ?GetHeadPosition@CXTPDockingPaneBaseContainer@@QBEPAU__POSITION@@XZ 004d5a70 f   ToolkitPro1501vc60S:XTPControlComboBox.obj
 0001:000d4a70       ?IsImeMode@CXTPCommandBarEditCtrl@@QBEHXZ 004d5a70 f   ToolkitPro1501vc60S:XTPControlComboBox.obj
 0001:000d4a80       ?GetWindowTextEx@CXTPCommandBarEditCtrl@@QAEXAAVCString@@@Z 004d5a80 f   ToolkitPro1501vc60S:XTPControlComboBox.obj
 0001:000d4a90       ?GetMessageMap@CXTPCommandBarEditCtrl@@MBEPBUAFX_MSGMAP@@XZ 004d5a90 f   ToolkitPro1501vc60S:XTPControlComboBox.obj
 0001:000d4aa0       ?OnImeStartComposition@CXTPCommandBarEditCtrl@@IAEXXZ 004d5aa0 f   ToolkitPro1501vc60S:XTPControlComboBox.obj
 0001:000d4ac0       ?OnImeEndComposition@CXTPCommandBarEditCtrl@@IAEXXZ 004d5ac0 f   ToolkitPro1501vc60S:XTPControlComboBox.obj
 0001:000d4ae0       ?OnKillFocus@CXTPCommandBarEditCtrl@@IAEXPAVCWnd@@@Z 004d5ae0 f   ToolkitPro1501vc60S:XTPControlComboBox.obj
 0001:000d4b00       ?OnPaint@CXTPCommandBarEditCtrl@@IAEXXZ 004d5b00 f   ToolkitPro1501vc60S:XTPControlComboBox.obj
 0001:000d4b90       ??0CXTPControlComboBoxAutoCompleteWnd@@QAE@XZ 004d5b90 f   ToolkitPro1501vc60S:XTPControlComboBox.obj
 0001:000d4bb0       ??_ECXTPControlComboBoxAutoCompleteWnd@@UAEPAXI@Z 004d5bb0 f i ToolkitPro1501vc60S:XTPControlComboBox.obj
 0001:000d4bb0       ??_GCXTPControlComboBoxAutoCompleteWnd@@UAEPAXI@Z 004d5bb0 f i ToolkitPro1501vc60S:XTPControlComboBox.obj
 0001:000d4bd0       ??1CXTPControlComboBoxAutoCompleteWnd@@UAE@XZ 004d5bd0 f   ToolkitPro1501vc60S:XTPControlComboBox.obj
 0001:000d4c30       ?IsDialogCode@CXTPControlComboBoxAutoCompleteWnd@@QAEHIJ@Z 004d5c30 f   ToolkitPro1501vc60S:XTPControlComboBox.obj
 0001:000d4cd0       ?ShellAutoComplete@CXTPControlComboBoxAutoCompleteWnd@@QAEJPAUHWND__@@K@Z 004d5cd0 f   ToolkitPro1501vc60S:XTPControlComboBox.obj
 0001:000d4d20       ?CloseWindow@CXTPControlComboBoxAutoCompleteWnd@@QAEXXZ 004d5d20 f   ToolkitPro1501vc60S:XTPControlComboBox.obj
 0001:000d4d40       ?SetAutoCompeteHandle@CXTPControlComboBoxAutoCompleteWnd@@AAEXPAUHWND__@@@Z 004d5d40 f   ToolkitPro1501vc60S:XTPControlComboBox.obj
 0001:000d4d90       ?SetupMessageHook@CXTPControlComboBoxAutoCompleteWnd@@QAEXH@Z 004d5d90 f   ToolkitPro1501vc60S:XTPControlComboBox.obj
 0001:000d4e40       ?OnHookMessage@CXTPControlComboBoxAutoCompleteWnd@@EAEHPAUHWND__@@IAAIAAJ2@Z 004d5e40 f   ToolkitPro1501vc60S:XTPControlComboBox.obj
 0001:000d4e60       ?CallWndProc@CXTPControlComboBoxAutoCompleteWnd@@CGJHIJ@Z 004d5e60 f   ToolkitPro1501vc60S:XTPControlComboBox.obj
 0001:000d4f30       ?CreateObject@CXTPControlComboBox@@SGPAVCObject@@XZ 004d5f30 f   ToolkitPro1501vc60S:XTPControlComboBox.obj
 0001:000d4f90       ?GetRuntimeClass@CXTPControlComboBox@@UBEPAUCRuntimeClass@@XZ 004d5f90 f   ToolkitPro1501vc60S:XTPControlComboBox.obj
 0001:000d4fc0       ?Clone@CXTPControlComboBox@@UAEPAVCXTPControl@@H@Z 004d5fc0 f   ToolkitPro1501vc60S:XTPControlComboBox.obj
 0001:000d4ff0       ??0CXTPControlComboBox@@QAE@PAVCXTPCommandBars@@@Z 004d5ff0 f   ToolkitPro1501vc60S:XTPControlComboBox.obj
 0001:000d5170       ?GetText@CXTPControlComboBox@@UBE?AVCString@@XZ 004d6170 f i ToolkitPro1501vc60S:XTPControlComboBox.obj
 0001:000d5190       ?OnThemeChanged@CXTPControlComboBox@@MAEXXZ 004d6190 f i ToolkitPro1501vc60S:XTPControlComboBox.obj
 0001:000d51a0       ??_GCXTPControlComboBox@@UAEPAXI@Z 004d61a0 f i ToolkitPro1501vc60S:XTPControlComboBox.obj
 0001:000d51a0       ??_ECXTPControlComboBox@@UAEPAXI@Z 004d61a0 f i ToolkitPro1501vc60S:XTPControlComboBox.obj
 0001:000d51c0       ??1CXTPControlComboBox@@UAE@XZ 004d61c0 f   ToolkitPro1501vc60S:XTPControlComboBox.obj
 0001:000d5270       ?GetEditText@CXTPControlComboBox@@QBE?AVCString@@XZ 004d6270 f   ToolkitPro1501vc60S:XTPControlComboBox.obj
 0001:000d5350       ?_GetEditText@CXTPControlComboBox@@IBE?AVCString@@XZ 004d6350 f   ToolkitPro1501vc60S:XTPControlComboBox.obj
 0001:000d53b0       ?SetEditText@CXTPControlComboBox@@QAEXABVCString@@@Z 004d63b0 f   ToolkitPro1501vc60S:XTPControlComboBox.obj
 0001:000d5430       ?_SetEditText@CXTPControlComboBox@@IAEXABVCString@@@Z 004d6430 f   ToolkitPro1501vc60S:XTPControlComboBox.obj
 0001:000d54b0       ?SetEditHint@CXTPControlComboBox@@QAEXPBD@Z 004d64b0 f   ToolkitPro1501vc60S:XTPControlComboBox.obj
 0001:000d5630       ?IsImageVisible@CXTPControlComboBox@@QBEHXZ 004d6630 f   ToolkitPro1501vc60S:XTPControlComboBox.obj
 0001:000d5630       ?IsImageVisible@CXTPControlEdit@@QBEHXZ 004d6630 f   ToolkitPro1501vc60S:XTPControlComboBox.obj
 0001:000d5690       ?IsCaptionVisible@CXTPControlComboBox@@UBEHXZ 004d6690 f   ToolkitPro1501vc60S:XTPControlComboBox.obj
 0001:000d5700       ?GetEditHint@CXTPControlComboBox@@QBE?AVCString@@XZ 004d6700 f   ToolkitPro1501vc60S:XTPControlComboBox.obj
 0001:000d57d0       ?GetEditHint@CXTPControlAction@@QBE?AVCString@@XZ 004d67d0 f i ToolkitPro1501vc60S:XTPControlComboBox.obj
 0001:000d57f0       ?UpdatePopupSelection@CXTPControlComboBox@@QAEXXZ 004d67f0 f   ToolkitPro1501vc60S:XTPControlComboBox.obj
 0001:000d58c0       ?OnEditChanged@CXTPControlComboBox@@UAEXXZ 004d68c0 f   ToolkitPro1501vc60S:XTPControlComboBox.obj
 0001:000d5a40       ?OnSelChanged@CXTPControlComboBox@@UAEXXZ 004d6a40 f   ToolkitPro1501vc60S:XTPControlComboBox.obj
 0001:000d5ac0       ?OnHookMouseWheel@CXTPControlComboBox@@MAEHIFVCPoint@@@Z 004d6ac0 f   ToolkitPro1501vc60S:XTPControlComboBox.obj
 0001:000d5b30       ?OnHookKeyDown@CXTPControlComboBox@@MAEHIJ@Z 004d6b30 f   ToolkitPro1501vc60S:XTPControlComboBox.obj
 0001:000d5d30       ?CreateEditControl@CXTPControlComboBox@@MAEPAVCXTPControlComboBoxEditCtrl@@XZ 004d6d30 f   ToolkitPro1501vc60S:XTPControlComboBox.obj
 0001:000d5d80       ?SetDropDownListStyle@CXTPControlComboBox@@QAEXH@Z 004d6d80 f   ToolkitPro1501vc60S:XTPControlComboBox.obj
 0001:000d5dd0       ?EnableShellAutoComplete@CXTPControlComboBox@@QAEXK@Z 004d6dd0 f   ToolkitPro1501vc60S:XTPControlComboBox.obj
 0001:000d5eb0       ?SetRect@CXTPControlComboBox@@MAEXVCRect@@@Z 004d6eb0 f   ToolkitPro1501vc60S:XTPControlComboBox.obj
 0001:000d6180       ?ShowHideEditControl@CXTPControlComboBox@@IAEXXZ 004d7180 f   ToolkitPro1501vc60S:XTPControlComboBox.obj
 0001:000d61f0       ?OnRemoved@CXTPControlComboBox@@MAEXXZ 004d71f0 f   ToolkitPro1501vc60S:XTPControlComboBox.obj
 0001:000d6230       ?OnEnabledChanged@CXTPControlComboBox@@UAEXXZ 004d7230 f   ToolkitPro1501vc60S:XTPControlComboBox.obj
 0001:000d6270       ?SetParent@CXTPControlComboBox@@MAEXPAVCXTPCommandBar@@@Z 004d7270 f   ToolkitPro1501vc60S:XTPControlComboBox.obj
 0001:000d62d0       ?OnSetSelected@CXTPControlComboBox@@MAEHH@Z 004d72d0 f   ToolkitPro1501vc60S:XTPControlComboBox.obj
 0001:000d6340       ?IsFocusable@CXTPRibbonControlTab@@MBEHXZ 004d7340 f   ToolkitPro1501vc60S:XTPControlComboBox.obj
 0001:000d6340       ?IsComCtlValid@CXTPAuxData@@QBEHXZ 004d7340 f   ToolkitPro1501vc60S:XTPControlComboBox.obj
 0001:000d6340       ?IsImagesAvailable@CXTPRibbonTheme@@IAEHXZ 004d7340 f   ToolkitPro1501vc60S:XTPControlComboBox.obj
 0001:000d6340       ?IsTransparent@CXTPRibbonGroupControlPopup@@UBEHXZ 004d7340 f   ToolkitPro1501vc60S:XTPControlComboBox.obj
 0001:000d6340       ?AllowWhiteSpaceContent@CXTPMarkupTextBlock@@MBEHXZ 004d7340 f   ToolkitPro1501vc60S:XTPControlComboBox.obj
 0001:000d6340       ?AllowWhiteSpaceContent@CXTPMarkupSpan@@MBEHXZ 004d7340 f   ToolkitPro1501vc60S:XTPControlComboBox.obj
 0001:000d6340       ?ShouldSerializeBar@CXTPRibbonBar@@MAEHXZ 004d7340 f   ToolkitPro1501vc60S:XTPControlComboBox.obj
 0001:000d6340       ?IsAlphaIconsSupported@CXTPImageManager@@QBEHXZ 004d7340 f   ToolkitPro1501vc60S:XTPControlComboBox.obj
 0001:000d6340       ?IsFocusable@CXTPControlComboBox@@MBEHXZ 004d7340 f   ToolkitPro1501vc60S:XTPControlComboBox.obj
 0001:000d6350       ?OnClick@CXTPControlComboBox@@MAEXHVCPoint@@@Z 004d7350 f   ToolkitPro1501vc60S:XTPControlComboBox.obj
 0001:000d6430       ?OnUnderlineActivate@CXTPControlComboBox@@MAEXXZ 004d7430 f   ToolkitPro1501vc60S:XTPControlComboBox.obj
 0001:000d6430       ?OnUnderlineActivate@CXTPControlEdit@@MAEXXZ 004d7430 f   ToolkitPro1501vc60S:XTPControlComboBox.obj
 0001:000d6450       ?SetHideFlags@CXTPControlComboBox@@UAEXK@Z 004d7450 f   ToolkitPro1501vc60S:XTPControlComboBox.obj
 0001:000d6480       ?OnActionChanged@CXTPControlComboBox@@UAEXH@Z 004d7480 f   ToolkitPro1501vc60S:XTPControlComboBox.obj
 0001:000d6570       ?OnActionChanging@CXTPControlComboBox@@UAEXH@Z 004d7570 f   ToolkitPro1501vc60S:XTPControlComboBox.obj
 0001:000d6660       ?OnCalcDynamicSize@CXTPControlComboBox@@MAEXK@Z 004d7660 f   ToolkitPro1501vc60S:XTPControlComboBox.obj
 0001:000d6660       ?OnCalcDynamicSize@CXTPControlEdit@@MAEXK@Z 004d7660 f   ToolkitPro1501vc60S:XTPControlComboBox.obj
 0001:000d6690       ?Copy@CXTPControlComboBox@@MAEXPAVCXTPControl@@H@Z 004d7690 f   ToolkitPro1501vc60S:XTPControlComboBox.obj
 0001:000d67a0       ?Compare@CXTPControlComboBox@@UAEHPAVCXTPControl@@@Z 004d77a0 f   ToolkitPro1501vc60S:XTPControlComboBox.obj
 0001:000d67d0       ?GetListBoxText@CXTPControlComboBox@@UBE?AVCString@@XZ 004d77d0 f   ToolkitPro1501vc60S:XTPControlComboBox.obj
 0001:000d6890       ?IsValidList@CXTPControlComboBox@@IBEHXZ 004d7890 f   ToolkitPro1501vc60S:XTPControlComboBox.obj
 0001:000d68a0       ?GetComboBoxPopupBar@CXTPControlComboBox@@QBEPAVCXTPControlComboBoxPopupBar@@XZ 004d78a0 f   ToolkitPro1501vc60S:XTPControlComboBox.obj
 0001:000d68c0       ?GetCurSel@CXTPControlComboBox@@QBEHXZ 004d78c0 f   ToolkitPro1501vc60S:XTPControlComboBox.obj
 0001:000d68e0       ?SetCurSel@CXTPControlComboBox@@QAEXH@Z 004d78e0 f   ToolkitPro1501vc60S:XTPControlComboBox.obj
 0001:000d6930       ?IsFocused@CXTPControlComboBox@@UBEHXZ 004d7930 f   ToolkitPro1501vc60S:XTPControlComboBox.obj
 0001:000d6940       ?SetFocused@CXTPControlComboBox@@UAEXH@Z 004d7940 f   ToolkitPro1501vc60S:XTPControlComboBox.obj
 0001:000d6a90       ?OnSetFocus@CXTPControlComboBox@@MAEXPAVCWnd@@@Z 004d7a90 f   ToolkitPro1501vc60S:XTPControlComboBox.obj
 0001:000d6c20       ?OnKillFocus@CXTPControlComboBox@@MAEXXZ 004d7c20 f   ToolkitPro1501vc60S:XTPControlComboBox.obj
 0001:000d6d20       ?GetDroppedState@CXTPControlComboBox@@QBEHXZ 004d7d20 f   ToolkitPro1501vc60S:XTPControlComboBox.obj
 0001:000d6d30       ?OnSetPopup@CXTPControlComboBox@@MAEHH@Z 004d7d30 f   ToolkitPro1501vc60S:XTPControlComboBox.obj
 0001:000d6dd0       ?OnExecute@CXTPControlComboBox@@UAEXXZ 004d7dd0 f   ToolkitPro1501vc60S:XTPControlComboBox.obj
 0001:000d6e30       ?GetDefaultCharFormat@CXTPControlComboBox@@UAE?AUCHARFORMAT2A@@XZ 004d7e30 f   ToolkitPro1501vc60S:XTPControlComboBox.obj
 0001:000d6f60       ?CreateObject@CXTPControlComboBoxPopupBar@@SGPAVCObject@@XZ 004d7f60 f   ToolkitPro1501vc60S:XTPControlComboBox.obj
 0001:000d6fc0       ?GetRuntimeClass@CXTPControlComboBoxPopupBar@@UBEPAUCRuntimeClass@@XZ 004d7fc0 f   ToolkitPro1501vc60S:XTPControlComboBox.obj
 0001:000d6ff0       ?Clone@CXTPControlComboBoxPopupBar@@UAEPAVCXTPCommandBar@@H@Z 004d7ff0 f   ToolkitPro1501vc60S:XTPControlComboBox.obj
 0001:000d7020       ??0CXTPControlComboBoxPopupBar@@QAE@XZ 004d8020 f   ToolkitPro1501vc60S:XTPControlComboBox.obj
 0001:000d7050       ?DelayRedraw@CXTPPopupBar@@MAEXXZ 004d8050 f i ToolkitPro1501vc60S:XTPControlComboBox.obj
 0001:000d7060       ?Create@CXTPPopupBar@@EAEHPBD0KABUtagRECT@@PAVCWnd@@IPAUCCreateContext@@@Z 004d8060 f i ToolkitPro1501vc60S:XTPControlComboBox.obj
 0001:000d7060       ?Create@CXTPDockingPaneSplitterWnd@@EAEHPBD0KABUtagRECT@@PAVCWnd@@IPAUCCreateContext@@@Z 004d8060 f i ToolkitPro1501vc60S:XTPControlComboBox.obj
 0001:000d7060       ?Create@CXTPDockingPaneAutoHidePanel@@EAEHPBD0KABUtagRECT@@PAVCWnd@@IPAUCCreateContext@@@Z 004d8060 f i ToolkitPro1501vc60S:XTPControlComboBox.obj
 0001:000d7060       ?Create@CXTPToolTipContextToolTip@@EAEHPBD0KABUtagRECT@@PAVCWnd@@IPAUCCreateContext@@@Z 004d8060 f i ToolkitPro1501vc60S:XTPControlComboBox.obj
 0001:000d7060       ?Create@CXTPToolBar@@EAEHPBD0KABUtagRECT@@PAVCWnd@@IPAUCCreateContext@@@Z 004d8060 f i ToolkitPro1501vc60S:XTPControlComboBox.obj
 0001:000d7060       ?Create@CXTPTrayIcon@@EAEHPBD0KABUtagRECT@@PAVCWnd@@IPAUCCreateContext@@@Z 004d8060 f i ToolkitPro1501vc60S:XTPControlComboBox.obj
 0001:000d7060       ?Create@CXTPDockBar@@EAEHPBD0KABUtagRECT@@PAVCWnd@@IPAUCCreateContext@@@Z 004d8060 f i ToolkitPro1501vc60S:XTPControlComboBox.obj
 0001:000d7060       ?Create@CXTPDockingPaneMiniWnd@@EAEHPBD0KABUtagRECT@@PAVCWnd@@IPAUCCreateContext@@@Z 004d8060 f i ToolkitPro1501vc60S:XTPControlComboBox.obj
 0001:000d7060       ?Create@CXTPTabControl@@EAEHPBD0KABUtagRECT@@PAVCWnd@@IPAUCCreateContext@@@Z 004d8060 f i ToolkitPro1501vc60S:XTPControlComboBox.obj
 0001:000d7060       ?Create@CXTPTabCtrlButtons@@EAEHPBD0KABUtagRECT@@PAVCWnd@@IPAUCCreateContext@@@Z 004d8060 f i ToolkitPro1501vc60S:XTPControlComboBox.obj
 0001:000d7060       ?Create@CXTPStatusBar@@EAEHPBD0KABUtagRECT@@PAVCWnd@@IPAUCCreateContext@@@Z 004d8060 f i ToolkitPro1501vc60S:XTPControlComboBox.obj
 0001:000d7090       ?IsResizable@CXTPPopupBar@@UBEHXZ 004d8090 f i ToolkitPro1501vc60S:XTPControlComboBox.obj
 0001:000d70a0       ?GetCurSel@CXTPControlComboBoxPopupBar@@UBEHXZ 004d80a0 f i ToolkitPro1501vc60S:XTPControlComboBox.obj
 0001:000d70b0       ?FindStringExact@CXTPControlComboBoxPopupBar@@UBEHHPBD@Z 004d80b0 f i ToolkitPro1501vc60S:XTPControlComboBox.obj
 0001:000d70b0       ?FindString@CXTPControlComboBoxPopupBar@@UBEHHPBD@Z 004d80b0 f i ToolkitPro1501vc60S:XTPControlComboBox.obj
 0001:000d70c0       ?IsControlEnabled@CXTPCommandBar@@MBEHPBVCXTPControl@@@Z 004d80c0 f i ToolkitPro1501vc60S:XTPControlComboBox.obj
 0001:000d70c0       ?SetTopIndex@CXTPControlComboBoxPopupBar@@UAEHH@Z 004d80c0 f i ToolkitPro1501vc60S:XTPControlComboBox.obj
 0001:000d70d0       ?GetText@CXTPControlComboBoxPopupBar@@UBEXHAAVCString@@@Z 004d80d0 f i ToolkitPro1501vc60S:XTPControlComboBox.obj
 0001:000d70d0       ?DrawSingleButton@CAppearanceSet@CXTPTabPaintManager@@UAEXPAVCDC@@PAVCXTPTabManagerItem@@@Z 004d80d0 f i ToolkitPro1501vc60S:XTPControlComboBox.obj
 0001:000d70d0       ?OnSwitchItem@CXTPTabManager@@MAEXPAVCXTPTabManagerItem@@0@Z 004d80d0 f i ToolkitPro1501vc60S:XTPControlComboBox.obj
 0001:000d70d0       ?OnMouseMove@CXTPControl@@MAEXVCPoint@@@Z 004d80d0 f i ToolkitPro1501vc60S:XTPControlComboBox.obj
 0001:000d70d0       ?OnLButtonUp@CXTPControl@@MAEXVCPoint@@@Z 004d80d0 f i ToolkitPro1501vc60S:XTPControlComboBox.obj
 0001:000d70e0       ?ProcessHookKeyDown@CXTPControlComboBoxPopupBar@@UAEHPAVCXTPControlComboBox@@IJ@Z 004d80e0 f   ToolkitPro1501vc60S:XTPControlComboBox.obj
 0001:000d71d0       ?OnHookKeyDown@CXTPControlComboBoxPopupBar@@UAEHIJ@Z 004d81d0 f   ToolkitPro1501vc60S:XTPControlComboBox.obj
 0001:000d7240       ??0CXTPControlComboBoxList@@QAE@XZ 004d8240 f   ToolkitPro1501vc60S:XTPControlComboBox.obj
 0001:000d7290       ?GetCurSel@CXTPControlComboBoxList@@MBEHXZ 004d8290 f i ToolkitPro1501vc60S:XTPControlComboBox.obj
 0001:000d72b0       ?FindString@CXTPControlComboBoxList@@MBEHHPBD@Z 004d82b0 f i ToolkitPro1501vc60S:XTPControlComboBox.obj
 0001:000d72e0       ?FindStringExact@CXTPControlComboBoxList@@MBEHHPBD@Z 004d82e0 f i ToolkitPro1501vc60S:XTPControlComboBox.obj
 0001:000d7310       ?SetTopIndex@CXTPControlComboBoxList@@MAEHH@Z 004d8310 f i ToolkitPro1501vc60S:XTPControlComboBox.obj
 0001:000d7330       ?SetCurSel@CXTPControlComboBoxList@@MAEXH@Z 004d8330 f i ToolkitPro1501vc60S:XTPControlComboBox.obj
 0001:000d7350       ?GetText@CXTPControlComboBoxList@@MBEXHAAVCString@@@Z 004d8350 f i ToolkitPro1501vc60S:XTPControlComboBox.obj
 0001:000d7370       ?GetMessageMap@CXTPControlComboBoxList@@MBEPBUAFX_MSGMAP@@XZ 004d8370 f   ToolkitPro1501vc60S:XTPControlComboBox.obj
 0001:000d7380       ?CreateObject@CXTPControlComboBoxList@@SGPAVCObject@@XZ 004d8380 f   ToolkitPro1501vc60S:XTPControlComboBox.obj
 0001:000d73e0       ?GetRuntimeClass@CXTPControlComboBoxList@@UBEPAUCRuntimeClass@@XZ 004d83e0 f   ToolkitPro1501vc60S:XTPControlComboBox.obj
 0001:000d7410       ?Clone@CXTPControlComboBoxList@@UAEPAVCXTPCommandBar@@H@Z 004d8410 f   ToolkitPro1501vc60S:XTPControlComboBox.obj
 0001:000d7440       ?CreateListBox@CXTPControlComboBoxList@@UAEXXZ 004d8440 f   ToolkitPro1501vc60S:XTPControlComboBox.obj
 0001:000d7560       ?DrawItem@CXTPControlComboBoxList@@MAEXPAUtagDRAWITEMSTRUCT@@@Z 004d8560 f   ToolkitPro1501vc60S:XTPControlComboBox.obj
 0001:000d7580       ?MeasureItem@CXTPControlComboBoxList@@MAEXPAUtagMEASUREITEMSTRUCT@@@Z 004d8580 f   ToolkitPro1501vc60S:XTPControlComboBox.obj
 0001:000d75a0       ?OnHookMessage@CXTPControlComboBoxList@@MAEHPAUHWND__@@IAAIAAJ2@Z 004d85a0 f   ToolkitPro1501vc60S:XTPControlComboBox.obj
 0001:000d75f0       ?OnNcPaint@CXTPControlComboBoxList@@IAEXXZ 004d85f0 f   ToolkitPro1501vc60S:XTPControlComboBox.obj
 0001:000d76d0       ?OnEraseBkgnd@CXTPControlComboBoxList@@IAEHPAVCDC@@@Z 004d86d0 f   ToolkitPro1501vc60S:XTPControlComboBox.obj
 0001:000d76e0       ?OnLButtonUp@CXTPControlComboBoxList@@IAEXIVCPoint@@@Z 004d86e0 f   ToolkitPro1501vc60S:XTPControlComboBox.obj
 0001:000d7700       ?SetTrackingMode@CXTPControlComboBoxList@@MAEHHHH@Z 004d8700 f   ToolkitPro1501vc60S:XTPControlComboBox.obj
 0001:000d77c0       ?GetListBoxCtrl@CXTPControlComboBoxList@@QBEPAVCListBox@@XZ 004d87c0 f   ToolkitPro1501vc60S:XTPControlComboBox.obj
 0001:000d77c0       ??0CStaticResourceExtension@CXTPMarkupBuilder@@QAE@XZ 004d87c0 f   ToolkitPro1501vc60S:XTPControlComboBox.obj
 0001:000d77c0       ?GetFirstInline@CXTPMarkupInline@@UBEPAV1@XZ 004d87c0 f   ToolkitPro1501vc60S:XTPControlComboBox.obj
 0001:000d77c0       ??0CXTPWinDwmWrapper@@QAE@XZ 004d87c0 f   ToolkitPro1501vc60S:XTPControlComboBox.obj
 0001:000d77d0       ?ProcessHookKeyDown@CXTPControlComboBoxList@@MAEHPAVCXTPControlComboBox@@IJ@Z 004d87d0 f   ToolkitPro1501vc60S:XTPControlComboBox.obj
 0001:000d7930       ?OnHookKeyDown@CXTPControlComboBoxList@@MAEHIJ@Z 004d8930 f   ToolkitPro1501vc60S:XTPControlComboBox.obj
 0001:000d79f0       ?OnMouseMove@CXTPControlComboBoxList@@IAEXIVCPoint@@@Z 004d89f0 f   ToolkitPro1501vc60S:XTPControlComboBox.obj
 0001:000d7a50       ?Popup@CXTPControlComboBoxList@@MAEHPAVCXTPControlPopup@@H@Z 004d8a50 f   ToolkitPro1501vc60S:XTPControlComboBox.obj
 0001:000d7be0       ?OnPaint@CXTPControlComboBoxList@@IAEXXZ 004d8be0 f   ToolkitPro1501vc60S:XTPControlComboBox.obj
 0001:000d7ca0       ?DrawCommandBar@CXTPControlComboBoxList@@MAEXPAVCDC@@VCRect@@@Z 004d8ca0 f   ToolkitPro1501vc60S:XTPControlComboBox.obj
 0001:000d7cf0       ?GetMessageMap@CXTPControlComboBoxEditCtrl@@MBEPBUAFX_MSGMAP@@XZ 004d8cf0 f   ToolkitPro1501vc60S:XTPControlComboBox.obj
 0001:000d7d00       ?OnEditChanged@CXTPControlComboBoxEditCtrl@@IAEXXZ 004d8d00 f   ToolkitPro1501vc60S:XTPControlComboBox.obj
 0001:000d7d50       ?OnKeyDown@CXTPControlComboBoxEditCtrl@@IAEXIII@Z 004d8d50 f   ToolkitPro1501vc60S:XTPControlComboBox.obj
 0001:000d7d50       ?OnKeyDown@CXTPControlEditCtrl@@IAEXIII@Z 004d8d50 f   ToolkitPro1501vc60S:XTPControlComboBox.obj
 0001:000d7d90       ?UpdateCharFormat@CXTPControlComboBoxEditCtrl@@IAEXXZ 004d8d90 f   ToolkitPro1501vc60S:XTPControlComboBox.obj
 0001:000d7e10       ?OnShellAutoCompleteStart@CXTPControlComboBoxEditCtrl@@IAEXXZ 004d8e10 f   ToolkitPro1501vc60S:XTPControlComboBox.obj
 0001:000d7e30       ?DrawButton@CXTPTabBaseTheme@@UAEXPAVCDC@@PAVCXTPTabCtrlButton@@K@Z 004d8e30 f   ToolkitPro1501vc60S:XTPControlComboBox.obj
 0001:000d7e30       ?OnRButtonDown@CSingleWorkspace@CXTPTabClientWnd@@QAEXIVCPoint@@@Z 004d8e30 f   ToolkitPro1501vc60S:XTPControlComboBox.obj
 0001:000d7e30       ?OnClick@CXTPRibbonControlTab@@MAEXHVCPoint@@@Z 004d8e30 f   ToolkitPro1501vc60S:XTPControlComboBox.obj
 0001:000d7e30       ?OnContextMenu@CXTPControlComboBoxEditCtrl@@IAEXPAVCWnd@@VCPoint@@@Z 004d8e30 f   ToolkitPro1501vc60S:XTPControlComboBox.obj
 0001:000d7e30       ?AdjustExcludeRect@CXTPRibbonTheme@@MAEXAAVCRect@@PAVCXTPControl@@H@Z 004d8e30 f   ToolkitPro1501vc60S:XTPControlComboBox.obj
 0001:000d7e30       ?OnContextMenu@CXTPControlEditCtrl@@IAEXPAVCWnd@@VCPoint@@@Z 004d8e30 f   ToolkitPro1501vc60S:XTPControlComboBox.obj
 0001:000d7e30       ?OnLButtonDown@CXTPControlComboBoxList@@IAEXIVCPoint@@@Z 004d8e30 f   ToolkitPro1501vc60S:XTPControlComboBox.obj
 0001:000d7e30       ?GenerateCommandBarList@CXTPRibbonGroupControlPopup@@UAEXAAKPAVCXTPCommandBarList@@PAUXTP_COMMANDBARS_PROPEXCHANGE_PARAM@@@Z 004d8e30 f   ToolkitPro1501vc60S:XTPControlComboBox.obj
 0001:000d7e40       ?OnRButtonDown@CXTPControlComboBoxEditCtrl@@IAEXIVCPoint@@@Z 004d8e40 f   ToolkitPro1501vc60S:XTPControlComboBox.obj
 0001:000d7ee0       ?OnLButtonDown@CXTPControlEditCtrl@@IAEXIVCPoint@@@Z 004d8ee0 f   ToolkitPro1501vc60S:XTPControlComboBox.obj
 0001:000d7ee0       ?OnLButtonDown@CXTPControlComboBoxEditCtrl@@IAEXIVCPoint@@@Z 004d8ee0 f   ToolkitPro1501vc60S:XTPControlComboBox.obj
 0001:000d7f20       ?OnDestroy@CXTPControlComboBoxEditCtrl@@IAEXXZ 004d8f20 f   ToolkitPro1501vc60S:XTPControlComboBox.obj
 0001:000d7f40       ?OnWindowFromPoint@CXTPControlComboBoxEditCtrl@@IAEJIJ@Z 004d8f40 f   ToolkitPro1501vc60S:XTPControlComboBox.obj
 0001:000d7f40       ?OnWindowFromPoint@CXTPControlEditCtrl@@IAEJIJ@Z 004d8f40 f   ToolkitPro1501vc60S:XTPControlComboBox.obj
 0001:000d7f50       ?OnSetFocus@CXTPControlComboBoxEditCtrl@@IAEXPAVCWnd@@@Z 004d8f50 f   ToolkitPro1501vc60S:XTPControlComboBox.obj
 0001:000d7fc0       ?OnKillFocus@CXTPControlComboBoxEditCtrl@@IAEXPAVCWnd@@@Z 004d8fc0 f   ToolkitPro1501vc60S:XTPControlComboBox.obj
 0001:000d7fe0       ?Copy@CXTPControlComboBoxList@@MAEXPAVCXTPCommandBar@@H@Z 004d8fe0 f   ToolkitPro1501vc60S:XTPControlComboBox.obj
 0001:000d8100       ?DoPropExchange@CXTPControlComboBoxList@@MAEXPAVCXTPPropExchange@@@Z 004d9100 f   ToolkitPro1501vc60S:XTPControlComboBox.obj
 0001:000d8370       ?OnMouseMove@CXTPControlComboBox@@MAEXVCPoint@@@Z 004d9370 f   ToolkitPro1501vc60S:XTPControlComboBox.obj
 0001:000d8430       ?GetListIconId@CXTPControlComboBox@@QBEHXZ 004d9430 f   ToolkitPro1501vc60S:XTPControlComboBox.obj
 0001:000d8450       ?GetCustomizeMinWidth@CXTPControlComboBox@@MBEHXZ 004d9450 f   ToolkitPro1501vc60S:XTPControlComboBox.obj
 0001:000d8470       ?DeflateEditRect@CXTPControlComboBox@@MAEXAAVCRect@@@Z 004d9470 f   ToolkitPro1501vc60S:XTPControlComboBox.obj
 0001:000d84b0       ?DrawEditText@CXTPControlComboBox@@UAEXPAVCDC@@VCRect@@@Z 004d94b0 f   ToolkitPro1501vc60S:XTPControlComboBox.obj
 0001:000d8730       ?CenterPoint@CRect@@QBE?AVCPoint@@XZ 004d9730 f i ToolkitPro1501vc60S:XTPControlComboBox.obj
 0001:000d8760       ?DrawItem@CXTPControlComboBox@@MAEXPAUtagDRAWITEMSTRUCT@@@Z 004d9760 f   ToolkitPro1501vc60S:XTPControlComboBox.obj
 0001:000d8990       ??_9@$BBLE@AE              004d9990 f i ToolkitPro1501vc60S:XTPControlComboBox.obj
 0001:000d89a0       ??_9@$BBLI@AE              004d99a0 f i ToolkitPro1501vc60S:XTPControlComboBox.obj
 0001:000d89b0       ??_ECXTPControlComboBox@@WBM@AEPAXI@Z 004d99b0 f i ToolkitPro1501vc60S:XTPControlComboBox.obj
 0001:000d89c0       ?OnCustomDraw@CXTPListViewBase@@IAEXPAUtagNMHDR@@PAJ@Z 004d99c0 f i ToolkitPro1501vc60S:XTPListCtrlView.obj
 0001:000d89e0       ?OnSettingChange@CXTPListViewBase@@IAEXIPBD@Z 004d99e0 f i ToolkitPro1501vc60S:XTPListCtrlView.obj
 0001:000d8a10       ?OnDestroy@CXTPListViewBase@@IAEXXZ 004d9a10 f i ToolkitPro1501vc60S:XTPListCtrlView.obj
 0001:000d8a30       ?OnEraseBkgnd@CXTPListViewBase@@IAEHPAVCDC@@@Z 004d9a30 f i ToolkitPro1501vc60S:XTPListCtrlView.obj
 0001:000d8a40       ?OnPaint@CXTPListViewBase@@IAEXXZ 004d9a40 f i ToolkitPro1501vc60S:XTPListCtrlView.obj
 0001:000d8a50       ?OnPrintClient@CXTPListViewBase@@IAEJIJ@Z 004d9a50 f i ToolkitPro1501vc60S:XTPListCtrlView.obj
 0001:000d8a70       ?OnCreate@CXTPListViewBase@@IAEHPAUtagCREATESTRUCTA@@@Z 004d9a70 f i ToolkitPro1501vc60S:XTPListCtrlView.obj
 0001:000d8aa0       ?OnCustomDraw@CXTPListCtrlBase@@IAEXPAUtagNMHDR@@PAJ@Z 004d9aa0 f i ToolkitPro1501vc60S:XTPListCtrlView.obj
 0001:000d8ac0       ?OnSettingChange@CXTPListCtrlBase@@IAEXIPBD@Z 004d9ac0 f i ToolkitPro1501vc60S:XTPListCtrlView.obj
 0001:000d8af0       ?OnDestroy@CXTPListCtrlBase@@IAEXXZ 004d9af0 f i ToolkitPro1501vc60S:XTPListCtrlView.obj
 0001:000d8b10       ?OnPaint@CXTPListCtrlBase@@IAEXXZ 004d9b10 f i ToolkitPro1501vc60S:XTPListCtrlView.obj
 0001:000d8b20       ?OnPrintClient@CXTPListCtrlBase@@IAEJIJ@Z 004d9b20 f i ToolkitPro1501vc60S:XTPListCtrlView.obj
 0001:000d8b40       ?OnCreate@CXTPListCtrlBase@@IAEHPAUtagCREATESTRUCTA@@@Z 004d9b40 f i ToolkitPro1501vc60S:XTPListCtrlView.obj
 0001:000d8b70       ??0CXTPListView@@QAE@XZ    004d9b70 f   ToolkitPro1501vc60S:XTPListCtrlView.obj
 0001:000d8bf0       ?OnNotify@CXTPListViewBase@@MAEHIJPAJ@Z 004d9bf0 f i ToolkitPro1501vc60S:XTPListCtrlView.obj
 0001:000d8c10       ?PreCreateWindow@CXTPListViewBase@@MAEHAAUtagCREATESTRUCTA@@@Z 004d9c10 f i ToolkitPro1501vc60S:XTPListCtrlView.obj
 0001:000d8c40       ??1CXTPListViewBase@@UAE@XZ 004d9c40 f i ToolkitPro1501vc60S:XTPListCtrlView.obj
 0001:000d8ca0       ??_ECXTPListView@@UAEPAXI@Z 004d9ca0 f i ToolkitPro1501vc60S:XTPListCtrlView.obj
 0001:000d8ca0       ??_GCXTPListView@@UAEPAXI@Z 004d9ca0 f i ToolkitPro1501vc60S:XTPListCtrlView.obj
 0001:000d8cc0       ??1CXTPListView@@UAE@XZ    004d9cc0 f   ToolkitPro1501vc60S:XTPListCtrlView.obj
 0001:000d8d30       ?CreateObject@CXTPListView@@SGPAVCObject@@XZ 004d9d30 f   ToolkitPro1501vc60S:XTPListCtrlView.obj
 0001:000d8d90       ?GetRuntimeClass@CXTPListView@@UBEPAUCRuntimeClass@@XZ 004d9d90 f   ToolkitPro1501vc60S:XTPListCtrlView.obj
 0001:000d8da0       ?GetMessageMap@CXTPListView@@MBEPBUAFX_MSGMAP@@XZ 004d9da0 f   ToolkitPro1501vc60S:XTPListCtrlView.obj
 0001:000d8db0       ??0CXTPListCtrl@@QAE@XZ    004d9db0 f   ToolkitPro1501vc60S:XTPListCtrlView.obj
 0001:000d8e30       ?GetExtendedStyle@CXTPListCtrlBase@@UAEKXZ 004d9e30 f i ToolkitPro1501vc60S:XTPListCtrlView.obj
 0001:000d8e50       ?SetExtendedStyle@CXTPListCtrlBase@@UAEXK@Z 004d9e50 f i ToolkitPro1501vc60S:XTPListCtrlView.obj
 0001:000d8e80       ?OnNotify@CXTPListCtrlBase@@MAEHIJPAJ@Z 004d9e80 f i ToolkitPro1501vc60S:XTPListCtrlView.obj
 0001:000d8ea0       ?Init@CXTPListCtrlBase@@MAE_NXZ 004d9ea0 f i ToolkitPro1501vc60S:XTPListCtrlView.obj
 0001:000d8eb0       ?PreSubclassWindow@CXTPListCtrlBase@@MAEXXZ 004d9eb0 f i ToolkitPro1501vc60S:XTPListCtrlView.obj
 0001:000d8ed0       ?PreCreateWindow@CXTPListCtrlBase@@MAEHAAUtagCREATESTRUCTA@@@Z 004d9ed0 f i ToolkitPro1501vc60S:XTPListCtrlView.obj
 0001:000d8f00       ??1CXTPListCtrlBase@@UAE@XZ 004d9f00 f i ToolkitPro1501vc60S:XTPListCtrlView.obj
 0001:000d8f50       ??_ECXTPListCtrl@@UAEPAXI@Z 004d9f50 f i ToolkitPro1501vc60S:XTPListCtrlView.obj
 0001:000d8f50       ??_GCXTPListCtrl@@UAEPAXI@Z 004d9f50 f i ToolkitPro1501vc60S:XTPListCtrlView.obj
 0001:000d8f70       ??1CXTPListCtrl@@UAE@XZ    004d9f70 f   ToolkitPro1501vc60S:XTPListCtrlView.obj
 0001:000d8fd0       ?GetRuntimeClass@CXTPListCtrl@@UBEPAUCRuntimeClass@@XZ 004d9fd0 f   ToolkitPro1501vc60S:XTPListCtrlView.obj
 0001:000d8fe0       ?GetMessageMap@CXTPListCtrl@@MBEPBUAFX_MSGMAP@@XZ 004d9fe0 f   ToolkitPro1501vc60S:XTPListCtrlView.obj
 0001:000d8ff0       ?OnNotify@CXTPListViewBase@@OEI@AEHIJPAJ@Z 004d9ff0 f i ToolkitPro1501vc60S:XTPListCtrlView.obj
 0001:000d9000       ?OnNotify@CXTPListCtrlBase@@ODM@AEHIJPAJ@Z 004da000 f i ToolkitPro1501vc60S:XTPListCtrlView.obj
 0001:000d9010       ??_ECXTPListView@@WEI@AEPAXI@Z 004da010 f i ToolkitPro1501vc60S:XTPListCtrlView.obj
 0001:000d9020       ??_ECXTPListCtrl@@WDM@AEPAXI@Z 004da020 f i ToolkitPro1501vc60S:XTPListCtrlView.obj
 0001:000d9030       ??0CXTPListBase@@QAE@XZ    004da030 f   ToolkitPro1501vc60S:XTPListBase.obj
 0001:000d90f0       ??_ECXTPListBase@@UAEPAXI@Z 004da0f0 f i ToolkitPro1501vc60S:XTPListBase.obj
 0001:000d90f0       ??_GCXTPListBase@@UAEPAXI@Z 004da0f0 f i ToolkitPro1501vc60S:XTPListBase.obj
 0001:000d9110       ??1CXTPListBase@@UAE@XZ    004da110 f   ToolkitPro1501vc60S:XTPListBase.obj
 0001:000d91c0       ?RefreshMetrics@CXTPListBase@@IAEXXZ 004da1c0 f   ToolkitPro1501vc60S:XTPListBase.obj
 0001:000d9210       ?Lookup@CXTPListBase@@UAEPAUROWCOLOR@1@H@Z 004da210 f   ToolkitPro1501vc60S:XTPListBase.obj
 0001:000d9240       ?ImplAttach@CXTPListBase@@IAEXPAVCListCtrl@@@Z 004da240 f   ToolkitPro1501vc60S:XTPListBase.obj
 0001:000d9250       ?MoveRow@CXTPListBase@@UAE_NHH@Z 004da250 f   ToolkitPro1501vc60S:XTPListBase.obj
 0001:000d92a0       ?CopyRow@CXTPListBase@@UAEHHH@Z 004da2a0 f   ToolkitPro1501vc60S:XTPListBase.obj
 0001:000d93e0       ?GetColumnCount@CXTPListBase@@UAEHXZ 004da3e0 f   ToolkitPro1501vc60S:XTPListBase.obj
 0001:000d9430       ?ModifyExtendedStyle@CXTPListBase@@UAEHKK@Z 004da430 f   ToolkitPro1501vc60S:XTPListBase.obj
 0001:000d9490       ?OnCustomDraw@CXTPListBase@@IAEXPAUtagNMHDR@@PAJ@Z 004da490 f   ToolkitPro1501vc60S:XTPListBase.obj
 0001:000d9650       ?SetSortImage@CXTPListBase@@UAEHHH@Z 004da650 f   ToolkitPro1501vc60S:XTPListBase.obj
 0001:000d96c0       ?OnNotify@CXTPListBase@@MAEHIJPAJ@Z 004da6c0 f   ToolkitPro1501vc60S:XTPListBase.obj
 0001:000d97c0       ?SortList@CXTPListBase@@UAE_NH_N@Z 004da7c0 f   ToolkitPro1501vc60S:XTPListBase.obj
 0001:000d97d0       ?AddColumn@CXTPListBase@@UAEHPBDHH@Z 004da7d0 f   ToolkitPro1501vc60S:XTPListBase.obj
 0001:000d9880       ?BuildColumns@CXTPListBase@@UAE_NHPAH0@Z 004da880 f   ToolkitPro1501vc60S:XTPListBase.obj
 0001:000d9930       ?BuildColumns@CXTPListBase@@UAE_NHPAHPAVCString@@@Z 004da930 f   ToolkitPro1501vc60S:XTPListBase.obj
 0001:000d9990       ?HitTestEx@CXTPListBase@@UBEHAAVCPoint@@PAH@Z 004da990 f   ToolkitPro1501vc60S:XTPListBase.obj
 0001:000d9b50       ?SubclassHeader@CXTPListBase@@UAE_N_N@Z 004dab50 f   ToolkitPro1501vc60S:XTPListBase.obj
 0001:000d9bd0       ?AutoSaveColumns@CXTPListBase@@UAEXPBD00@Z 004dabd0 f   ToolkitPro1501vc60S:XTPListBase.obj
 0001:000d9c30       ?SaveColumnWidths@CXTPListBase@@UAEXXZ 004dac30 f   ToolkitPro1501vc60S:XTPListBase.obj
 0001:000d9d80       ?LoadColumnWidths@CXTPListBase@@UAEXXZ 004dad80 f   ToolkitPro1501vc60S:XTPListBase.obj
 0001:000d9e20       ?SetStoredWidth@CXTPListBase@@UAEXH@Z 004dae20 f   ToolkitPro1501vc60S:XTPListBase.obj
 0001:000d9e50       ?GetStoredWidth@CXTPListBase@@UAEHH@Z 004dae50 f   ToolkitPro1501vc60S:XTPListBase.obj
 0001:000d9f50       ?OnDestroy@CXTPListBase@@IAEXXZ 004daf50 f   ToolkitPro1501vc60S:XTPListBase.obj
 0001:000d9f60       ?AutoSizeColumn@CXTPListBase@@UAEXH@Z 004daf60 f   ToolkitPro1501vc60S:XTPListBase.obj
 0001:000da1c0       ?OnPrintClient@CXTPListBase@@IAEJIJ@Z 004db1c0 f   ToolkitPro1501vc60S:XTPListBase.obj
 0001:000da200       ?OnPaint@CXTPListBase@@IAEXXZ 004db200 f   ToolkitPro1501vc60S:XTPListBase.obj
 0001:000da4d0       ?Init@CXTPListBase@@MAE_NXZ 004db4d0 f   ToolkitPro1501vc60S:XTPListBase.obj
 0001:000da540       ?OnSettingChange@CXTPListBase@@IAEXIPBD@Z 004db540 f   ToolkitPro1501vc60S:XTPListBase.obj
 0001:000da550       ?_xtGetHeaderCtrl@CXTPListBase@@QBEPAVCHeaderCtrl@@XZ 004db550 f   ToolkitPro1501vc60S:XTPListBase.obj
 0001:000da570       ?XTPGetHeaderCtrl@CXTPListBase@@QBEPAVCXTPHeaderCtrl@@XZ 004db570 f   ToolkitPro1501vc60S:XTPListBase.obj
 0001:000da590       ??1?$CList@UROWCOLOR@CXTPListBase@@AAU12@@@UAE@XZ 004db590 f i ToolkitPro1501vc60S:XTPListBase.obj
 0001:000da5f0       ?Serialize@?$CList@UROWCOLOR@CXTPListBase@@AAU12@@@UAEXAAVCArchive@@@Z 004db5f0 f i ToolkitPro1501vc60S:XTPListBase.obj
 0001:000da730       ??_E?$CList@UROWCOLOR@CXTPListBase@@AAU12@@@UAEPAXI@Z 004db730 f i ToolkitPro1501vc60S:XTPListBase.obj
 0001:000da730       ??_G?$CList@UROWCOLOR@CXTPListBase@@AAU12@@@UAEPAXI@Z 004db730 f i ToolkitPro1501vc60S:XTPListBase.obj
 0001:000da750       ??0CXTPHeaderCtrlTheme@@QAE@XZ 004db750 f   ToolkitPro1501vc60S:XTPHeaderCtrlTheme.obj
 0001:000da7d0       ??_ECXTPHeaderCtrlTheme@@UAEPAXI@Z 004db7d0 f i ToolkitPro1501vc60S:XTPHeaderCtrlTheme.obj
 0001:000da7d0       ??_GCXTPHeaderCtrlTheme@@UAEPAXI@Z 004db7d0 f i ToolkitPro1501vc60S:XTPHeaderCtrlTheme.obj
 0001:000da7f0       ??1CXTPHeaderCtrlTheme@@UAE@XZ 004db7f0 f   ToolkitPro1501vc60S:XTPHeaderCtrlTheme.obj
 0001:000da850       ?RefreshMetrics@CXTPHeaderCtrlTheme@@UAEXPAVCXTPHeaderCtrl@@@Z 004db850 f   ToolkitPro1501vc60S:XTPHeaderCtrlTheme.obj
 0001:000da8c0       ?OnDrawBackground@CXTPHeaderCtrlTheme@@MAEXPAUtagDRAWITEMSTRUCT@@@Z 004db8c0 f   ToolkitPro1501vc60S:XTPHeaderCtrlTheme.obj
 0001:000da950       ?OnDrawItemBackground@CXTPHeaderCtrlTheme@@MAEXPAUtagDRAWITEMSTRUCT@@@Z 004db950 f   ToolkitPro1501vc60S:XTPHeaderCtrlTheme.obj
 0001:000daaf0       ?OnDrawBackgroundWinThemed@CXTPHeaderCtrlTheme@@MAEHPAUtagDRAWITEMSTRUCT@@@Z 004dbaf0 f   ToolkitPro1501vc60S:XTPHeaderCtrlTheme.obj
 0001:000dab30       ?OnDrawItemBackgroundWinThemed@CXTPHeaderCtrlTheme@@MAEHPAUtagDRAWITEMSTRUCT@@@Z 004dbb30 f   ToolkitPro1501vc60S:XTPHeaderCtrlTheme.obj
 0001:000dab70       ?DrawSortArrow@CXTPHeaderCtrlTheme@@MAEXPAVCDC@@PAUtagPOINT@@H@Z 004dbb70 f   ToolkitPro1501vc60S:XTPHeaderCtrlTheme.obj
 0001:000dac80       ?OnDrawItemSortArrow@CXTPHeaderCtrlTheme@@MAEXPAUtagDRAWITEMSTRUCT@@H@Z 004dbc80 f   ToolkitPro1501vc60S:XTPHeaderCtrlTheme.obj
 0001:000dad40       ?OnDrawItemText@CXTPHeaderCtrlTheme@@MAEXPAUtagDRAWITEMSTRUCT@@PAVCXTPHeaderCtrl@@@Z 004dbd40 f   ToolkitPro1501vc60S:XTPHeaderCtrlTheme.obj
 0001:000db020       ?DrawHeader@CXTPHeaderCtrlTheme@@UAEXPAVCDC@@PAVCXTPHeaderCtrl@@@Z 004dc020 f   ToolkitPro1501vc60S:XTPHeaderCtrlTheme.obj
 0001:000db310       ?UseWinXPThemes@CXTPHeaderCtrlTheme@@UAEHPAVCXTPHeaderCtrl@@@Z 004dc310 f   ToolkitPro1501vc60S:XTPHeaderCtrlTheme.obj
 0001:000db360       ?SetDrawStyle@CXTPHeaderCtrlTheme@@UAEXKPAVCXTPHeaderCtrl@@@Z 004dc360 f   ToolkitPro1501vc60S:XTPHeaderCtrlTheme.obj
 0001:000db390       ?Layout@CXTPHeaderCtrlTheme@@UAEHPAU_HD_LAYOUT@@PAVCXTPHeaderCtrl@@@Z 004dc390 f   ToolkitPro1501vc60S:XTPHeaderCtrlTheme.obj
 0001:000db3b0       ?SetBitmap@CXTPHeaderCtrlTheme@@UAEHHIHKPAVCXTPHeaderCtrl@@@Z 004dc3b0 f   ToolkitPro1501vc60S:XTPHeaderCtrlTheme.obj
 0001:000db520       ?OnDrawItemBitmap@CXTPHeaderCtrlTheme@@MAEXPAUtagDRAWITEMSTRUCT@@AAVCRect@@PAVCXTPHeaderCtrl@@@Z 004dc520 f   ToolkitPro1501vc60S:XTPHeaderCtrlTheme.obj
 0001:000db740       ?CleanUp@CXTPHeaderCtrlTheme@@UAEXPAVCXTPHeaderCtrl@@@Z 004dc740 f   ToolkitPro1501vc60S:XTPHeaderCtrlTheme.obj
 0001:000db7c0       ??0CXTPHeaderCtrlThemeOfficeXP@@QAE@XZ 004dc7c0 f   ToolkitPro1501vc60S:XTPHeaderCtrlTheme.obj
 0001:000db7e0       ??_GCXTPHeaderCtrlThemeOfficeXP@@UAEPAXI@Z 004dc7e0 f i ToolkitPro1501vc60S:XTPHeaderCtrlTheme.obj
 0001:000db7e0       ??_ECXTPHeaderCtrlThemeOfficeXP@@UAEPAXI@Z 004dc7e0 f i ToolkitPro1501vc60S:XTPHeaderCtrlTheme.obj
 0001:000db800       ??1CXTPHeaderCtrlThemeOfficeXP@@UAE@XZ 004dc800 f   ToolkitPro1501vc60S:XTPHeaderCtrlTheme.obj
 0001:000db810       ?OnDrawItemBackground@CXTPHeaderCtrlThemeOfficeXP@@MAEXPAUtagDRAWITEMSTRUCT@@@Z 004dc810 f   ToolkitPro1501vc60S:XTPHeaderCtrlTheme.obj
 0001:000db970       ??0CXTPHeaderCtrlThemeOffice2003@@QAE@XZ 004dc970 f   ToolkitPro1501vc60S:XTPHeaderCtrlTheme.obj
 0001:000db9a0       ??_ECXTPHeaderCtrlThemeOffice2003@@UAEPAXI@Z 004dc9a0 f i ToolkitPro1501vc60S:XTPHeaderCtrlTheme.obj
 0001:000db9a0       ??_GCXTPHeaderCtrlThemeOffice2003@@UAEPAXI@Z 004dc9a0 f i ToolkitPro1501vc60S:XTPHeaderCtrlTheme.obj
 0001:000db9c0       ??1CXTPHeaderCtrlThemeOffice2003@@UAE@XZ 004dc9c0 f   ToolkitPro1501vc60S:XTPHeaderCtrlTheme.obj
 0001:000db9d0       ?OnDrawBackground@CXTPHeaderCtrlThemeOffice2003@@MAEXPAUtagDRAWITEMSTRUCT@@@Z 004dc9d0 f   ToolkitPro1501vc60S:XTPHeaderCtrlTheme.obj
 0001:000dbd00       ?OnDrawItemBackground@CXTPHeaderCtrlThemeOffice2003@@MAEXPAUtagDRAWITEMSTRUCT@@@Z 004dcd00 f   ToolkitPro1501vc60S:XTPHeaderCtrlTheme.obj
 0001:000dbe60       ?Layout@CXTPHeaderCtrlThemeOffice2003@@UAEHPAU_HD_LAYOUT@@PAVCXTPHeaderCtrl@@@Z 004dce60 f   ToolkitPro1501vc60S:XTPHeaderCtrlTheme.obj
 0001:000dbf40       ??0CXTPHeaderCtrlThemeExplorer@@QAE@XZ 004dcf40 f   ToolkitPro1501vc60S:XTPHeaderCtrlTheme.obj
 0001:000dbf80       ??_GCXTPHeaderCtrlThemeExplorer@@UAEPAXI@Z 004dcf80 f i ToolkitPro1501vc60S:XTPHeaderCtrlTheme.obj
 0001:000dbf80       ??_ECXTPHeaderCtrlThemeExplorer@@UAEPAXI@Z 004dcf80 f i ToolkitPro1501vc60S:XTPHeaderCtrlTheme.obj
 0001:000dbfa0       ??1CXTPHeaderCtrlThemeExplorer@@UAE@XZ 004dcfa0 f   ToolkitPro1501vc60S:XTPHeaderCtrlTheme.obj
 0001:000dbfb0       ?OnDrawItemBackgroundWinThemed@CXTPHeaderCtrlThemeExplorer@@MAEHPAUtagDRAWITEMSTRUCT@@@Z 004dcfb0 f   ToolkitPro1501vc60S:XTPHeaderCtrlTheme.obj
 0001:000dbfc0       ?Layout@CXTPHeaderCtrlThemeExplorer@@UAEHPAU_HD_LAYOUT@@PAVCXTPHeaderCtrl@@@Z 004dcfc0 f   ToolkitPro1501vc60S:XTPHeaderCtrlTheme.obj
 0001:000dc0a0       ?DrawSortArrow@CXTPHeaderCtrlThemeExplorer@@MAEXPAVCDC@@PAUtagPOINT@@H@Z 004dd0a0 f   ToolkitPro1501vc60S:XTPHeaderCtrlTheme.obj
 0001:000dc140       ?OnDrawBackground@CXTPHeaderCtrlThemeOfficeXP@@MAEXPAUtagDRAWITEMSTRUCT@@@Z 004dd140 f   ToolkitPro1501vc60S:XTPHeaderCtrlTheme.obj
 0001:000dc140       ?OnDrawBackground@CXTPHeaderCtrlThemeExplorer@@MAEXPAUtagDRAWITEMSTRUCT@@@Z 004dd140 f   ToolkitPro1501vc60S:XTPHeaderCtrlTheme.obj
 0001:000dc1a0       ??0CXTPSystemVersion@@AAE@XZ 004dd1a0 f   ToolkitPro1501vc60S:XTPSystemHelpers.obj
 0001:000dc1d0       ?XTPSystemVersion@@YGPAVCXTPSystemVersion@@XZ 004dd1d0 f   ToolkitPro1501vc60S:XTPSystemHelpers.obj
 0001:000dc220       ?IsWin95@CXTPSystemVersion@@QBE_NXZ 004dd220 f   ToolkitPro1501vc60S:XTPSystemHelpers.obj
 0001:000dc240       ?IsWin98@CXTPSystemVersion@@QBE_NXZ 004dd240 f   ToolkitPro1501vc60S:XTPSystemHelpers.obj
 0001:000dc260       ?IsWin9x@CXTPSystemVersion@@QBE_NXZ 004dd260 f   ToolkitPro1501vc60S:XTPSystemHelpers.obj
 0001:000dc270       ?IsWinNT4@CXTPSystemVersion@@QBE_NXZ 004dd270 f   ToolkitPro1501vc60S:XTPSystemHelpers.obj
 0001:000dc290       ?IsWin2K@CXTPSystemVersion@@QBE_NXZ 004dd290 f   ToolkitPro1501vc60S:XTPSystemHelpers.obj
 0001:000dc2b0       ?IsWinXP@CXTPSystemVersion@@QBE_NXZ 004dd2b0 f   ToolkitPro1501vc60S:XTPSystemHelpers.obj
 0001:000dc2d0       ?IsWin2KOrGreater@CXTPSystemVersion@@QBE_NXZ 004dd2d0 f   ToolkitPro1501vc60S:XTPSystemHelpers.obj
 0001:000dc2f0       ?IsWinXPOrGreater@CXTPSystemVersion@@QBE_NXZ 004dd2f0 f   ToolkitPro1501vc60S:XTPSystemHelpers.obj
 0001:000dc310       ?IsWinVistaOrGreater@CXTPSystemVersion@@QBE_NXZ 004dd310 f   ToolkitPro1501vc60S:XTPSystemHelpers.obj
 0001:000dc330       ?IsWin7OrGreater@CXTPSystemVersion@@QBE_NXZ 004dd330 f   ToolkitPro1501vc60S:XTPSystemHelpers.obj
 0001:000dc350       ?GreaterThanEqualTo@CXTPSystemVersion@@ABE_NKK@Z 004dd350 f   ToolkitPro1501vc60S:XTPSystemHelpers.obj
 0001:000dc380       ?EqualTo@CXTPSystemVersion@@ABE_NKK@Z 004dd380 f   ToolkitPro1501vc60S:XTPSystemHelpers.obj
 0001:000dc3b0       ?GetComCtlVersion@CXTPSystemVersion@@QBEKXZ 004dd3b0 f   ToolkitPro1501vc60S:XTPSystemHelpers.obj
 0001:000dc430       ?IsClearTypeTextQualitySupported@CXTPSystemVersion@@QBEHXZ 004dd430 f   ToolkitPro1501vc60S:XTPSystemHelpers.obj
 0001:000dc440       ?GetMaxCharSize@CXTPSystemVersion@@QBEHXZ 004dd440 f   ToolkitPro1501vc60S:XTPSystemHelpers.obj
 0001:000dc470       ?XTPMultiMonitor@@YAPAVCXTPMultiMonitor@@XZ 004dd470 f   ToolkitPro1501vc60S:XTPSystemHelpers.obj
 0001:000dc4c0       ??1CXTPMultiMonitor@@QAE@XZ 004dd4c0 f i ToolkitPro1501vc60S:XTPSystemHelpers.obj
 0001:000dc4d0       ??0CXTPMultiMonitor@@AAE@XZ 004dd4d0 f   ToolkitPro1501vc60S:XTPSystemHelpers.obj
 0001:000dc5a0       ?GetMonitorInfoA@CXTPMultiMonitor@@AAEHPAUXTP_HMONITOR__@1@PAUXTP_MONITORINFO@1@@Z 004dd5a0 f   ToolkitPro1501vc60S:XTPSystemHelpers.obj
 0001:000dc5d0       ?GetWorkArea@CXTPMultiMonitor@@AAE?AVCRect@@PAUXTP_HMONITOR__@1@@Z 004dd5d0 f   ToolkitPro1501vc60S:XTPSystemHelpers.obj
 0001:000dc630       ?GetScreenArea@CXTPMultiMonitor@@AAE?AVCRect@@PAUXTP_HMONITOR__@1@@Z 004dd630 f   ToolkitPro1501vc60S:XTPSystemHelpers.obj
 0001:000dc6a0       ?GetScreenArea@CXTPMultiMonitor@@QAE?AVCRect@@ABUtagPOINT@@@Z 004dd6a0 f   ToolkitPro1501vc60S:XTPSystemHelpers.obj
 0001:000dc700       ?GetScreenArea@CXTPMultiMonitor@@QAE?AVCRect@@PBUtagRECT@@@Z 004dd700 f   ToolkitPro1501vc60S:XTPSystemHelpers.obj
 0001:000dc750       ?GetWorkArea@CXTPMultiMonitor@@QAE?AVCRect@@PAUHWND__@@@Z 004dd750 f   ToolkitPro1501vc60S:XTPSystemHelpers.obj
 0001:000dc7a0       ?GetWorkArea@CXTPMultiMonitor@@QAE?AVCRect@@ABUtagPOINT@@@Z 004dd7a0 f   ToolkitPro1501vc60S:XTPSystemHelpers.obj
 0001:000dc800       ?GetWorkArea@CXTPMultiMonitor@@QAE?AVCRect@@PBUtagRECT@@@Z 004dd800 f   ToolkitPro1501vc60S:XTPSystemHelpers.obj
 0001:000dc850       ?GetWorkArea@CXTPMultiMonitor@@QAE?AVCRect@@PBVCWnd@@@Z 004dd850 f   ToolkitPro1501vc60S:XTPSystemHelpers.obj
 0001:000dc890       ?GetWorkArea@CXTPMultiMonitor@@QAE?AVCRect@@XZ 004dd890 f   ToolkitPro1501vc60S:XTPSystemHelpers.obj
 0001:000dc8e0       ??0CXTPModuleHandle@@QAE@XZ 004dd8e0 f   ToolkitPro1501vc60S:XTPSystemHelpers.obj
 0001:000dc910       ??_GCXTPModuleHandle@@UAEPAXI@Z 004dd910 f i ToolkitPro1501vc60S:XTPSystemHelpers.obj
 0001:000dc910       ??_ECXTPModuleHandle@@UAEPAXI@Z 004dd910 f i ToolkitPro1501vc60S:XTPSystemHelpers.obj
 0001:000dc930       ??0CXTPModuleHandle@@QAE@PBD@Z 004dd930 f   ToolkitPro1501vc60S:XTPSystemHelpers.obj
 0001:000dc9a0       ??1CXTPModuleHandle@@UAE@XZ 004dd9a0 f   ToolkitPro1501vc60S:XTPSystemHelpers.obj
 0001:000dc9f0       ?Init@CXTPModuleHandle@@QAEHPBD@Z 004dd9f0 f   ToolkitPro1501vc60S:XTPSystemHelpers.obj
 0001:000dca20       ?GetModuleHandleA@CXTPModuleHandle@@QAEHPBD@Z 004dda20 f   ToolkitPro1501vc60S:XTPSystemHelpers.obj
 0001:000dca60       ?LoadLibraryA@CXTPModuleHandle@@QAEHPBD@Z 004dda60 f   ToolkitPro1501vc60S:XTPSystemHelpers.obj
 0001:000dcaa0       ?FreeLibrary@CXTPModuleHandle@@QAEHXZ 004ddaa0 f   ToolkitPro1501vc60S:XTPSystemHelpers.obj
 0001:000dcae0       ?GetVersionInfo@CXTPModuleHandle@@AAEHXZ 004ddae0 f   ToolkitPro1501vc60S:XTPSystemHelpers.obj
 0001:000dcb10       ?GetVersion@CXTPModuleHandle@@QAEKXZ 004ddb10 f   ToolkitPro1501vc60S:XTPSystemHelpers.obj
 0001:000dcb40       ?GetProcAddress@CXTPModuleHandle@@QAEHPAP6GHXZPBDK@Z 004ddb40 f   ToolkitPro1501vc60S:XTPSystemHelpers.obj
 0001:000dcbb0       ??0CXTPLockGuard@@QAE@AAU_RTL_CRITICAL_SECTION@@@Z 004ddbb0 f   ToolkitPro1501vc60S:XTPSystemHelpers.obj
 0001:000dcbd0       ??1CXTPLockGuard@@QAE@XZ   004ddbd0 f   ToolkitPro1501vc60S:XTPSystemHelpers.obj
 0001:000dcbe0       ?LockThread@CXTPLockGuard@@QAEXXZ 004ddbe0 f   ToolkitPro1501vc60S:XTPSystemHelpers.obj
 0001:000dcbf0       ?UnLockThread@CXTPLockGuard@@QAEXXZ 004ddbf0 f   ToolkitPro1501vc60S:XTPSystemHelpers.obj
 0001:000dcc00       ??0CXTPAccessible@@QAE@XZ  004ddc00 f   ToolkitPro1501vc60S:XTPSystemHelpers.obj
 0001:000dcc30       ??_GCXTPAccessible@@UAEPAXI@Z 004ddc30 f i ToolkitPro1501vc60S:XTPSystemHelpers.obj
 0001:000dcc30       ??_ECXTPAccessible@@UAEPAXI@Z 004ddc30 f i ToolkitPro1501vc60S:XTPSystemHelpers.obj
 0001:000dcc50       ??1CXTPAccessible@@UAE@XZ  004ddc50 f   ToolkitPro1501vc60S:XTPSystemHelpers.obj
 0001:000dcc70       ?AccessibleNotifyWinEvent@CXTPAccessible@@QAEXKPAUHWND__@@JJ@Z 004ddc70 f   ToolkitPro1501vc60S:XTPSystemHelpers.obj
 0001:000dcce0       ?AccessibleObjectFromWindow@CXTPAccessible@@IAEJPAUHWND__@@KABU_GUID@@PAPAX@Z 004ddce0 f   ToolkitPro1501vc60S:XTPSystemHelpers.obj
 0001:000dcd70       ?LresultFromObject@CXTPAccessible@@IAEJABU_GUID@@IPAUIUnknown@@@Z 004ddd70 f   ToolkitPro1501vc60S:XTPSystemHelpers.obj
 0001:000dce00       ?GetChildIndex@CXTPAccessible@@IAEJPAUtagVARIANT@@@Z 004dde00 f   ToolkitPro1501vc60S:XTPSystemHelpers.obj
 0001:000dce70       ?AddRef@XAccessible@CXTPAccessible@@UAGKXZ 004dde70 f   ToolkitPro1501vc60S:XTPSystemHelpers.obj
 0001:000dce90       ?Release@XAccessible@CXTPAccessible@@UAGKXZ 004dde90 f   ToolkitPro1501vc60S:XTPSystemHelpers.obj
 0001:000dceb0       ?QueryInterface@XAccessible@CXTPAccessible@@UAGJABU_GUID@@PAPAX@Z 004ddeb0 f   ToolkitPro1501vc60S:XTPSystemHelpers.obj
 0001:000dcee0       ?ResizeBorder@XDocHostUIHandler@CHTMLToolTip@CXTPToolTipContext@@UAGJPBUtagRECT@@PAUIOleInPlaceUIWindow@@H@Z 004ddee0 f   ToolkitPro1501vc60S:XTPSystemHelpers.obj
 0001:000dcee0       ?TranslateUrl@XDocHostUIHandler@CHTMLToolTip@CXTPToolTipContext@@UAGJKPAGPAPAG@Z 004ddee0 f   ToolkitPro1501vc60S:XTPSystemHelpers.obj
 0001:000dcee0       ?AccessibleDoDefaultAction@CXTPAccessible@@UAEJUtagVARIANT@@@Z 004ddee0 f   ToolkitPro1501vc60S:XTPSystemHelpers.obj
 0001:000dcee0       ?GetTypeInfo@XAccessible@CXTPAccessible@@UAGJIKPAPAUITypeInfo@@@Z 004ddee0 f   ToolkitPro1501vc60S:XTPSystemHelpers.obj
 0001:000dcef0       ?get_accParent@XAccessible@CXTPAccessible@@UAGJPAPAUIDispatch@@@Z 004ddef0 f   ToolkitPro1501vc60S:XTPSystemHelpers.obj
 0001:000dcf10       ?get_accChildCount@XAccessible@CXTPAccessible@@UAGJPAJ@Z 004ddf10 f   ToolkitPro1501vc60S:XTPSystemHelpers.obj
 0001:000dcf30       ?get_accChild@XAccessible@CXTPAccessible@@UAGJUtagVARIANT@@PAPAUIDispatch@@@Z 004ddf30 f   ToolkitPro1501vc60S:XTPSystemHelpers.obj
 0001:000dcf70       ?get_accName@XAccessible@CXTPAccessible@@UAGJUtagVARIANT@@PAPAG@Z 004ddf70 f   ToolkitPro1501vc60S:XTPSystemHelpers.obj
 0001:000dcfb0       ?get_accValue@XAccessible@CXTPAccessible@@UAGJUtagVARIANT@@PAPAG@Z 004ddfb0 f   ToolkitPro1501vc60S:XTPSystemHelpers.obj
 0001:000dcff0       ?get_accDescription@XAccessible@CXTPAccessible@@UAGJUtagVARIANT@@PAPAG@Z 004ddff0 f   ToolkitPro1501vc60S:XTPSystemHelpers.obj
 0001:000dd030       ?get_accRole@XAccessible@CXTPAccessible@@UAGJUtagVARIANT@@PAU3@@Z 004de030 f   ToolkitPro1501vc60S:XTPSystemHelpers.obj
 0001:000dd070       ?get_accState@XAccessible@CXTPAccessible@@UAGJUtagVARIANT@@PAU3@@Z 004de070 f   ToolkitPro1501vc60S:XTPSystemHelpers.obj
 0001:000dd0b0       ?get_accHelp@XAccessible@CXTPAccessible@@UAGJUtagVARIANT@@PAPAG@Z 004de0b0 f   ToolkitPro1501vc60S:XTPSystemHelpers.obj
 0001:000dd0f0       ?get_accHelpTopic@XAccessible@CXTPAccessible@@UAGJPAPAGUtagVARIANT@@PAJ@Z 004de0f0 f   ToolkitPro1501vc60S:XTPSystemHelpers.obj
 0001:000dd130       ?get_accKeyboardShortcut@XAccessible@CXTPAccessible@@UAGJUtagVARIANT@@PAPAG@Z 004de130 f   ToolkitPro1501vc60S:XTPSystemHelpers.obj
 0001:000dd170       ?get_accFocus@XAccessible@CXTPAccessible@@UAGJPAUtagVARIANT@@@Z 004de170 f   ToolkitPro1501vc60S:XTPSystemHelpers.obj
 0001:000dd190       ?get_accSelection@XAccessible@CXTPAccessible@@UAGJPAUtagVARIANT@@@Z 004de190 f   ToolkitPro1501vc60S:XTPSystemHelpers.obj
 0001:000dd1b0       ?get_accDefaultAction@XAccessible@CXTPAccessible@@UAGJUtagVARIANT@@PAPAG@Z 004de1b0 f   ToolkitPro1501vc60S:XTPSystemHelpers.obj
 0001:000dd1f0       ?accSelect@XAccessible@CXTPAccessible@@UAGJJUtagVARIANT@@@Z 004de1f0 f   ToolkitPro1501vc60S:XTPSystemHelpers.obj
 0001:000dd230       ?accLocation@XAccessible@CXTPAccessible@@UAGJPAJ000UtagVARIANT@@@Z 004de230 f   ToolkitPro1501vc60S:XTPSystemHelpers.obj
 0001:000dd280       ?accNavigate@XAccessible@CXTPAccessible@@UAGJJUtagVARIANT@@PAU3@@Z 004de280 f   ToolkitPro1501vc60S:XTPSystemHelpers.obj
 0001:000dd2c0       ?accHitTest@XAccessible@CXTPAccessible@@UAGJJJPAUtagVARIANT@@@Z 004de2c0 f   ToolkitPro1501vc60S:XTPSystemHelpers.obj
 0001:000dd2e0       ?accDoDefaultAction@XAccessible@CXTPAccessible@@UAGJUtagVARIANT@@@Z 004de2e0 f   ToolkitPro1501vc60S:XTPSystemHelpers.obj
 0001:000dd320       ?put_accName@XAccessible@CXTPAccessible@@UAGJUtagVARIANT@@PAG@Z 004de320 f   ToolkitPro1501vc60S:XTPSystemHelpers.obj
 0001:000dd360       ?put_accValue@XAccessible@CXTPAccessible@@UAGJUtagVARIANT@@PAG@Z 004de360 f   ToolkitPro1501vc60S:XTPSystemHelpers.obj
 0001:000dd3a0       ?Invoke@XAccessible@CXTPAccessible@@UAGJJABU_GUID@@KGPAUtagDISPPARAMS@@PAUtagVARIANT@@PAUtagEXCEPINFO@@PAI@Z 004de3a0 f   ToolkitPro1501vc60S:XTPSystemHelpers.obj
 0001:000dd3b0       ?GetAccessibleChildCount@CXTPAccessible@@UAEJPAJ@Z 004de3b0 f   ToolkitPro1501vc60S:XTPSystemHelpers.obj
 0001:000dd3b0       ?TxGetExtent@XTextHost@CXTPRichRender@@UAEJPAUtagSIZE@@@Z 004de3b0 f   ToolkitPro1501vc60S:XTPSystemHelpers.obj
 0001:000dd3b0       ?GetAccessibleParent@CXTPAccessible@@UAEJPAPAUIDispatch@@@Z 004de3b0 f   ToolkitPro1501vc60S:XTPSystemHelpers.obj
 0001:000dd3c0       ?AccessibleSelect@CXTPAccessible@@UAEJJUtagVARIANT@@@Z 004de3c0 f   ToolkitPro1501vc60S:XTPSystemHelpers.obj
 0001:000dd3c0       ?GetAccessibleName@CXTPAccessible@@UAEJUtagVARIANT@@PAPAG@Z 004de3c0 f   ToolkitPro1501vc60S:XTPSystemHelpers.obj
 0001:000dd3c0       ?GetAccessibleHelp@CXTPAccessible@@UAEJUtagVARIANT@@PAPAG@Z 004de3c0 f   ToolkitPro1501vc60S:XTPSystemHelpers.obj
 0001:000dd3c0       ?PutAccessibleValue@CXTPAccessible@@UAEJUtagVARIANT@@PAG@Z 004de3c0 f   ToolkitPro1501vc60S:XTPSystemHelpers.obj
 0001:000dd3c0       ?GetAccessibleChild@CXTPAccessible@@UAEJUtagVARIANT@@PAPAUIDispatch@@@Z 004de3c0 f   ToolkitPro1501vc60S:XTPSystemHelpers.obj
 0001:000dd3c0       ?PutAccessibleName@CXTPAccessible@@UAEJUtagVARIANT@@PAG@Z 004de3c0 f   ToolkitPro1501vc60S:XTPSystemHelpers.obj
 0001:000dd3c0       ?GetAccessibleState@CXTPAccessible@@UAEJUtagVARIANT@@PAU2@@Z 004de3c0 f   ToolkitPro1501vc60S:XTPSystemHelpers.obj
 0001:000dd3c0       ?GetAccessibleValue@CXTPAccessible@@UAEJUtagVARIANT@@PAPAG@Z 004de3c0 f   ToolkitPro1501vc60S:XTPSystemHelpers.obj
 0001:000dd3c0       ?GetAccessibleDefaultAction@CXTPAccessible@@UAEJUtagVARIANT@@PAPAG@Z 004de3c0 f   ToolkitPro1501vc60S:XTPSystemHelpers.obj
 0001:000dd3c0       ?GetAccessibleKeyboardShortcut@CXTPAccessible@@UAEJUtagVARIANT@@PAPAG@Z 004de3c0 f   ToolkitPro1501vc60S:XTPSystemHelpers.obj
 0001:000dd3c0       ?GetAccessibleRole@CXTPAccessible@@UAEJUtagVARIANT@@PAU2@@Z 004de3c0 f   ToolkitPro1501vc60S:XTPSystemHelpers.obj
 0001:000dd3c0       ?GetAccessibleDescription@CXTPAccessible@@UAEJUtagVARIANT@@PAPAG@Z 004de3c0 f   ToolkitPro1501vc60S:XTPSystemHelpers.obj
 0001:000dd3d0       ?GetAccessibleHelpTopic@CXTPAccessible@@UAEJPAPAGUtagVARIANT@@PAJ@Z 004de3d0 f   ToolkitPro1501vc60S:XTPSystemHelpers.obj
 0001:000dd3d0       ?GetIDsOfNames@XAccessible@CXTPAccessible@@UAGJABU_GUID@@PAPAGIKPAJ@Z 004de3d0 f   ToolkitPro1501vc60S:XTPSystemHelpers.obj
 0001:000dd3d0       ?AccessibleNavigate@CXTPAccessible@@UAEJJUtagVARIANT@@PAU2@@Z 004de3d0 f   ToolkitPro1501vc60S:XTPSystemHelpers.obj
 0001:000dd3e0       ?AccessibleLocation@CXTPAccessible@@UAEJPAJ000UtagVARIANT@@@Z 004de3e0 f   ToolkitPro1501vc60S:XTPSystemHelpers.obj
 0001:000dd3f0       ??0CXTPSoundManager@@AAE@XZ 004de3f0 f   ToolkitPro1501vc60S:XTPSystemHelpers.obj
 0001:000dd420       ?XTPSoundManager@@YAPAVCXTPSoundManager@@XZ 004de420 f   ToolkitPro1501vc60S:XTPSystemHelpers.obj
 0001:000dd470       ??1CXTPSoundManager@@QAE@XZ 004de470 f   ToolkitPro1501vc60S:XTPSystemHelpers.obj
 0001:000dd490       ?SoundThreadProc@CXTPSoundManager@@CGKPAX@Z 004de490 f   ToolkitPro1501vc60S:XTPSystemHelpers.obj
 0001:000dd510       ?StartThread@CXTPSoundManager@@AAEXXZ 004de510 f   ToolkitPro1501vc60S:XTPSystemHelpers.obj
 0001:000dd560       ?StopThread@CXTPSoundManager@@QAEXXZ 004de560 f   ToolkitPro1501vc60S:XTPSystemHelpers.obj
 0001:000dd5f0       ?PlaySystemSound@CXTPSoundManager@@QAEXW4XTPSoundManagerState@@@Z 004de5f0 f   ToolkitPro1501vc60S:XTPSystemHelpers.obj
 0001:000dd620       ??0CXTPZipMemFile@@QAE@XZ  004de620 f   ToolkitPro1501vc60S:XTPSystemHelpers.obj
 0001:000dd640       ??_ECXTPZipMemFile@@UAEPAXI@Z 004de640 f i ToolkitPro1501vc60S:XTPSystemHelpers.obj
 0001:000dd640       ??_GCXTPZipMemFile@@UAEPAXI@Z 004de640 f i ToolkitPro1501vc60S:XTPSystemHelpers.obj
 0001:000dd660       ??0CXTPZipMemFile@@QAE@PAEI@Z 004de660 f   ToolkitPro1501vc60S:XTPSystemHelpers.obj
 0001:000dd6c0       ??1CXTPZipMemFile@@UAE@XZ  004de6c0 f   ToolkitPro1501vc60S:XTPSystemHelpers.obj
 0001:000dd6d0       ?AttachCompressedBuffer@CXTPZipMemFile@@QAEXPAEIH@Z 004de6d0 f   ToolkitPro1501vc60S:XTPSystemHelpers.obj
 0001:000dd760       ?OpenCompressedFile@CXTPZipMemFile@@QAEHPBD@Z 004de760 f   ToolkitPro1501vc60S:XTPSystemHelpers.obj
 0001:000dd830       ?DetachCompressedBuffer@CXTPZipMemFile@@QAEXAAPAEAAK@Z 004de830 f   ToolkitPro1501vc60S:XTPSystemHelpers.obj
 0001:000dd8c0       ?GetRuntimeClass@CXTPButton@@UBEPAUCRuntimeClass@@XZ 004de8c0 f   ToolkitPro1501vc60S:XTPButton.obj
 0001:000dd8d0       ??0CXTPButton@@QAE@XZ      004de8d0 f   ToolkitPro1501vc60S:XTPButton.obj
 0001:000dd9b0       ?GetMenuID@CXTPTabExBase@@UAEIXZ 004de9b0 f i ToolkitPro1501vc60S:XTPButton.obj
 0001:000dd9b0       ?IsPushed@CXTPButton@@UAEHXZ 004de9b0 f i ToolkitPro1501vc60S:XTPButton.obj
 0001:000dd9c0       ?IsHighlighted@CXTPButton@@UAEHXZ 004de9c0 f i ToolkitPro1501vc60S:XTPButton.obj
 0001:000dd9e0       ?GetImageAlignment@CXTPButton@@UBEHXZ 004de9e0 f i ToolkitPro1501vc60S:XTPButton.obj
 0001:000dd9f0       ??_ECXTPButton@@UAEPAXI@Z  004de9f0 f i ToolkitPro1501vc60S:XTPButton.obj
 0001:000dd9f0       ??_GCXTPButton@@UAEPAXI@Z  004de9f0 f i ToolkitPro1501vc60S:XTPButton.obj
 0001:000dda10       ??1CXTPButton@@UAE@XZ      004dea10 f   ToolkitPro1501vc60S:XTPButton.obj
 0001:000ddac0       ?GetMessageMap@CXTPButton@@MBEPBUAFX_MSGMAP@@XZ 004deac0 f   ToolkitPro1501vc60S:XTPButton.obj
 0001:000ddad0       ?OnMouseMove@CXTPButton@@IAEXIVCPoint@@@Z 004dead0 f   ToolkitPro1501vc60S:XTPButton.obj
 0001:000ddb80       ?OnMouseLeave@CXTPButton@@IAEXXZ 004deb80 f   ToolkitPro1501vc60S:XTPButton.obj
 0001:000ddb90       ?OnLButtonDown@CXTPButton@@IAEXIVCPoint@@@Z 004deb90 f   ToolkitPro1501vc60S:XTPButton.obj
 0001:000ddc10       ?OnSetState@CXTPButton@@IAEJIJ@Z 004dec10 f   ToolkitPro1501vc60S:XTPButton.obj
 0001:000ddcc0       ?GetButtonRect@CXTPButton@@UAE?AVCRect@@XZ 004decc0 f   ToolkitPro1501vc60S:XTPButton.obj
 0001:000ddd30       ?DoDropDown@CXTPButton@@IAEXXZ 004ded30 f   ToolkitPro1501vc60S:XTPButton.obj
 0001:000ddd80       ?OnChar@CXTPButton@@IAEXIII@Z 004ded80 f   ToolkitPro1501vc60S:XTPButton.obj
 0001:000dddd0       ?OnGetDlgCode@CXTPButton@@IAEJIJ@Z 004dedd0 f   ToolkitPro1501vc60S:XTPButton.obj
 0001:000dde40       ?OnKeyDown@CXTPButton@@IAEXIII@Z 004dee40 f   ToolkitPro1501vc60S:XTPButton.obj
 0001:000dde90       ?OnDropDown@CXTPButton@@MAEXXZ 004dee90 f   ToolkitPro1501vc60S:XTPButton.obj
 0001:000ddee0       ?OnSetFocus@CXTPButton@@IAEXPAVCWnd@@@Z 004deee0 f   ToolkitPro1501vc60S:XTPButton.obj
 0001:000ddee0       ?OnKillFocus@CXTPButton@@IAEXPAVCWnd@@@Z 004deee0 f   ToolkitPro1501vc60S:XTPButton.obj
 0001:000ddf10       ?OnDefaultAndInvalidate@CXTPButton@@IAEJIJ@Z 004def10 f   ToolkitPro1501vc60S:XTPButton.obj
 0001:000ddf50       ?OnInvalidate@CXTPButton@@IAEXXZ 004def50 f   ToolkitPro1501vc60S:XTPButton.obj
 0001:000ddf80       ?OnPrintClient@CXTPButton@@IAEJIJ@Z 004def80 f   ToolkitPro1501vc60S:XTPButton.obj
 0001:000ddfc0       ?OnPaint@CXTPButton@@IAEXXZ 004defc0 f   ToolkitPro1501vc60S:XTPButton.obj
 0001:000de020       ?OnDraw@CXTPButton@@MAEXPAVCDC@@@Z 004df020 f   ToolkitPro1501vc60S:XTPButton.obj
 0001:000de1c0       ?DrawButton@CXTPButtonTheme@@UAEXPAVCDC@@PAVCXTPButton@@@Z 004df1c0 f   ToolkitPro1501vc60S:XTPButton.obj
 0001:000de2e0       ?DoDraw@CXTPButton@@MAEXPAVCDC@@@Z 004df2e0 f   ToolkitPro1501vc60S:XTPButton.obj
 0001:000de350       ?OnUpdateUIState@CXTPButton@@IAEJIJ@Z 004df350 f   ToolkitPro1501vc60S:XTPButton.obj
 0001:000de390       ?OnSetText@CXTPButton@@IAEJIJ@Z 004df390 f   ToolkitPro1501vc60S:XTPButton.obj
 0001:000de410       ?GetButtonTextColor@CXTPButton@@UAEKXZ 004df410 f   ToolkitPro1501vc60S:XTPButton.obj
 0001:000de420       ?GetButtonBackColor@CXTPButton@@UAEKXZ 004df420 f   ToolkitPro1501vc60S:XTPButton.obj
 0001:000de430       ?GetButtonStyle@CXTPButton@@QBEEXZ 004df430 f   ToolkitPro1501vc60S:XTPButton.obj
 0001:000de440       ?GetImageSize@CXTPButton@@UAE?AVCSize@@XZ 004df440 f   ToolkitPro1501vc60S:XTPButton.obj
 0001:000de480       ?DrawImage@CXTPButton@@UAEXPAVCDC@@VCRect@@@Z 004df480 f   ToolkitPro1501vc60S:XTPButton.obj
 0001:000de5b0       ?OnWndMsg@CXTPButton@@MAEHIIJPAJ@Z 004df5b0 f   ToolkitPro1501vc60S:XTPButton.obj
 0001:000de630       ?GetTextAlignment@CXTPButton@@UBEHXZ 004df630 f   ToolkitPro1501vc60S:XTPButton.obj
 0001:000de690       ?GetGlyphSize@CXTPButton@@QAE?AVCSize@@H@Z 004df690 f   ToolkitPro1501vc60S:XTPButton.obj
 0001:000de730       ?InternalTextChanged@CXTPButton@@MAEXXZ 004df730 f   ToolkitPro1501vc60S:XTPButton.obj
 0001:000de7b0       ?GetButtonText@CXTPButton@@UAE?AVCString@@XZ 004df7b0 f   ToolkitPro1501vc60S:XTPButton.obj
 0001:000de830       ?IsPushButton@CXTPButton@@QBEHXZ 004df830 f   ToolkitPro1501vc60S:XTPButton.obj
 0001:000de870       ?OnSetTheme@CXTPButton@@IAEJIJ@Z 004df870 f   ToolkitPro1501vc60S:XTPButton.obj
 0001:000de890       ?RefreshMetrics@CXTPButton@@MAEXXZ 004df890 f   ToolkitPro1501vc60S:XTPButton.obj
 0001:000de8d0       ?SetTheme@CXTPButton@@UAEHW4XTPControlTheme@@@Z 004df8d0 f   ToolkitPro1501vc60S:XTPButton.obj
 0001:000dea90       ?GetChecked@CXTPButton@@UAEHXZ 004dfa90 f   ToolkitPro1501vc60S:XTPButton.obj
 0001:000deac0       ?SetIcon@CXTPButton@@UAEHVCSize@@IIH@Z 004dfac0 f   ToolkitPro1501vc60S:XTPButton.obj
 0001:000deaf0       ?SetIcon@CXTPButton@@UAEHVCSize@@PBD1H@Z 004dfaf0 f   ToolkitPro1501vc60S:XTPButton.obj
 0001:000debf0       ?SetIcon@CXTPButton@@QAEHVCSize@@PAVCXTPImageManagerIcon@@H@Z 004dfbf0 f   ToolkitPro1501vc60S:XTPButton.obj
 0001:000dec30       ?SetIcon@CXTPButton@@UAEHVCSize@@ABVCXTPImageManagerIconHandle@@1H@Z 004dfc30 f   ToolkitPro1501vc60S:XTPButton.obj
 0001:000ded00       ?SetIcon@CXTPButton@@UAEHVCSize@@PAUHICON__@@1H@Z 004dfd00 f   ToolkitPro1501vc60S:XTPButton.obj
 0001:000deda0       ?SetBitmap@CXTPButton@@UAEHVCSize@@IH@Z 004dfda0 f   ToolkitPro1501vc60S:XTPButton.obj
 0001:000def20       ?OnToolHitTest@CXTPButton@@MBEHVCPoint@@PAUtagTOOLINFOA@@@Z 004dff20 f   ToolkitPro1501vc60S:XTPButton.obj
 0001:000df050       ?GetTooltip@CXTPButton@@QBE?AVCString@@XZ 004e0050 f i ToolkitPro1501vc60S:XTPButton.obj
 0001:000df080       ?OnPaint@CXTPTabCtrlBase@@IAEXXZ 004e0080 f i ToolkitPro1501vc60S:XTPTabCtrl.obj
 0001:000df090       ?OnEraseBkgnd@CXTPListCtrlBase@@IAEHPAVCDC@@@Z 004e0090 f i ToolkitPro1501vc60S:XTPTabCtrl.obj
 0001:000df090       ?OnEraseBkgnd@CXTPTabCtrlBase@@IAEHPAVCDC@@@Z 004e0090 f i ToolkitPro1501vc60S:XTPTabCtrl.obj
 0001:000df0a0       ?OnSettingChange@CXTPTabCtrlBase@@IAEXIPBD@Z 004e00a0 f i ToolkitPro1501vc60S:XTPTabCtrl.obj
 0001:000df0d0       ?OnSysColorChange@CXTPTabCtrlBase@@IAEXXZ 004e00d0 f i ToolkitPro1501vc60S:XTPTabCtrl.obj
 0001:000df0f0       ?OnCreate@CXTPTabCtrlBase@@IAEHPAUtagCREATESTRUCTA@@@Z 004e00f0 f i ToolkitPro1501vc60S:XTPTabCtrl.obj
 0001:000df120       ?OnRButtonDown@CXTPTabCtrlBase@@IAEXIVCPoint@@@Z 004e0120 f i ToolkitPro1501vc60S:XTPTabCtrl.obj
 0001:000df140       ?OnDestroy@CXTPTabCtrlBase@@IAEXXZ 004e0140 f i ToolkitPro1501vc60S:XTPTabCtrl.obj
 0001:000df160       ?OnSelchange@CXTPTabCtrlBase@@IAEHPAUtagNMHDR@@PAJ@Z 004e0160 f i ToolkitPro1501vc60S:XTPTabCtrl.obj
 0001:000df180       ?OnSelchanging@CXTPTabCtrlBase@@IAEHPAUtagNMHDR@@PAJ@Z 004e0180 f i ToolkitPro1501vc60S:XTPTabCtrl.obj
 0001:000df1a0       ?OnWindowPosChanged@CXTPTabCtrlBase@@IAEXPAUtagWINDOWPOS@@@Z 004e01a0 f i ToolkitPro1501vc60S:XTPTabCtrl.obj
 0001:000df1d0       ?OnSetTheme@CXTPTabCtrlBase@@IAEJIJ@Z 004e01d0 f i ToolkitPro1501vc60S:XTPTabCtrl.obj
 0001:000df1f0       ?GetRuntimeClass@CXTPTabCtrl@@UBEPAUCRuntimeClass@@XZ 004e01f0 f   ToolkitPro1501vc60S:XTPTabCtrl.obj
 0001:000df200       ?GetMessageMap@CXTPTabCtrl@@MBEPBUAFX_MSGMAP@@XZ 004e0200 f   ToolkitPro1501vc60S:XTPTabCtrl.obj
 0001:000df210       ??0CXTPTabCtrl@@QAE@XZ     004e0210 f   ToolkitPro1501vc60S:XTPTabCtrl.obj
 0001:000df280       ?GetActiveView@CXTPTabExBase@@UAEPAVCWnd@@XZ 004e0280 f i ToolkitPro1501vc60S:XTPTabCtrl.obj
 0001:000df2b0       ?SetMenuID@CXTPTabExBase@@UAEXIH@Z 004e02b0 f i ToolkitPro1501vc60S:XTPTabCtrl.obj
 0001:000df2d0       ?SendInitialUpdate@CXTPTabExBase@@UAEXH@Z 004e02d0 f i ToolkitPro1501vc60S:XTPTabCtrl.obj
 0001:000df2e0       ?PreSubclassWindow@CXTPTabCtrlBase@@MAEXXZ 004e02e0 f i ToolkitPro1501vc60S:XTPTabCtrl.obj
 0001:000df300       ?PreCreateWindow@CXTPTabCtrlBase@@MAEHAAUtagCREATESTRUCTA@@@Z 004e0300 f i ToolkitPro1501vc60S:XTPTabCtrl.obj
 0001:000df330       ?OnCmdMsg@CXTPTabCtrlBase@@MAEHIHPAXPAUAFX_CMDHANDLERINFO@@@Z 004e0330 f i ToolkitPro1501vc60S:XTPTabCtrl.obj
 0001:000df380       ?PreTranslateMessage@CXTPTabCtrlBase@@MAEHPAUtagMSG@@@Z 004e0380 f i ToolkitPro1501vc60S:XTPTabCtrl.obj
 0001:000df3b0       ??_GCXTPTabCtrl@@UAEPAXI@Z 004e03b0 f i ToolkitPro1501vc60S:XTPTabCtrl.obj
 0001:000df3b0       ??_ECXTPTabCtrl@@UAEPAXI@Z 004e03b0 f i ToolkitPro1501vc60S:XTPTabCtrl.obj
 0001:000df3d0       ??1CXTPTabCtrlBase@@UAE@XZ 004e03d0 f i ToolkitPro1501vc60S:XTPTabCtrl.obj
 0001:000df420       ??1CXTPTabCtrl@@UAE@XZ     004e0420 f   ToolkitPro1501vc60S:XTPTabCtrl.obj
 0001:000df480       ?EnableToolTips@CXTPTabCtrl@@UAEHH@Z 004e0480 f   ToolkitPro1501vc60S:XTPTabCtrl.obj
 0001:000df490       ??_ECXTPTabCtrl@@WDM@AEPAXI@Z 004e0490 f i ToolkitPro1501vc60S:XTPTabCtrl.obj
 0001:000df4a0       ?PreSubclassWindow@CXTPTabCtrlBase@@ODM@AEXXZ 004e04a0 f i ToolkitPro1501vc60S:XTPTabCtrl.obj
 0001:000df4b0       ?PreCreateWindow@CXTPTabCtrlBase@@ODM@AEHAAUtagCREATESTRUCTA@@@Z 004e04b0 f i ToolkitPro1501vc60S:XTPTabCtrl.obj
 0001:000df4c0       ?OnCmdMsg@CXTPTabCtrlBase@@ODM@AEHIHPAXPAUAFX_CMDHANDLERINFO@@@Z 004e04c0 f i ToolkitPro1501vc60S:XTPTabCtrl.obj
 0001:000df4d0       ?PreTranslateMessage@CXTPTabCtrlBase@@ODM@AEHPAUtagMSG@@@Z 004e04d0 f i ToolkitPro1501vc60S:XTPTabCtrl.obj
 0001:000df4e0       ??0CXTPTabBase@@QAE@XZ     004e04e0 f   ToolkitPro1501vc60S:XTPTabBase.obj
 0001:000df510       ??_ECXTPTabBase@@UAEPAXI@Z 004e0510 f i ToolkitPro1501vc60S:XTPTabBase.obj
 0001:000df510       ??_GCXTPTabBase@@UAEPAXI@Z 004e0510 f i ToolkitPro1501vc60S:XTPTabBase.obj
 0001:000df530       ??1CXTPTabBase@@UAE@XZ     004e0530 f   ToolkitPro1501vc60S:XTPTabBase.obj
 0001:000df570       ?OnPaint@CXTPTabBase@@IAEXXZ 004e0570 f   ToolkitPro1501vc60S:XTPTabBase.obj
 0001:000df630       ?RefreshMetrics@CXTPTabBase@@MAEXXZ 004e0630 f   ToolkitPro1501vc60S:XTPTabBase.obj
 0001:000df670       ?SetTheme@CXTPTabBase@@QAEHW4XTPControlTheme@@@Z 004e0670 f   ToolkitPro1501vc60S:XTPTabBase.obj
 0001:000df750       ?OnSetTheme@CXTPTabBase@@IAEJIJ@Z 004e0750 f   ToolkitPro1501vc60S:XTPTabBase.obj
 0001:000df760       ?OnSettingChange@CXTPTabBase@@IAEXIPBD@Z 004e0760 f   ToolkitPro1501vc60S:XTPTabBase.obj
 0001:000df790       ?OnSysColorChange@CXTPTabBase@@IAEXXZ 004e0790 f   ToolkitPro1501vc60S:XTPTabBase.obj
 0001:000df7b0       ?Init@CXTPTabBase@@MAEHXZ  004e07b0 f   ToolkitPro1501vc60S:XTPTabBase.obj
 0001:000df810       ?PreSubclassWindow@CXTPTabBase@@MAEXXZ 004e0810 f   ToolkitPro1501vc60S:XTPTabBase.obj
 0001:000df820       ?PreCreateWindow@CXTPTabBase@@MAEHAAUtagCREATESTRUCTA@@@Z 004e0820 f   ToolkitPro1501vc60S:XTPTabBase.obj
 0001:000df830       ?OnCreate@CXTPTabBase@@IAEHPAUtagCREATESTRUCTA@@@Z 004e0830 f   ToolkitPro1501vc60S:XTPTabBase.obj
 0001:000df840       ?ImplAttach@CXTPTabBase@@IAEXPAVCTabCtrl@@@Z 004e0840 f   ToolkitPro1501vc60S:XTPTabBase.obj
 0001:000df8b0       ?OnAddPadding@CXTPTabBase@@MAEXAAVCString@@@Z 004e08b0 f   ToolkitPro1501vc60S:XTPTabBase.obj
 0001:000dfa00       ?GetChildRect@CXTPTabBase@@UBEXAAVCRect@@@Z 004e0a00 f   ToolkitPro1501vc60S:XTPTabBase.obj
 0001:000dfb80       ??0CXTPTabExBase@@QAE@XZ   004e0b80 f   ToolkitPro1501vc60S:XTPTabBase.obj
 0001:000dfc30       ??_ECXTPTabExBase@@UAEPAXI@Z 004e0c30 f i ToolkitPro1501vc60S:XTPTabBase.obj
 0001:000dfc30       ??_GCXTPTabExBase@@UAEPAXI@Z 004e0c30 f i ToolkitPro1501vc60S:XTPTabBase.obj
 0001:000dfc50       ??1CXTPTabExBase@@UAE@XZ   004e0c50 f   ToolkitPro1501vc60S:XTPTabBase.obj
 0001:000dfce0       ?OnThemeChanged@CXTPTabExBase@@MAEXXZ 004e0ce0 f   ToolkitPro1501vc60S:XTPTabBase.obj
 0001:000dfd10       ?Init@CXTPTabExBase@@MAEHXZ 004e0d10 f   ToolkitPro1501vc60S:XTPTabBase.obj
 0001:000dfdd0       ?OnCmdMsg@CXTPTabExBase@@MAEHIHPAXPAUAFX_CMDHANDLERINFO@@@Z 004e0dd0 f   ToolkitPro1501vc60S:XTPTabBase.obj
 0001:000dfe20       ?PreTranslateMessage@CXTPTabExBase@@MAEHPAUtagMSG@@@Z 004e0e20 f   ToolkitPro1501vc60S:XTPTabBase.obj
 0001:000dfea0       ?OnRButtonDown@CXTPTabExBase@@IAEXIVCPoint@@@Z 004e0ea0 f   ToolkitPro1501vc60S:XTPTabBase.obj
 0001:000dffa0       ?OnDestroy@CXTPTabExBase@@IAEXXZ 004e0fa0 f   ToolkitPro1501vc60S:XTPTabBase.obj
 0001:000dffb0       ?OnSelchange@CXTPTabExBase@@IAEHPAUtagNMHDR@@PAJ@Z 004e0fb0 f   ToolkitPro1501vc60S:XTPTabBase.obj
 0001:000e0030       ?OnSelChange@CXTPTabExBase@@MAEXXZ 004e1030 f   ToolkitPro1501vc60S:XTPTabBase.obj
 0001:000e0140       ?OnSelchanging@CXTPTabExBase@@IAEHPAUtagNMHDR@@PAJ@Z 004e1140 f   ToolkitPro1501vc60S:XTPTabBase.obj
 0001:000e01c0       ?OnSelChanging@CXTPTabExBase@@MAEXXZ 004e11c0 f   ToolkitPro1501vc60S:XTPTabBase.obj
 0001:000e01e0       ?OnPreWindowPosChanged@CXTPTabExBase@@MAEXPAUtagWINDOWPOS@@@Z 004e11e0 f   ToolkitPro1501vc60S:XTPTabBase.obj
 0001:000e0260       ?OnPostWindowPosChanged@CXTPTabExBase@@MAEXXZ 004e1260 f   ToolkitPro1501vc60S:XTPTabBase.obj
 0001:000e0270       ?ModifyTabStyle@CXTPTabExBase@@UAEHKKI@Z 004e1270 f   ToolkitPro1501vc60S:XTPTabBase.obj
 0001:000e02b0       ?GetTips@CXTPTabExBase@@UAEPAVCToolTipCtrl@@XZ 004e12b0 f   ToolkitPro1501vc60S:XTPTabBase.obj
 0001:000e02d0       ?SetTips@CXTPTabExBase@@UAEXPAVCToolTipCtrl@@@Z 004e12d0 f   ToolkitPro1501vc60S:XTPTabBase.obj
 0001:000e0300       ?AddToolTip@CXTPTabExBase@@UAEXIPBD@Z 004e1300 f   ToolkitPro1501vc60S:XTPTabBase.obj
 0001:000e0360       ?UpdateToolTip@CXTPTabExBase@@UAEXHPBD@Z 004e1360 f   ToolkitPro1501vc60S:XTPTabBase.obj
 0001:000e03c0       ?UpdateToolTip@CXTPTabExBase@@UAEXPAUCRuntimeClass@@PBD@Z 004e13c0 f   ToolkitPro1501vc60S:XTPTabBase.obj
 0001:000e0410       ?ResetToolTips@CXTPTabExBase@@UAEXXZ 004e1410 f   ToolkitPro1501vc60S:XTPTabBase.obj
 0001:000e0450       ?EnableToolTipsEx@CXTPTabExBase@@UAEHH@Z 004e1450 f   ToolkitPro1501vc60S:XTPTabBase.obj
 0001:000e0480       ?CreateTabView@CXTPTabExBase@@MAEPAVCWnd@@PAUCRuntimeClass@@PAVCDocument@@PAUCCreateContext@@@Z 004e1480 f   ToolkitPro1501vc60S:XTPTabBase.obj
 0001:000e0600       ?AddView@CXTPTabExBase@@UAEHPBDPAUCRuntimeClass@@PAVCDocument@@PAUCCreateContext@@HHJ@Z 004e1600 f   ToolkitPro1501vc60S:XTPTabBase.obj
 0001:000e0660       ?AddView@CXTPTabExBase@@UAEHPBDPAVCView@@HHJ@Z 004e1660 f   ToolkitPro1501vc60S:XTPTabBase.obj
 0001:000e0690       ?AddControl@CXTPTabExBase@@UAEHPBDPAVCWnd@@HHJ@Z 004e1690 f   ToolkitPro1501vc60S:XTPTabBase.obj
 0001:000e0890       ?NextView@CXTPTabExBase@@QAEPAVCWnd@@XZ 004e1890 f   ToolkitPro1501vc60S:XTPTabBase.obj
 0001:000e08e0       ?PrevView@CXTPTabExBase@@QAEPAVCWnd@@XZ 004e18e0 f   ToolkitPro1501vc60S:XTPTabBase.obj
 0001:000e0930       ?GetView@CXTPTabExBase@@UAEPAVCWnd@@H@Z 004e1930 f   ToolkitPro1501vc60S:XTPTabBase.obj
 0001:000e09a0       ?GetView@CXTPTabExBase@@UAEPAVCWnd@@PAUCRuntimeClass@@@Z 004e19a0 f   ToolkitPro1501vc60S:XTPTabBase.obj
 0001:000e0a00       ?ActivateView@CXTPTabExBase@@UAEXPAVCWnd@@@Z 004e1a00 f   ToolkitPro1501vc60S:XTPTabBase.obj
 0001:000e0ae0       ?SetActiveView@CXTPTabExBase@@UAEXPAUCRuntimeClass@@@Z 004e1ae0 f   ToolkitPro1501vc60S:XTPTabBase.obj
 0001:000e0b60       ?SetActiveView@CXTPTabExBase@@UAEXPAVCWnd@@@Z 004e1b60 f   ToolkitPro1501vc60S:XTPTabBase.obj
 0001:000e0bd0       ?SetActiveView@CXTPTabExBase@@UAEXH@Z 004e1bd0 f   ToolkitPro1501vc60S:XTPTabBase.obj
 0001:000e0c30       ?RemoveListItem@CXTPTabExBase@@UAEXPAU__POSITION@@H@Z 004e1c30 f   ToolkitPro1501vc60S:XTPTabBase.obj
 0001:000e0d00       ??1CXTPTcbItem@@QAE@XZ     004e1d00 f i ToolkitPro1501vc60S:XTPTabBase.obj
 0001:000e0d60       ?DeleteView@CXTPTabExBase@@UAEXHH@Z 004e1d60 f   ToolkitPro1501vc60S:XTPTabBase.obj
 0001:000e0e70       ?DeleteView@CXTPTabExBase@@UAEXPAUCRuntimeClass@@H@Z 004e1e70 f   ToolkitPro1501vc60S:XTPTabBase.obj
 0001:000e0ec0       ?DeleteView@CXTPTabExBase@@UAEXPAVCWnd@@H@Z 004e1ec0 f   ToolkitPro1501vc60S:XTPTabBase.obj
 0001:000e0f00       ?GetViewName@CXTPTabExBase@@UAEPBDH@Z 004e1f00 f   ToolkitPro1501vc60S:XTPTabBase.obj
 0001:000e0f30       ?GetViewName@CXTPTabExBase@@UAEPBDPAUCRuntimeClass@@@Z 004e1f30 f   ToolkitPro1501vc60S:XTPTabBase.obj
 0001:000e0f70       ?IsChildView@CXTPTabExBase@@UAEHPAVCWnd@@@Z 004e1f70 f   ToolkitPro1501vc60S:XTPTabBase.obj
 0001:000e0fa0       ?RemoveAllTabs@CXTPTabExBase@@UAEHH@Z 004e1fa0 f   ToolkitPro1501vc60S:XTPTabBase.obj
 0001:000e1060       ?GetTabFromPoint@CXTPTabExBase@@UAEHVCPoint@@@Z 004e2060 f   ToolkitPro1501vc60S:XTPTabBase.obj
 0001:000e10e0       ?Defer@CXTPTabExBase@@UAEHAAPAXPAVCWnd@@@Z 004e20e0 f   ToolkitPro1501vc60S:XTPTabBase.obj
 0001:000e1200       ?RecalcLayout@CXTPTabExBase@@UAEXXZ 004e2200 f   ToolkitPro1501vc60S:XTPTabBase.obj
 0001:000e1250       ?ResizeTabView@CXTPTabExBase@@UAEXPAVCWnd@@@Z 004e2250 f   ToolkitPro1501vc60S:XTPTabBase.obj
 0001:000e12b0       ?InitializeFont@CXTPTabExBase@@UAEXXZ 004e22b0 f   ToolkitPro1501vc60S:XTPTabBase.obj
 0001:000e1320       ?SetAutoCondense@CXTPTabExBase@@QAEXH@Z 004e2320 f   ToolkitPro1501vc60S:XTPTabBase.obj
 0001:000e1330       ?GetCount@CXTPShortcutManagerAccelTable@@QBEHXZ 004e2330 f   ToolkitPro1501vc60S:XTPTabBase.obj
 0001:000e1330       ?GetAutoCondense@CXTPTabExBase@@QAEHXZ 004e2330 f   ToolkitPro1501vc60S:XTPTabBase.obj
 0001:000e1330       ?GetCount@CXTPRibbonTabContextHeaders@@QBEHXZ 004e2330 f   ToolkitPro1501vc60S:XTPTabBase.obj
 0001:000e1340       ?CalculateTabWidth@CXTPTabExBase@@IAEHPAVCDC@@AAVCString@@_N@Z 004e2340 f   ToolkitPro1501vc60S:XTPTabBase.obj
 0001:000e1390       ?Condense@CXTPTabExBase@@IAEXXZ 004e2390 f   ToolkitPro1501vc60S:XTPTabBase.obj
 0001:000e1840       ??1ITEMANDWIDTH@CXTPTabExBase@@QAE@XZ 004e2840 f i ToolkitPro1501vc60S:XTPTabBase.obj
 0001:000e1850       ??1?$CList@PAVCXTPTcbItem@@PAV1@@@UAE@XZ 004e2850 f i ToolkitPro1501vc60S:XTPTabBase.obj
 0001:000e18b0       ??1?$CList@UITEMANDWIDTH@CXTPTabExBase@@AAU12@@@UAE@XZ 004e28b0 f i ToolkitPro1501vc60S:XTPTabBase.obj
 0001:000e1930       ?Serialize@?$CList@UITEMANDWIDTH@CXTPTabExBase@@AAU12@@@UAEXAAVCArchive@@@Z 004e2930 f i ToolkitPro1501vc60S:XTPTabBase.obj
 0001:000e1ad0       ??_E?$CList@PAVCXTPTcbItem@@PAV1@@@UAEPAXI@Z 004e2ad0 f i ToolkitPro1501vc60S:XTPTabBase.obj
 0001:000e1ad0       ??_G?$CList@PAVCXTPTcbItem@@PAV1@@@UAEPAXI@Z 004e2ad0 f i ToolkitPro1501vc60S:XTPTabBase.obj
 0001:000e1af0       ??_G?$CList@UITEMANDWIDTH@CXTPTabExBase@@AAU12@@@UAEPAXI@Z 004e2af0 f i ToolkitPro1501vc60S:XTPTabBase.obj
 0001:000e1af0       ??_E?$CList@UITEMANDWIDTH@CXTPTabExBase@@AAU12@@@UAEPAXI@Z 004e2af0 f i ToolkitPro1501vc60S:XTPTabBase.obj
 0001:000e1b10       ??4ITEMANDWIDTH@CXTPTabExBase@@QAEAAU01@ABU01@@Z 004e2b10 f i ToolkitPro1501vc60S:XTPTabBase.obj
 0001:000e1b50       ?NewNode@?$CList@PAVCXTPDockingPaneBase@@PAV1@@@IAEPAUCNode@1@PAU21@0@Z 004e2b50 f i ToolkitPro1501vc60S:XTPTabBase.obj
 0001:000e1b50       ?NewNode@?$CList@PAVCXTPTcbItem@@PAV1@@@IAEPAUCNode@1@PAU21@0@Z 004e2b50 f i ToolkitPro1501vc60S:XTPTabBase.obj
 0001:000e1b50       ?NewNode@?$CList@PAVCXTPDockingPaneContextStickerWnd@@PAV1@@@IAEPAUCNode@1@PAU21@0@Z 004e2b50 f i ToolkitPro1501vc60S:XTPTabBase.obj
 0001:000e1b50       ?NewNode@?$CList@PAVCXTPMarkupObject@@PAV1@@@IAEPAUCNode@1@PAU21@0@Z 004e2b50 f i ToolkitPro1501vc60S:XTPTabBase.obj
 0001:000e1bc0       ?NewNode@?$CList@UITEMANDWIDTH@CXTPTabExBase@@AAU12@@@IAEPAUCNode@1@PAU21@0@Z 004e2bc0 f i ToolkitPro1501vc60S:XTPTabBase.obj
 0001:000e1c30       ?DestructElements@@YGXPAUITEMANDWIDTH@CXTPTabExBase@@H@Z 004e2c30 f i ToolkitPro1501vc60S:XTPTabBase.obj
 0001:000e1c60       ?ConstructElements@@YGXPAUITEMANDWIDTH@CXTPTabExBase@@H@Z 004e2c60 f i ToolkitPro1501vc60S:XTPTabBase.obj
 0001:000e1cb0       ?XTPMarkupCreateContext@@YAPAVCXTPMarkupContext@@PAUHWND__@@@Z 004e2cb0 f   ToolkitPro1501vc60S:XTPMarkupRender.obj
 0001:000e1d20       ?XTPMarkupReleaseContext@@YAXAAPAVCXTPMarkupContext@@@Z 004e2d20 f   ToolkitPro1501vc60S:XTPMarkupRender.obj
 0001:000e1d40       ?XTPMarkupReleaseElement@@YAXAAPAVCXTPMarkupUIElement@@@Z 004e2d40 f   ToolkitPro1501vc60S:XTPMarkupRender.obj
 0001:000e1d60       ?XTPMarkupParseText@@YAPAVCXTPMarkupUIElement@@PAVCXTPMarkupContext@@PBD@Z 004e2d60 f   ToolkitPro1501vc60S:XTPMarkupRender.obj
 0001:000e1d80       ?XTPMarkupElementContext@@YAPAVCXTPMarkupContext@@PAVCXTPMarkupUIElement@@@Z 004e2d80 f   ToolkitPro1501vc60S:XTPMarkupRender.obj
 0001:000e1d90       ?XTPMarkupMeasureElement@@YA?AVCSize@@PAVCXTPMarkupUIElement@@HH@Z 004e2d90 f   ToolkitPro1501vc60S:XTPMarkupRender.obj
 0001:000e1e30       ?XTPMarkupRenderElement@@YAXPAVCXTPMarkupUIElement@@PAUHDC__@@PBUtagRECT@@@Z 004e2e30 f   ToolkitPro1501vc60S:XTPMarkupRender.obj
 0001:000e1ee0       ?XTPMarkupSetDefaultFont@@YAXPAVCXTPMarkupContext@@PAUHFONT__@@K@Z 004e2ee0 f   ToolkitPro1501vc60S:XTPMarkupRender.obj
 0001:000e1f30       ?XTPMarkupRelayMessage@@YAHPAVCXTPMarkupUIElement@@IIJPAJ@Z 004e2f30 f   ToolkitPro1501vc60S:XTPMarkupRender.obj
 0001:000e1f60       ??0CXTPA2W@CXTPResourceManager@@QAE@PBD@Z 004e2f60 f   ToolkitPro1501vc60S:XTPResourceManager.obj
 0001:000e1fc0       ??1CXTPA2W@CXTPResourceManager@@QAE@XZ 004e2fc0 f   ToolkitPro1501vc60S:XTPResourceManager.obj
 0001:000e2020       ?XTPResourceManager@@YAPAVCXTPResourceManager@@XZ 004e3020 f   ToolkitPro1501vc60S:XTPResourceManager.obj
 0001:000e2030       ??0CManageState@CXTPResourceManager@@QAE@XZ 004e3030 f   ToolkitPro1501vc60S:XTPResourceManager.obj
 0001:000e2040       ??1CManageState@CXTPResourceManager@@QAE@XZ 004e3040 f   ToolkitPro1501vc60S:XTPResourceManager.obj
 0001:000e2060       ?Undo@CManageState@CXTPResourceManager@@QAEXXZ 004e3060 f   ToolkitPro1501vc60S:XTPResourceManager.obj
 0001:000e2080       ?Redo@CManageState@CXTPResourceManager@@QAEXXZ 004e3080 f   ToolkitPro1501vc60S:XTPResourceManager.obj
 0001:000e20c0       ??0CXTPResourceManager@@QAE@XZ 004e30c0 f   ToolkitPro1501vc60S:XTPResourceManager.obj
 0001:000e2140       ?GetResourcesLangID@CXTPResourceManager@@UAEGXZ 004e3140 f i ToolkitPro1501vc60S:XTPResourceManager.obj
 0001:000e2150       ?LoadStringA@CXTPResourceManager@@UAE?AVCString@@IPAH@Z 004e3150 f i ToolkitPro1501vc60S:XTPResourceManager.obj
 0001:000e21e0       ??_GCXTPResourceManager@@UAEPAXI@Z 004e31e0 f i ToolkitPro1501vc60S:XTPResourceManager.obj
 0001:000e21e0       ??_ECXTPResourceManager@@UAEPAXI@Z 004e31e0 f i ToolkitPro1501vc60S:XTPResourceManager.obj
 0001:000e2200       ??1CXTPResourceManager@@UAE@XZ 004e3200 f   ToolkitPro1501vc60S:XTPResourceManager.obj
 0001:000e2240       ?Close@CXTPResourceManager@@UAEXXZ 004e3240 f   ToolkitPro1501vc60S:XTPResourceManager.obj
 0001:000e2260       ?GetResourceHandle@CXTPResourceManager@@QBEPAUHINSTANCE__@@XZ 004e3260 f   ToolkitPro1501vc60S:XTPResourceManager.obj
 0001:000e2270       ?FindResourceA@CXTPResourceManager@@QAEPAUHRSRC__@@AAPAUHINSTANCE__@@PBD1@Z 004e3270 f   ToolkitPro1501vc60S:XTPResourceManager.obj
 0001:000e22b0       ?UpdateResourcesLangID@CXTPResourceManager@@MAEXXZ 004e32b0 f   ToolkitPro1501vc60S:XTPResourceManager.obj
 0001:000e22d0       ?SetResourceLanguage@CXTPResourceManager@@QAEXG@Z 004e32d0 f   ToolkitPro1501vc60S:XTPResourceManager.obj
 0001:000e2300       ?GetResourceLanguage@CXTPResourceManager@@SAGPAUHINSTANCE__@@@Z 004e3300 f   ToolkitPro1501vc60S:XTPResourceManager.obj
 0001:000e2330       ?EnumResTypeProc@CXTPResourceManager@@KGHPAUHINSTANCE__@@PADJ@Z 004e3330 f   ToolkitPro1501vc60S:XTPResourceManager.obj
 0001:000e2380       ?EnumResNameProc@CXTPResourceManager@@KGHPAUHINSTANCE__@@PBDPADJ@Z 004e3380 f   ToolkitPro1501vc60S:XTPResourceManager.obj
 0001:000e23d0       ?EnumResLangProc@CXTPResourceManager@@KGHPAUHINSTANCE__@@PBD1GJ@Z 004e33d0 f   ToolkitPro1501vc60S:XTPResourceManager.obj
 0001:000e2400       ?GetFontCharset@CXTPResourceManager@@QBEEXZ 004e3400 f   ToolkitPro1501vc60S:XTPResourceManager.obj
 0001:000e2420       ?LoadStringA@CXTPResourceManager@@UAEHPAVCString@@I@Z 004e3420 f   ToolkitPro1501vc60S:XTPResourceManager.obj
 0001:000e24a0       ?LoadMenuA@CXTPResourceManager@@UAEHPAVCMenu@@I@Z 004e34a0 f   ToolkitPro1501vc60S:XTPResourceManager.obj
 0001:000e2540       ?LoadToolBar@CXTPResourceManager@@UAEHPAVCToolBar@@I@Z 004e3540 f   ToolkitPro1501vc60S:XTPResourceManager.obj
 0001:000e25e0       ?LoadBitmapA@CXTPResourceManager@@UAEHPAVCBitmap@@I@Z 004e35e0 f   ToolkitPro1501vc60S:XTPResourceManager.obj
 0001:000e2680       ?LoadCursorA@CXTPResourceManager@@UAEPAUHICON__@@I@Z 004e3680 f   ToolkitPro1501vc60S:XTPResourceManager.obj
 0001:000e26f0       ?LoadDialogTemplate2@CXTPResourceManager@@UAEPAXPBD@Z 004e36f0 f   ToolkitPro1501vc60S:XTPResourceManager.obj
 0001:000e2760       ?LoadDialogTemplate@CXTPResourceManager@@UAEPBUDLGTEMPLATE@@I@Z 004e3760 f   ToolkitPro1501vc60S:XTPResourceManager.obj
 0001:000e2780       ?LoadHTML@CXTPResourceManager@@UAEHPAVCString@@I@Z 004e3780 f   ToolkitPro1501vc60S:XTPResourceManager.obj
 0001:000e2870       ?CreateIconFromResource@CXTPResourceManager@@UAEPAUHICON__@@PAUHINSTANCE__@@PBDVCSize@@@Z 004e3870 f   ToolkitPro1501vc60S:XTPResourceManager.obj
 0001:000e2920       ?LoadIconA@CXTPResourceManager@@UAEPAUHICON__@@PBDVCSize@@@Z 004e3920 f   ToolkitPro1501vc60S:XTPResourceManager.obj
 0001:000e2990       ?LoadIconA@CXTPResourceManager@@UAEPAUHICON__@@HVCSize@@@Z 004e3990 f   ToolkitPro1501vc60S:XTPResourceManager.obj
 0001:000e29b0       ?ShowMessageBox@CXTPResourceManager@@QAEHII@Z 004e39b0 f   ToolkitPro1501vc60S:XTPResourceManager.obj
 0001:000e2a30       ?ShowMessageBox@CXTPResourceManager@@QAEHPBDI@Z 004e3a30 f   ToolkitPro1501vc60S:XTPResourceManager.obj
 0001:000e2a70       ?GetLanguageInfo@CXTPResourceManager@@SAPAUXTP_RESOURCEMANAGER_LANGINFO@@I@Z 004e3a70 f   ToolkitPro1501vc60S:XTPResourceManager.obj
 0001:000e2ab0       ?GetMenuLocaleString@CXTPResourceManager@@QBEHPAVCMenu@@IAAVCString@@I@Z 004e3ab0 f   ToolkitPro1501vc60S:XTPResourceManager.obj
 0001:000e2c50       ?LoadLocaleString@CXTPResourceManager@@QBEHPAUHINSTANCE__@@IAAVCString@@@Z 004e3c50 f   ToolkitPro1501vc60S:XTPResourceManager.obj
 0001:000e2d50       ?CreateObject@?$CProcessLocal@VCXTPResourceManager@@@@SGPAVCNoTrackObject@@XZ 004e3d50 f i ToolkitPro1501vc60S:XTPResourceManager.obj
 0001:000e2db0       ??0CSharedData@CXTPWinThemeWrapper@@QAE@XZ 004e3db0 f   ToolkitPro1501vc60S:XTPWinThemeWrapper.obj
 0001:000e2df0       ?GetSharedData@CXTPWinThemeWrapper@@ABEAAVCSharedData@1@XZ 004e3df0 f   ToolkitPro1501vc60S:XTPWinThemeWrapper.obj
 0001:000e2e90       ??0CXTPWinThemeWrapper@@QAE@H@Z 004e3e90 f   ToolkitPro1501vc60S:XTPWinThemeWrapper.obj
 0001:000e2eb0       ??_GCXTPWinThemeWrapper@@UAEPAXI@Z 004e3eb0 f i ToolkitPro1501vc60S:XTPWinThemeWrapper.obj
 0001:000e2eb0       ??_ECXTPWinThemeWrapper@@UAEPAXI@Z 004e3eb0 f i ToolkitPro1501vc60S:XTPWinThemeWrapper.obj
 0001:000e2ed0       ??1CXTPWinThemeWrapper@@UAE@XZ 004e3ed0 f   ToolkitPro1501vc60S:XTPWinThemeWrapper.obj
 0001:000e2f00       ?ReloadLibrary@CXTPWinThemeWrapper@@ABEXXZ 004e3f00 f   ToolkitPro1501vc60S:XTPWinThemeWrapper.obj
 0001:000e2f40       ?CloseThemeData@CXTPWinThemeWrapper@@QAEXXZ 004e3f40 f   ToolkitPro1501vc60S:XTPWinThemeWrapper.obj
 0001:000e2fe0       ?DrawThemeBackground@CXTPWinThemeWrapper@@QAEJPAUHDC__@@HHPBUtagRECT@@1@Z 004e3fe0 f   ToolkitPro1501vc60S:XTPWinThemeWrapper.obj
 0001:000e3080       ?GetCurrentThemeName@CXTPWinThemeWrapper@@QAEJPAGH0H0H@Z 004e4080 f   ToolkitPro1501vc60S:XTPWinThemeWrapper.obj
 0001:000e3140       ?GetThemeBackgroundContentRect@CXTPWinThemeWrapper@@QAEJPAUHDC__@@HHPBUtagRECT@@PAU3@@Z 004e4140 f   ToolkitPro1501vc60S:XTPWinThemeWrapper.obj
 0001:000e31f0       ?GetThemeColor@CXTPWinThemeWrapper@@QAEJHHHPAK@Z 004e41f0 f   ToolkitPro1501vc60S:XTPWinThemeWrapper.obj
 0001:000e32a0       ?GetThemeInt@CXTPWinThemeWrapper@@QAEJHHHPAH@Z 004e42a0 f   ToolkitPro1501vc60S:XTPWinThemeWrapper.obj
 0001:000e3340       ?GetThemePartSize@CXTPWinThemeWrapper@@QAEJPAUHDC__@@HHPAUtagRECT@@W4THEMESIZE@@PAUtagSIZE@@@Z 004e4340 f   ToolkitPro1501vc60S:XTPWinThemeWrapper.obj
 0001:000e33f0       ?GetThemeSysBool@CXTPWinThemeWrapper@@QAEHH@Z 004e43f0 f   ToolkitPro1501vc60S:XTPWinThemeWrapper.obj
 0001:000e3480       ?IsAppThemed@CXTPWinThemeWrapper@@QBEHXZ 004e4480 f   ToolkitPro1501vc60S:XTPWinThemeWrapper.obj
 0001:000e3510       ?IsThemeActive@CXTPWinThemeWrapper@@QBEHXZ 004e4510 f   ToolkitPro1501vc60S:XTPWinThemeWrapper.obj
 0001:000e35b0       ?OpenThemeData@CXTPWinThemeWrapper@@QAEXPAUHWND__@@PBG@Z 004e45b0 f   ToolkitPro1501vc60S:XTPWinThemeWrapper.obj
 0001:000e3640       ?ThemeDataOpen@CXTPWinThemeWrapper@@QBEHXZ 004e4640 f   ToolkitPro1501vc60S:XTPWinThemeWrapper.obj
 0001:000e3650       ?IsAppThemeReady@CXTPWinThemeWrapper@@QBEHXZ 004e4650 f   ToolkitPro1501vc60S:XTPWinThemeWrapper.obj
 0001:000e36a0       ?DrawThemeTextEx@CXTPWinThemeWrapper@@QAEJPAUHDC__@@HHPBGHKPAUtagRECT@@PBUXTP_UX_DTTOPTS@@@Z 004e46a0 f   ToolkitPro1501vc60S:XTPWinThemeWrapper.obj
 0001:000e3760       ?BeginBufferedPaint@CXTPWinThemeWrapper@@QAEPAXPAUHDC__@@PBUtagRECT@@W4XTP_UX_BUFFERFORMAT@@PAUXTP_UX_PAINTPARAMS@@PAPAU2@@Z 004e4760 f   ToolkitPro1501vc60S:XTPWinThemeWrapper.obj
 0001:000e3810       ?EndBufferedPaint@CXTPWinThemeWrapper@@QAEXPAXH@Z 004e4810 f   ToolkitPro1501vc60S:XTPWinThemeWrapper.obj
 0001:000e38a0       ??0CSharedData@CXTPWinDwmWrapper@@QAE@XZ 004e48a0 f   ToolkitPro1501vc60S:XTPWinThemeWrapper.obj
 0001:000e38c0       ?GetSharedData@CXTPWinDwmWrapper@@ABEAAVCSharedData@1@XZ 004e48c0 f   ToolkitPro1501vc60S:XTPWinThemeWrapper.obj
 0001:000e3910       ?DefWindowProcA@CXTPWinDwmWrapper@@QAEJPAUHWND__@@IIJPAJ@Z 004e4910 f   ToolkitPro1501vc60S:XTPWinThemeWrapper.obj
