	TITLE	C:\Users\Administrator\Desktop\GHOST\Client\PcView.cpp
	.386P
include listing.inc
if @Version gt 510
.model FLAT
else
_TEXT	SEGMENT PARA USE32 PUBLIC 'CODE'
_TEXT	ENDS
_DATA	SEGMENT DWORD USE32 PUBLIC 'DATA'
_DATA	ENDS
CONST	SEGMENT DWORD USE32 PUBLIC 'CONST'
CONST	ENDS
_BSS	SEGMENT PARA USE32 PUBLIC 'BSS'
_BSS	ENDS
_TLS	SEGMENT DWORD USE32 PUBLIC 'TLS'
_TLS	ENDS
;	COMDAT ??_C@_0BB@NAAD@Magellan?5MSWHEEL?$AA@
_DATA	SEGMENT DWORD USE32 PUBLIC 'DATA'
_DATA	ENDS
;	COMDAT ??_C@_06FPAF@MouseZ?$AA@
_DATA	SEGMENT DWORD USE32 PUBLIC 'DATA'
_DATA	ENDS
;	COMDAT ??_C@_0BA@CLBL@MSWHEEL_ROLLMSG?$AA@
_DATA	SEGMENT DWORD USE32 PUBLIC 'DATA'
_DATA	ENDS
;	COMDAT ??_C@_0BF@DLPD@MSH_WHEELSUPPORT_MSG?$AA@
_DATA	SEGMENT DWORD USE32 PUBLIC 'DATA'
_DATA	ENDS
;	COMDAT ??_C@_0BF@ODOJ@MSH_SCROLL_LINES_MSG?$AA@
_DATA	SEGMENT DWORD USE32 PUBLIC 'DATA'
_DATA	ENDS
;	COMDAT ??_C@_09KPKL@LC?5?$CFd?5?$CFs?6?$AA@
_DATA	SEGMENT DWORD USE32 PUBLIC 'DATA'
_DATA	ENDS
;	COMDAT ??_C@_09HPKC@EC?5?$CFd?5?$CFs?6?$AA@
_DATA	SEGMENT DWORD USE32 PUBLIC 'DATA'
_DATA	ENDS
;	COMDAT ??_C@_04FDEB@Send?$AA@
_DATA	SEGMENT DWORD USE32 PUBLIC 'DATA'
_DATA	ENDS
;	COMDAT ??_C@_0BA@FELK@OnClientReading?$AA@
_DATA	SEGMENT DWORD USE32 PUBLIC 'DATA'
_DATA	ENDS
;	COMDAT ??_C@_0CH@EPLF@CIOCPLOCAL?3?3OnClientReading?5Exce@
_DATA	SEGMENT DWORD USE32 PUBLIC 'DATA'
_DATA	ENDS
;	COMDAT ??_C@_0O@NFAI@SysListView32?$AA@
_DATA	SEGMENT DWORD USE32 PUBLIC 'DATA'
_DATA	ENDS
;	COMDAT ??_C@_0O@NCOE@SysTreeView32?$AA@
_DATA	SEGMENT DWORD USE32 PUBLIC 'DATA'
_DATA	ENDS
;	COMDAT ??_C@_0BE@OPIO@IDispatch?5error?5?$CD?$CFd?$AA@
_DATA	SEGMENT DWORD USE32 PUBLIC 'DATA'
_DATA	ENDS
;	COMDAT ??_C@_0BF@NADL@Unknown?5error?50x?$CF0lX?$AA@
_DATA	SEGMENT DWORD USE32 PUBLIC 'DATA'
_DATA	ENDS
;	COMDAT ??_C@_0BA@PACF@SysTabControl32?$AA@
_DATA	SEGMENT DWORD USE32 PUBLIC 'DATA'
_DATA	ENDS
;	COMDAT ??_C@_00A@?$AA@
_DATA	SEGMENT DWORD USE32 PUBLIC 'DATA'
_DATA	ENDS
;	COMDAT ??_C@_08BLKF@Position?$AA@
_DATA	SEGMENT DWORD USE32 PUBLIC 'DATA'
_DATA	ENDS
;	COMDAT ??_C@_0L@HOPE@TabDocking?$AA@
_DATA	SEGMENT DWORD USE32 PUBLIC 'DATA'
_DATA	ENDS
;	COMDAT ??_C@_0N@MMAA@KERNEL32?4DLL?$AA@
_DATA	SEGMENT DWORD USE32 PUBLIC 'DATA'
_DATA	ENDS
;	COMDAT ??_C@_0BD@ECDE@HeapSetInformation?$AA@
_DATA	SEGMENT DWORD USE32 PUBLIC 'DATA'
_DATA	ENDS
;	COMDAT ??_C@_17CMHB@?$AA?7?$EA?$AD?$AA?7?$AA?$AA@
_DATA	SEGMENT DWORD USE32 PUBLIC 'DATA'
_DATA	ENDS
;	COMDAT ??_C@_19GKKJ@?$AA?$AD?$AA?7?$EA?$AD?$AA?7?$AA?$AA@
_DATA	SEGMENT DWORD USE32 PUBLIC 'DATA'
_DATA	ENDS
;	COMDAT ??_C@_1BC@LAOD@?$EA?$AI?$EA?$AD?$EA?$AD?$EA?$AD?$EA?$AD?$AA?7?$AA?7?$AA?7?$AA?$AA@
_DATA	SEGMENT DWORD USE32 PUBLIC 'DATA'
_DATA	ENDS
;	COMDAT ??_C@_1O@DJKO@?$AA?$AD?$AA?7?$EA?$AD?$AA?7?$AA?7?$AA?7?$AA?$AA@
_DATA	SEGMENT DWORD USE32 PUBLIC 'DATA'
_DATA	ENDS
;	COMDAT ??_C@_1O@CBDK@?$EA?$AI?$EA?$AI?$EA?$AI?$EA?$AD?$EA?$AD?$AA?7?$AA?$AA@
_DATA	SEGMENT DWORD USE32 PUBLIC 'DATA'
_DATA	ENDS
;	COMDAT ??_C@_15HGEJ@?$EA?$AD?$AA?7?$AA?$AA@
_DATA	SEGMENT DWORD USE32 PUBLIC 'DATA'
_DATA	ENDS
;	COMDAT ??_C@_19POGK@?$AA?$AD?$AA?$AM?$EA?$AD?$AA?7?$AA?$AA@
_DATA	SEGMENT DWORD USE32 PUBLIC 'DATA'
_DATA	ENDS
;	COMDAT ??_C@_1M@IIA@?$AA?$AD?$AA?$AM?$AA?7?$EA?$AD?$AA?7?$AA?$AA@
_DATA	SEGMENT DWORD USE32 PUBLIC 'DATA'
_DATA	ENDS
;	COMDAT ??_C@_19EDCP@?$AA?$AD?$AA?$AD?$EA?$AD?$AA?7?$AA?$AA@
_DATA	SEGMENT DWORD USE32 PUBLIC 'DATA'
_DATA	ENDS
;	COMDAT ??_C@_1M@FFDJ@?$AA?$AD?$AA?$AD?$AA?7?$EA?$AD?$AA?7?$AA?$AA@
_DATA	SEGMENT DWORD USE32 PUBLIC 'DATA'
_DATA	ENDS
;	COMDAT ??_C@_17FPH@?$AA?$AD?$EA?$AD?$AA?7?$AA?$AA@
_DATA	SEGMENT DWORD USE32 PUBLIC 'DATA'
_DATA	ENDS
;	COMDAT ??_C@_17BJFD@?$EA?$AL?$EA?$AD?$AA?7?$AA?$AA@
_DATA	SEGMENT DWORD USE32 PUBLIC 'DATA'
_DATA	ENDS
;	COMDAT ??_C@_06COKK@IconID?$AA@
_DATA	SEGMENT DWORD USE32 PUBLIC 'DATA'
_DATA	ENDS
;	COMDAT ??_C@_0M@HJOF@CustomIcons?$AA@
_DATA	SEGMENT DWORD USE32 PUBLIC 'DATA'
_DATA	ENDS
;	COMDAT ??_C@_0L@KNNJ@CategoryID?$AA@
_DATA	SEGMENT DWORD USE32 PUBLIC 'DATA'
_DATA	ENDS
;	COMDAT ??_C@_0BA@PENH@EventCategories?$AA@
_DATA	SEGMENT DWORD USE32 PUBLIC 'DATA'
_DATA	ENDS
;	COMDAT ??_C@_0O@ICJD@HeightFormula?$AA@
_DATA	SEGMENT DWORD USE32 PUBLIC 'DATA'
_DATA	ENDS
;	COMDAT ??_C@_0BA@DJCE@PrevEventButton?$AA@
_DATA	SEGMENT DWORD USE32 PUBLIC 'DATA'
_DATA	ENDS
;	COMDAT ??_C@_0BA@LPPM@NextEventButton?$AA@
_DATA	SEGMENT DWORD USE32 PUBLIC 'DATA'
_DATA	ENDS
;	COMDAT ??_C@_0BB@PMKD@EventIconsToDraw?$AA@
_DATA	SEGMENT DWORD USE32 PUBLIC 'DATA'
_DATA	ENDS
;	COMDAT ??_C@_06IEHP@Header?$AA@
_DATA	SEGMENT DWORD USE32 PUBLIC 'DATA'
_DATA	ENDS
;	COMDAT ??_C@_0N@DECM@AllDayEvents?$AA@
_DATA	SEGMENT DWORD USE32 PUBLIC 'DATA'
_DATA	ENDS
;	COMDAT ??_C@_04HPIN@Cell?$AA@
_DATA	SEGMENT DWORD USE32 PUBLIC 'DATA'
_DATA	ENDS
;	COMDAT ??_C@_0O@MOBI@MultiDayEvent?$AA@
_DATA	SEGMENT DWORD USE32 PUBLIC 'DATA'
_DATA	ENDS
;	COMDAT ??_C@_0P@KCNG@SingleDayEvent?$AA@
_DATA	SEGMENT DWORD USE32 PUBLIC 'DATA'
_DATA	ENDS
;	COMDAT ??_C@_05GGEJ@Group?$AA@
_DATA	SEGMENT DWORD USE32 PUBLIC 'DATA'
_DATA	ENDS
;	COMDAT ??_C@_05MJIN@Event?$AA@
_DATA	SEGMENT DWORD USE32 PUBLIC 'DATA'
_DATA	ENDS
;	COMDAT ??_C@_09LIMP@TimeScale?$AA@
_DATA	SEGMENT DWORD USE32 PUBLIC 'DATA'
_DATA	ENDS
;	COMDAT ??_C@_03ENC@Day?$AA@
_DATA	SEGMENT DWORD USE32 PUBLIC 'DATA'
_DATA	ENDS
;	COMDAT ??_C@_0O@CPJD@WeekDayHeader?$AA@
_DATA	SEGMENT DWORD USE32 PUBLIC 'DATA'
_DATA	ENDS
;	COMDAT ??_C@_0L@CBMM@WeekHeader?$AA@
_DATA	SEGMENT DWORD USE32 PUBLIC 'DATA'
_DATA	ENDS
;	COMDAT ??_C@_09FNKD@ColorsSet?$AA@
_DATA	SEGMENT DWORD USE32 PUBLIC 'DATA'
_DATA	ENDS
;	COMDAT ??_C@_07BLOB@DayView?$AA@
_DATA	SEGMENT DWORD USE32 PUBLIC 'DATA'
_DATA	ENDS
;	COMDAT ??_C@_09CHGJ@MonthView?$AA@
_DATA	SEGMENT DWORD USE32 PUBLIC 'DATA'
_DATA	ENDS
;	COMDAT ??_C@_08ICNK@WeekView?$AA@
_DATA	SEGMENT DWORD USE32 PUBLIC 'DATA'
_DATA	ENDS
;	COMDAT ??_C@_0BC@EBPL@CellDynBackground?$AA@
_DATA	SEGMENT DWORD USE32 PUBLIC 'DATA'
_DATA	ENDS
;	COMDAT ??_C@_0BF@HDLN@PrevNextEventButtons?$AA@
_DATA	SEGMENT DWORD USE32 PUBLIC 'DATA'
_DATA	ENDS
;	COMDAT ??_C@_0O@CJM@IsStandardSet?$AA@
_DATA	SEGMENT DWORD USE32 PUBLIC 'DATA'
_DATA	ENDS
;	COMDAT ??_C@_0M@OJLF@IsCustomSet?$AA@
_DATA	SEGMENT DWORD USE32 PUBLIC 'DATA'
_DATA	ENDS
;	COMDAT ??_C@_08GLNI@Standard?$AA@
_DATA	SEGMENT DWORD USE32 PUBLIC 'DATA'
_DATA	ENDS
;	COMDAT ??_C@_06JLAI@Custom?$AA@
_DATA	SEGMENT DWORD USE32 PUBLIC 'DATA'
_DATA	ENDS
rdata$r	SEGMENT DWORD USE32 PUBLIC 'CONST'
rdata$r	ENDS
xdata$x	SEGMENT DWORD USE32 PUBLIC 'CONST'
xdata$x	ENDS
CRT$XCA	SEGMENT DWORD USE32 PUBLIC 'DATA'
CRT$XCA	ENDS
CRT$XCU	SEGMENT DWORD USE32 PUBLIC 'DATA'
CRT$XCU	ENDS
CRT$XCL	SEGMENT DWORD USE32 PUBLIC 'DATA'
CRT$XCL	ENDS
CRT$XCC	SEGMENT DWORD USE32 PUBLIC 'DATA'
CRT$XCC	ENDS
CRT$XCZ	SEGMENT DWORD USE32 PUBLIC 'DATA'
CRT$XCZ	ENDS
text$AFX_COL1	SEGMENT PARA USE32 PUBLIC ''
text$AFX_COL1	ENDS
;	COMDAT _IsEqualGUID
_TEXT	SEGMENT PARA USE32 PUBLIC 'CODE'
_TEXT	ENDS
;	COMDAT _==
_TEXT	SEGMENT PARA USE32 PUBLIC 'CODE'
_TEXT	ENDS
;	COMDAT __tcsncpy
_TEXT	SEGMENT PARA USE32 PUBLIC 'CODE'
_TEXT	ENDS
;	COMDAT __tcstok
_TEXT	SEGMENT PARA USE32 PUBLIC 'CODE'
_TEXT	ENDS
;	COMDAT __tcscmp
_TEXT	SEGMENT PARA USE32 PUBLIC 'CODE'
_TEXT	ENDS
;	COMDAT __tcsicmp
_TEXT	SEGMENT PARA USE32 PUBLIC 'CODE'
_TEXT	ENDS
;	COMDAT __tcscoll
_TEXT	SEGMENT PARA USE32 PUBLIC 'CODE'
_TEXT	ENDS
;	COMDAT __tcsicoll
_TEXT	SEGMENT PARA USE32 PUBLIC 'CODE'
_TEXT	ENDS
;	COMDAT __tcsnccpy
_TEXT	SEGMENT PARA USE32 PUBLIC 'CODE'
_TEXT	ENDS
;	COMDAT __tcslwr
_TEXT	SEGMENT PARA USE32 PUBLIC 'CODE'
_TEXT	ENDS
;	COMDAT __tcsupr
_TEXT	SEGMENT PARA USE32 PUBLIC 'CODE'
_TEXT	ENDS
;	COMDAT ?GetNextWindow@@YAPAUHWND__@@PAU1@I@Z
_TEXT	SEGMENT PARA USE32 PUBLIC 'CODE'
_TEXT	ENDS
;	COMDAT ?DrawState@@YGHPAUHDC__@@PAUHBRUSH__@@P6GH0JIHH@ZJIHHHHI@Z
_TEXT	SEGMENT PARA USE32 PUBLIC 'CODE'
_TEXT	ENDS
;	COMDAT ?AfxTrace@@YAXPBDZZ
_TEXT	SEGMENT PARA USE32 PUBLIC 'CODE'
_TEXT	ENDS
;	COMDAT ?GetNextPtr@CSimpleList@@QBEPAPAXPAX@Z
_TEXT	SEGMENT PARA USE32 PUBLIC 'CODE'
_TEXT	ENDS
;	COMDAT ??1CNoTrackObject@@UAE@XZ
_TEXT	SEGMENT PARA USE32 PUBLIC 'CODE'
_TEXT	ENDS
;	COMDAT ??_GCNoTrackObject@@UAEPAXI@Z
_TEXT	SEGMENT PARA USE32 PUBLIC 'CODE'
_TEXT	ENDS
;	COMDAT ?GetAt@CByteArray@@QBEEH@Z
_TEXT	SEGMENT PARA USE32 PUBLIC 'CODE'
_TEXT	ENDS
;	COMDAT ?ElementAt@CByteArray@@QAEAAEH@Z
_TEXT	SEGMENT PARA USE32 PUBLIC 'CODE'
_TEXT	ENDS
;	COMDAT ?GetAt@CWordArray@@QBEGH@Z
_TEXT	SEGMENT PARA USE32 PUBLIC 'CODE'
_TEXT	ENDS
;	COMDAT ?ElementAt@CWordArray@@QAEAAGH@Z
_TEXT	SEGMENT PARA USE32 PUBLIC 'CODE'
_TEXT	ENDS
;	COMDAT ?GetAt@CDWordArray@@QBEKH@Z
_TEXT	SEGMENT PARA USE32 PUBLIC 'CODE'
_TEXT	ENDS
;	COMDAT ?ElementAt@CDWordArray@@QAEAAKH@Z
_TEXT	SEGMENT PARA USE32 PUBLIC 'CODE'
_TEXT	ENDS
;	COMDAT ?GetSize@CUIntArray@@QBEHXZ
_TEXT	SEGMENT PARA USE32 PUBLIC 'CODE'
_TEXT	ENDS
;	COMDAT ?RemoveAll@CUIntArray@@QAEXXZ
_TEXT	SEGMENT PARA USE32 PUBLIC 'CODE'
_TEXT	ENDS
;	COMDAT ?GetAt@CUIntArray@@QBEIH@Z
_TEXT	SEGMENT PARA USE32 PUBLIC 'CODE'
_TEXT	ENDS
;	COMDAT ?ElementAt@CUIntArray@@QAEAAIH@Z
_TEXT	SEGMENT PARA USE32 PUBLIC 'CODE'
_TEXT	ENDS
;	COMDAT ?Add@CUIntArray@@QAEHI@Z
_TEXT	SEGMENT PARA USE32 PUBLIC 'CODE'
_TEXT	ENDS
;	COMDAT ?GetSize@CPtrArray@@QBEHXZ
_TEXT	SEGMENT PARA USE32 PUBLIC 'CODE'
_TEXT	ENDS
;	COMDAT ?RemoveAll@CPtrArray@@QAEXXZ
_TEXT	SEGMENT PARA USE32 PUBLIC 'CODE'
_TEXT	ENDS
;	COMDAT ?GetAt@CPtrArray@@QBEPAXH@Z
_TEXT	SEGMENT PARA USE32 PUBLIC 'CODE'
_TEXT	ENDS
;	COMDAT ?SetAt@CPtrArray@@QAEXHPAX@Z
_TEXT	SEGMENT PARA USE32 PUBLIC 'CODE'
_TEXT	ENDS
;	COMDAT ?ElementAt@CPtrArray@@QAEAAPAXH@Z
_TEXT	SEGMENT PARA USE32 PUBLIC 'CODE'
_TEXT	ENDS
;	COMDAT ??ACPtrArray@@QBEPAXH@Z
_TEXT	SEGMENT PARA USE32 PUBLIC 'CODE'
_TEXT	ENDS
;	COMDAT ?GetAt@CObArray@@QBEPAVCObject@@H@Z
_TEXT	SEGMENT PARA USE32 PUBLIC 'CODE'
_TEXT	ENDS
;	COMDAT ?ElementAt@CObArray@@QAEAAPAVCObject@@H@Z
_TEXT	SEGMENT PARA USE32 PUBLIC 'CODE'
_TEXT	ENDS
;	COMDAT ?GetAt@CStringArray@@QBE?AVCString@@H@Z
_TEXT	SEGMENT PARA USE32 PUBLIC 'CODE'
_TEXT	ENDS
;	COMDAT ?ElementAt@CStringArray@@QAEAAVCString@@H@Z
_TEXT	SEGMENT PARA USE32 PUBLIC 'CODE'
_TEXT	ENDS
;	COMDAT ?Add@CStringArray@@QAEHPBD@Z
_TEXT	SEGMENT PARA USE32 PUBLIC 'CODE'
_TEXT	ENDS
;	COMDAT ??0CObject@@IAE@XZ
_TEXT	SEGMENT PARA USE32 PUBLIC 'CODE'
_TEXT	ENDS
;	COMDAT ??_GCObject@@UAEPAXI@Z
_TEXT	SEGMENT PARA USE32 PUBLIC 'CODE'
_TEXT	ENDS
;	COMDAT ??1CObject@@UAE@XZ
_TEXT	SEGMENT PARA USE32 PUBLIC 'CODE'
_TEXT	ENDS
;	COMDAT ?Serialize@CObject@@UAEXAAVCArchive@@@Z
_TEXT	SEGMENT PARA USE32 PUBLIC 'CODE'
_TEXT	ENDS
;	COMDAT ??3CObject@@SGXPAX@Z
_TEXT	SEGMENT PARA USE32 PUBLIC 'CODE'
_TEXT	ENDS
;	COMDAT ??2CObject@@SGPAXI@Z
_TEXT	SEGMENT PARA USE32 PUBLIC 'CODE'
_TEXT	ENDS
;	COMDAT ??1CException@@UAE@XZ
_TEXT	SEGMENT PARA USE32 PUBLIC 'CODE'
_TEXT	ENDS
;	COMDAT ??_GCException@@UAEPAXI@Z
_TEXT	SEGMENT PARA USE32 PUBLIC 'CODE'
_TEXT	ENDS
;	COMDAT ??0CSimpleException@@QAE@XZ
_TEXT	SEGMENT PARA USE32 PUBLIC 'CODE'
_TEXT	ENDS
;	COMDAT ??_GCSimpleException@@UAEPAXI@Z
_TEXT	SEGMENT PARA USE32 PUBLIC 'CODE'
_TEXT	ENDS
;	COMDAT ??0CSimpleException@@QAE@H@Z
_TEXT	SEGMENT PARA USE32 PUBLIC 'CODE'
_TEXT	ENDS
;	COMDAT ??1CSimpleException@@UAE@XZ
_TEXT	SEGMENT PARA USE32 PUBLIC 'CODE'
_TEXT	ENDS
;	COMDAT ??_GCMemoryException@@UAEPAXI@Z
_TEXT	SEGMENT PARA USE32 PUBLIC 'CODE'
_TEXT	ENDS
;	COMDAT ??1CMemoryException@@UAE@XZ
_TEXT	SEGMENT PARA USE32 PUBLIC 'CODE'
_TEXT	ENDS
;	COMDAT ??_GCNotSupportedException@@UAEPAXI@Z
_TEXT	SEGMENT PARA USE32 PUBLIC 'CODE'
_TEXT	ENDS
;	COMDAT ??1CNotSupportedException@@UAE@XZ
_TEXT	SEGMENT PARA USE32 PUBLIC 'CODE'
_TEXT	ENDS
;	COMDAT ??_GCArchiveException@@UAEPAXI@Z
_TEXT	SEGMENT PARA USE32 PUBLIC 'CODE'
_TEXT	ENDS
;	COMDAT ??1CArchiveException@@UAE@XZ
_TEXT	SEGMENT PARA USE32 PUBLIC 'CODE'
_TEXT	ENDS
;	COMDAT ??_GCFileException@@UAEPAXI@Z
_TEXT	SEGMENT PARA USE32 PUBLIC 'CODE'
_TEXT	ENDS
;	COMDAT ??1CFileException@@UAE@XZ
_TEXT	SEGMENT PARA USE32 PUBLIC 'CODE'
_TEXT	ENDS
;	COMDAT ?SetFilePath@CFile@@UAEXPBD@Z
_TEXT	SEGMENT PARA USE32 PUBLIC 'CODE'
_TEXT	ENDS
;	COMDAT ?GetData@CString@@IBEPAUCStringData@@XZ
_TEXT	SEGMENT PARA USE32 PUBLIC 'CODE'
_TEXT	ENDS
;	COMDAT ?Init@CString@@IAEXXZ
_TEXT	SEGMENT PARA USE32 PUBLIC 'CODE'
_TEXT	ENDS
;	COMDAT ??0CString@@QAE@XZ
_TEXT	SEGMENT PARA USE32 PUBLIC 'CODE'
_TEXT	ENDS
;	COMDAT ?GetLength@CString@@QBEHXZ
_TEXT	SEGMENT PARA USE32 PUBLIC 'CODE'
_TEXT	ENDS
;	COMDAT ?IsEmpty@CString@@QBEHXZ
_TEXT	SEGMENT PARA USE32 PUBLIC 'CODE'
_TEXT	ENDS
;	COMDAT ??BCString@@QBEPBDXZ
_TEXT	SEGMENT PARA USE32 PUBLIC 'CODE'
_TEXT	ENDS
;	COMDAT ?Compare@CString@@QBEHPBD@Z
_TEXT	SEGMENT PARA USE32 PUBLIC 'CODE'
_TEXT	ENDS
;	COMDAT ?GetAt@CString@@QBEDH@Z
_TEXT	SEGMENT PARA USE32 PUBLIC 'CODE'
_TEXT	ENDS
;	COMDAT ??ACString@@QBEDH@Z
_TEXT	SEGMENT PARA USE32 PUBLIC 'CODE'
_TEXT	ENDS
;	COMDAT ??8@YG_NABVCString@@0@Z
_TEXT	SEGMENT PARA USE32 PUBLIC 'CODE'
_TEXT	ENDS
;	COMDAT ??8@YG_NABVCString@@PBD@Z
_TEXT	SEGMENT PARA USE32 PUBLIC 'CODE'
_TEXT	ENDS
;	COMDAT ??9@YG_NABVCString@@0@Z
_TEXT	SEGMENT PARA USE32 PUBLIC 'CODE'
_TEXT	ENDS
;	COMDAT ??0CTimeSpan@@QAE@J@Z
_TEXT	SEGMENT PARA USE32 PUBLIC 'CODE'
_TEXT	ENDS
;	COMDAT ??0CTimeSpan@@QAE@ABV0@@Z
_TEXT	SEGMENT PARA USE32 PUBLIC 'CODE'
_TEXT	ENDS
;	COMDAT ?GetDays@CTimeSpan@@QBEJXZ
_TEXT	SEGMENT PARA USE32 PUBLIC 'CODE'
_TEXT	ENDS
;	COMDAT ?GetTotalHours@CTimeSpan@@QBEJXZ
_TEXT	SEGMENT PARA USE32 PUBLIC 'CODE'
_TEXT	ENDS
;	COMDAT ?GetTotalMinutes@CTimeSpan@@QBEJXZ
_TEXT	SEGMENT PARA USE32 PUBLIC 'CODE'
_TEXT	ENDS
;	COMDAT ?GetTotalSeconds@CTimeSpan@@QBEJXZ
_TEXT	SEGMENT PARA USE32 PUBLIC 'CODE'
_TEXT	ENDS
;	COMDAT ??0CTime@@QAE@J@Z
_TEXT	SEGMENT PARA USE32 PUBLIC 'CODE'
_TEXT	ENDS
;	COMDAT ??0CTime@@QAE@ABV0@@Z
_TEXT	SEGMENT PARA USE32 PUBLIC 'CODE'
_TEXT	ENDS
;	COMDAT ?IsStoring@CArchive@@QBEHXZ
_TEXT	SEGMENT PARA USE32 PUBLIC 'CODE'
_TEXT	ENDS
;	COMDAT ??6CArchive@@QAEAAV0@H@Z
_TEXT	SEGMENT PARA USE32 PUBLIC 'CODE'
_TEXT	ENDS
;	COMDAT ??6CArchive@@QAEAAV0@E@Z
_TEXT	SEGMENT PARA USE32 PUBLIC 'CODE'
_TEXT	ENDS
;	COMDAT ??6CArchive@@QAEAAV0@G@Z
_TEXT	SEGMENT PARA USE32 PUBLIC 'CODE'
_TEXT	ENDS
;	COMDAT ??6CArchive@@QAEAAV0@J@Z
_TEXT	SEGMENT PARA USE32 PUBLIC 'CODE'
_TEXT	ENDS
;	COMDAT ??5CArchive@@QAEAAV0@AAH@Z
_TEXT	SEGMENT PARA USE32 PUBLIC 'CODE'
_TEXT	ENDS
;	COMDAT ??5CArchive@@QAEAAV0@AAE@Z
_TEXT	SEGMENT PARA USE32 PUBLIC 'CODE'
_TEXT	ENDS
;	COMDAT ??5CArchive@@QAEAAV0@AAG@Z
_TEXT	SEGMENT PARA USE32 PUBLIC 'CODE'
_TEXT	ENDS
;	COMDAT ??5CArchive@@QAEAAV0@AAJ@Z
_TEXT	SEGMENT PARA USE32 PUBLIC 'CODE'
_TEXT	ENDS
;	COMDAT ?AfxGetApp@@YGPAVCWinApp@@XZ
_TEXT	SEGMENT PARA USE32 PUBLIC 'CODE'
_TEXT	ENDS
;	COMDAT ?AfxGetInstanceHandle@@YGPAUHINSTANCE__@@XZ
_TEXT	SEGMENT PARA USE32 PUBLIC 'CODE'
_TEXT	ENDS
;	COMDAT ?AfxGetResourceHandle@@YGPAUHINSTANCE__@@XZ
_TEXT	SEGMENT PARA USE32 PUBLIC 'CODE'
_TEXT	ENDS
;	COMDAT ?AfxGetMainWnd@@YGPAVCWnd@@XZ
_TEXT	SEGMENT PARA USE32 PUBLIC 'CODE'
_TEXT	ENDS
;	COMDAT ??0CSize@@QAE@XZ
_TEXT	SEGMENT PARA USE32 PUBLIC 'CODE'
_TEXT	ENDS
;	COMDAT ??0CSize@@QAE@HH@Z
_TEXT	SEGMENT PARA USE32 PUBLIC 'CODE'
_TEXT	ENDS
;	COMDAT ??0CSize@@QAE@UtagSIZE@@@Z
_TEXT	SEGMENT PARA USE32 PUBLIC 'CODE'
_TEXT	ENDS
;	COMDAT ??0CSize@@QAE@UtagPOINT@@@Z
_TEXT	SEGMENT PARA USE32 PUBLIC 'CODE'
_TEXT	ENDS
;	COMDAT ??0CSize@@QAE@K@Z
_TEXT	SEGMENT PARA USE32 PUBLIC 'CODE'
_TEXT	ENDS
;	COMDAT ??0CPoint@@QAE@XZ
_TEXT	SEGMENT PARA USE32 PUBLIC 'CODE'
_TEXT	ENDS
;	COMDAT ??0CPoint@@QAE@HH@Z
_TEXT	SEGMENT PARA USE32 PUBLIC 'CODE'
_TEXT	ENDS
;	COMDAT ??0CPoint@@QAE@UtagPOINT@@@Z
_TEXT	SEGMENT PARA USE32 PUBLIC 'CODE'
_TEXT	ENDS
;	COMDAT ??0CPoint@@QAE@UtagSIZE@@@Z
_TEXT	SEGMENT PARA USE32 PUBLIC 'CODE'
_TEXT	ENDS
;	COMDAT ??0CPoint@@QAE@K@Z
_TEXT	SEGMENT PARA USE32 PUBLIC 'CODE'
_TEXT	ENDS
;	COMDAT ??0CRect@@QAE@XZ
_TEXT	SEGMENT PARA USE32 PUBLIC 'CODE'
_TEXT	ENDS
;	COMDAT ??0CRect@@QAE@HHHH@Z
_TEXT	SEGMENT PARA USE32 PUBLIC 'CODE'
_TEXT	ENDS
;	COMDAT ??0CRect@@QAE@PBUtagRECT@@@Z
_TEXT	SEGMENT PARA USE32 PUBLIC 'CODE'
_TEXT	ENDS
;	COMDAT ?Width@CRect@@QBEHXZ
_TEXT	SEGMENT PARA USE32 PUBLIC 'CODE'
_TEXT	ENDS
;	COMDAT ?Height@CRect@@QBEHXZ
_TEXT	SEGMENT PARA USE32 PUBLIC 'CODE'
_TEXT	ENDS
;	COMDAT ?SwapLeftRight@CRect@@SAXPAUtagRECT@@@Z
_TEXT	SEGMENT PARA USE32 PUBLIC 'CODE'
_TEXT	ENDS
;	COMDAT ??BCRect@@QAEPAUtagRECT@@XZ
_TEXT	SEGMENT PARA USE32 PUBLIC 'CODE'
_TEXT	ENDS
;	COMDAT ?IsRectEmpty@CRect@@QBEHXZ
_TEXT	SEGMENT PARA USE32 PUBLIC 'CODE'
_TEXT	ENDS
;	COMDAT ?PtInRect@CRect@@QBEHUtagPOINT@@@Z
_TEXT	SEGMENT PARA USE32 PUBLIC 'CODE'
_TEXT	ENDS
;	COMDAT ?SetRect@CRect@@QAEXHHHH@Z
_TEXT	SEGMENT PARA USE32 PUBLIC 'CODE'
_TEXT	ENDS
;	COMDAT ?SetRectEmpty@CRect@@QAEXXZ
_TEXT	SEGMENT PARA USE32 PUBLIC 'CODE'
_TEXT	ENDS
;	COMDAT ?CopyRect@CRect@@QAEXPBUtagRECT@@@Z
_TEXT	SEGMENT PARA USE32 PUBLIC 'CODE'
_TEXT	ENDS
;	COMDAT ??9CRect@@QBEHABUtagRECT@@@Z
_TEXT	SEGMENT PARA USE32 PUBLIC 'CODE'
_TEXT	ENDS
;	COMDAT ??HCRect@@QBE?AV0@UtagPOINT@@@Z
_TEXT	SEGMENT PARA USE32 PUBLIC 'CODE'
_TEXT	ENDS
;	COMDAT ??GCRect@@QBE?AV0@UtagPOINT@@@Z
_TEXT	SEGMENT PARA USE32 PUBLIC 'CODE'
_TEXT	ENDS
;	COMDAT ??HCRect@@QBE?AV0@UtagSIZE@@@Z
_TEXT	SEGMENT PARA USE32 PUBLIC 'CODE'
_TEXT	ENDS
;	COMDAT ??GCRect@@QBE?AV0@UtagSIZE@@@Z
_TEXT	SEGMENT PARA USE32 PUBLIC 'CODE'
_TEXT	ENDS
;	COMDAT ??6@YGAAVCArchive@@AAV0@ABUtagRECT@@@Z
_TEXT	SEGMENT PARA USE32 PUBLIC 'CODE'
_TEXT	ENDS
;	COMDAT ??5@YGAAVCArchive@@AAV0@AAUtagRECT@@@Z
_TEXT	SEGMENT PARA USE32 PUBLIC 'CODE'
_TEXT	ENDS
;	COMDAT ??_GCResourceException@@UAEPAXI@Z
_TEXT	SEGMENT PARA USE32 PUBLIC 'CODE'
_TEXT	ENDS
;	COMDAT ??1CResourceException@@UAE@XZ
_TEXT	SEGMENT PARA USE32 PUBLIC 'CODE'
_TEXT	ENDS
;	COMDAT ??_GCUserException@@UAEPAXI@Z
_TEXT	SEGMENT PARA USE32 PUBLIC 'CODE'
_TEXT	ENDS
;	COMDAT ??1CUserException@@UAE@XZ
_TEXT	SEGMENT PARA USE32 PUBLIC 'CODE'
_TEXT	ENDS
;	COMDAT ??BCGdiObject@@QBEPAXXZ
_TEXT	SEGMENT PARA USE32 PUBLIC 'CODE'
_TEXT	ENDS
;	COMDAT ?GetSafeHandle@CGdiObject@@QBEPAXXZ
_TEXT	SEGMENT PARA USE32 PUBLIC 'CODE'
_TEXT	ENDS
;	COMDAT ??0CGdiObject@@QAE@XZ
_TEXT	SEGMENT PARA USE32 PUBLIC 'CODE'
_TEXT	ENDS
;	COMDAT ??_GCGdiObject@@UAEPAXI@Z
_TEXT	SEGMENT PARA USE32 PUBLIC 'CODE'
_TEXT	ENDS
;	COMDAT ??1CGdiObject@@UAE@XZ
_TEXT	SEGMENT PARA USE32 PUBLIC 'CODE'
_TEXT	ENDS
;	COMDAT ?FromHandle@CPen@@SGPAV1@PAUHPEN__@@@Z
_TEXT	SEGMENT PARA USE32 PUBLIC 'CODE'
_TEXT	ENDS
;	COMDAT ??_GCPen@@UAEPAXI@Z
_TEXT	SEGMENT PARA USE32 PUBLIC 'CODE'
_TEXT	ENDS
;	COMDAT ??1CPen@@UAE@XZ
_TEXT	SEGMENT PARA USE32 PUBLIC 'CODE'
_TEXT	ENDS
;	COMDAT ?FromHandle@CBrush@@SGPAV1@PAUHBRUSH__@@@Z
_TEXT	SEGMENT PARA USE32 PUBLIC 'CODE'
_TEXT	ENDS
;	COMDAT ??0CBrush@@QAE@XZ
_TEXT	SEGMENT PARA USE32 PUBLIC 'CODE'
_TEXT	ENDS
;	COMDAT ??_GCBrush@@UAEPAXI@Z
_TEXT	SEGMENT PARA USE32 PUBLIC 'CODE'
_TEXT	ENDS
;	COMDAT ??1CBrush@@UAE@XZ
_TEXT	SEGMENT PARA USE32 PUBLIC 'CODE'
_TEXT	ENDS
;	COMDAT ?FromHandle@CFont@@SGPAV1@PAUHFONT__@@@Z
_TEXT	SEGMENT PARA USE32 PUBLIC 'CODE'
_TEXT	ENDS
;	COMDAT ??0CFont@@QAE@XZ
_TEXT	SEGMENT PARA USE32 PUBLIC 'CODE'
_TEXT	ENDS
;	COMDAT ??_GCFont@@UAEPAXI@Z
_TEXT	SEGMENT PARA USE32 PUBLIC 'CODE'
_TEXT	ENDS
;	COMDAT ??1CFont@@UAE@XZ
_TEXT	SEGMENT PARA USE32 PUBLIC 'CODE'
_TEXT	ENDS
;	COMDAT ?CreateFontIndirectA@CFont@@QAEHPBUtagLOGFONTA@@@Z
_TEXT	SEGMENT PARA USE32 PUBLIC 'CODE'
_TEXT	ENDS
;	COMDAT ?GetLogFont@CFont@@QAEHPAUtagLOGFONTA@@@Z
_TEXT	SEGMENT PARA USE32 PUBLIC 'CODE'
_TEXT	ENDS
;	COMDAT ?FromHandle@CBitmap@@SGPAV1@PAUHBITMAP__@@@Z
_TEXT	SEGMENT PARA USE32 PUBLIC 'CODE'
_TEXT	ENDS
;	COMDAT ??0CBitmap@@QAE@XZ
_TEXT	SEGMENT PARA USE32 PUBLIC 'CODE'
_TEXT	ENDS
;	COMDAT ??_GCBitmap@@UAEPAXI@Z
_TEXT	SEGMENT PARA USE32 PUBLIC 'CODE'
_TEXT	ENDS
;	COMDAT ??1CBitmap@@UAE@XZ
_TEXT	SEGMENT PARA USE32 PUBLIC 'CODE'
_TEXT	ENDS
;	COMDAT ?FromHandle@CPalette@@SGPAV1@PAUHPALETTE__@@@Z
_TEXT	SEGMENT PARA USE32 PUBLIC 'CODE'
_TEXT	ENDS
;	COMDAT ??_GCPalette@@UAEPAXI@Z
_TEXT	SEGMENT PARA USE32 PUBLIC 'CODE'
_TEXT	ENDS
;	COMDAT ??1CPalette@@UAE@XZ
_TEXT	SEGMENT PARA USE32 PUBLIC 'CODE'
_TEXT	ENDS
;	COMDAT ??0CRgn@@QAE@XZ
_TEXT	SEGMENT PARA USE32 PUBLIC 'CODE'
_TEXT	ENDS
;	COMDAT ??_GCRgn@@UAEPAXI@Z
_TEXT	SEGMENT PARA USE32 PUBLIC 'CODE'
_TEXT	ENDS
;	COMDAT ??1CRgn@@UAE@XZ
_TEXT	SEGMENT PARA USE32 PUBLIC 'CODE'
_TEXT	ENDS
;	COMDAT ?GetSafeHdc@CDC@@QBEPAUHDC__@@XZ
_TEXT	SEGMENT PARA USE32 PUBLIC 'CODE'
_TEXT	ENDS
;	COMDAT ?SetViewportOrg@CDC@@QAE?AVCPoint@@UtagPOINT@@@Z
_TEXT	SEGMENT PARA USE32 PUBLIC 'CODE'
_TEXT	ENDS
;	COMDAT ?PtVisible@CDC@@UBEHHH@Z
_TEXT	SEGMENT PARA USE32 PUBLIC 'CODE'
_TEXT	ENDS
;	COMDAT ?RectVisible@CDC@@UBEHPBUtagRECT@@@Z
_TEXT	SEGMENT PARA USE32 PUBLIC 'CODE'
_TEXT	ENDS
;	COMDAT ?Polygon@CDC@@QAEHPAUtagPOINT@@H@Z
_TEXT	SEGMENT PARA USE32 PUBLIC 'CODE'
_TEXT	ENDS
;	COMDAT ?TextOutA@CDC@@UAEHHHPBDH@Z
_TEXT	SEGMENT PARA USE32 PUBLIC 'CODE'
_TEXT	ENDS
;	COMDAT ?ExtTextOutA@CDC@@UAEHHHIPBUtagRECT@@PBDIPAH@Z
_TEXT	SEGMENT PARA USE32 PUBLIC 'CODE'
_TEXT	ENDS
;	COMDAT ?TabbedTextOutA@CDC@@UAE?AVCSize@@HHPBDHHPAHH@Z
_TEXT	SEGMENT PARA USE32 PUBLIC 'CODE'
_TEXT	ENDS
;	COMDAT ?DrawTextA@CDC@@UAEHPBDHPAUtagRECT@@I@Z
_TEXT	SEGMENT PARA USE32 PUBLIC 'CODE'
_TEXT	ENDS
;	COMDAT ?DrawTextA@CDC@@QAEHABVCString@@PAUtagRECT@@I@Z
_TEXT	SEGMENT PARA USE32 PUBLIC 'CODE'
_TEXT	ENDS
;	COMDAT ?GetTextExtent@CDC@@QBE?AVCSize@@ABVCString@@@Z
_TEXT	SEGMENT PARA USE32 PUBLIC 'CODE'
_TEXT	ENDS
;	COMDAT ?GrayStringA@CDC@@UAEHPAVCBrush@@P6GHPAUHDC__@@JH@ZJHHHHH@Z
_TEXT	SEGMENT PARA USE32 PUBLIC 'CODE'
_TEXT	ENDS
;	COMDAT ?Escape@CDC@@UAEHHHPBDPAX@Z
_TEXT	SEGMENT PARA USE32 PUBLIC 'CODE'
_TEXT	ENDS
;	COMDAT ??0CMenu@@QAE@XZ
_TEXT	SEGMENT PARA USE32 PUBLIC 'CODE'
_TEXT	ENDS
;	COMDAT ??_GCMenu@@UAEPAXI@Z
_TEXT	SEGMENT PARA USE32 PUBLIC 'CODE'
_TEXT	ENDS
;	COMDAT ??1CMenu@@UAE@XZ
_TEXT	SEGMENT PARA USE32 PUBLIC 'CODE'
_TEXT	ENDS
;	COMDAT ?CreatePopupMenu@CMenu@@QAEHXZ
_TEXT	SEGMENT PARA USE32 PUBLIC 'CODE'
_TEXT	ENDS
;	COMDAT ??BCMenu@@QBEPAUHMENU__@@XZ
_TEXT	SEGMENT PARA USE32 PUBLIC 'CODE'
_TEXT	ENDS
;	COMDAT ?GetSafeHmenu@CMenu@@QBEPAUHMENU__@@XZ
_TEXT	SEGMENT PARA USE32 PUBLIC 'CODE'
_TEXT	ENDS
;	COMDAT ?AppendMenuA@CMenu@@QAEHIIPBD@Z
_TEXT	SEGMENT PARA USE32 PUBLIC 'CODE'
_TEXT	ENDS
;	COMDAT ?CheckMenuItem@CMenu@@QAEIII@Z
_TEXT	SEGMENT PARA USE32 PUBLIC 'CODE'
_TEXT	ENDS
;	COMDAT ?GetSubMenu@CMenu@@QBEPAV1@H@Z
_TEXT	SEGMENT PARA USE32 PUBLIC 'CODE'
_TEXT	ENDS
;	COMDAT ?LoadMenuA@CMenu@@QAEHI@Z
_TEXT	SEGMENT PARA USE32 PUBLIC 'CODE'
_TEXT	ENDS
;	COMDAT ??BCWnd@@QBEPAUHWND__@@XZ
_TEXT	SEGMENT PARA USE32 PUBLIC 'CODE'
_TEXT	ENDS
;	COMDAT ?GetSafeHwnd@CWnd@@QBEPAUHWND__@@XZ
_TEXT	SEGMENT PARA USE32 PUBLIC 'CODE'
_TEXT	ENDS
;	COMDAT ?SendMessageA@CWnd@@QAEJIIJ@Z
_TEXT	SEGMENT PARA USE32 PUBLIC 'CODE'
_TEXT	ENDS
;	COMDAT ?MoveWindow@CWnd@@QAEXPBUtagRECT@@H@Z
_TEXT	SEGMENT PARA USE32 PUBLIC 'CODE'
_TEXT	ENDS
;	COMDAT ?GetClientRect@CWnd@@QBEXPAUtagRECT@@@Z
_TEXT	SEGMENT PARA USE32 PUBLIC 'CODE'
_TEXT	ENDS
;	COMDAT ?UpdateWindow@CWnd@@QAEXXZ
_TEXT	SEGMENT PARA USE32 PUBLIC 'CODE'
_TEXT	ENDS
;	COMDAT ?Invalidate@CWnd@@QAEXH@Z
_TEXT	SEGMENT PARA USE32 PUBLIC 'CODE'
_TEXT	ENDS
;	COMDAT ?InvalidateRect@CWnd@@QAEXPBUtagRECT@@H@Z
_TEXT	SEGMENT PARA USE32 PUBLIC 'CODE'
_TEXT	ENDS
;	COMDAT ?IsWindowVisible@CWnd@@QBEHXZ
_TEXT	SEGMENT PARA USE32 PUBLIC 'CODE'
_TEXT	ENDS
;	COMDAT ?RedrawWindow@CWnd@@QAEHPBUtagRECT@@PAVCRgn@@I@Z
_TEXT	SEGMENT PARA USE32 PUBLIC 'CODE'
_TEXT	ENDS
;	COMDAT ?SetTimer@CWnd@@QAEIIIP6GXPAUHWND__@@IIK@Z@Z
_TEXT	SEGMENT PARA USE32 PUBLIC 'CODE'
_TEXT	ENDS
;	COMDAT ?KillTimer@CWnd@@QAEHH@Z
_TEXT	SEGMENT PARA USE32 PUBLIC 'CODE'
_TEXT	ENDS
;	COMDAT ?GetFocus@CWnd@@SGPAV1@XZ
_TEXT	SEGMENT PARA USE32 PUBLIC 'CODE'
_TEXT	ENDS
;	COMDAT ?GetParent@CWnd@@QBEPAV1@XZ
_TEXT	SEGMENT PARA USE32 PUBLIC 'CODE'
_TEXT	ENDS
;	COMDAT ?OpenClipboard@CWnd@@QAEHXZ
_TEXT	SEGMENT PARA USE32 PUBLIC 'CODE'
_TEXT	ENDS
;	COMDAT ?HideCaret@CWnd@@QAEXXZ
_TEXT	SEGMENT PARA USE32 PUBLIC 'CODE'
_TEXT	ENDS
;	COMDAT ?ShowCaret@CWnd@@QAEXXZ
_TEXT	SEGMENT PARA USE32 PUBLIC 'CODE'
_TEXT	ENDS
;	COMDAT ?OnContextMenu@CWnd@@IAEXPAV1@VCPoint@@@Z
_TEXT	SEGMENT PARA USE32 PUBLIC 'CODE'
_TEXT	ENDS
;	COMDAT ?OnCreate@CWnd@@IAEHPAUtagCREATESTRUCTA@@@Z
_TEXT	SEGMENT PARA USE32 PUBLIC 'CODE'
_TEXT	ENDS
;	COMDAT ?OnSize@CWnd@@IAEXIHH@Z
_TEXT	SEGMENT PARA USE32 PUBLIC 'CODE'
_TEXT	ENDS
;	COMDAT ?OnWindowPosChanged@CWnd@@IAEXPAUtagWINDOWPOS@@@Z
_TEXT	SEGMENT PARA USE32 PUBLIC 'CODE'
_TEXT	ENDS
;	COMDAT ?OnChar@CWnd@@IAEXIII@Z
_TEXT	SEGMENT PARA USE32 PUBLIC 'CODE'
_TEXT	ENDS
;	COMDAT ?OnLButtonDown@CWnd@@IAEXIVCPoint@@@Z
_TEXT	SEGMENT PARA USE32 PUBLIC 'CODE'
_TEXT	ENDS
;	COMDAT ?OnRButtonDown@CWnd@@IAEXIVCPoint@@@Z
_TEXT	SEGMENT PARA USE32 PUBLIC 'CODE'
_TEXT	ENDS
;	COMDAT ?DoDataExchange@CWnd@@MAEXPAVCDataExchange@@@Z
_TEXT	SEGMENT PARA USE32 PUBLIC 'CODE'
_TEXT	ENDS
;	COMDAT ?BeginModalState@CWnd@@UAEXXZ
_TEXT	SEGMENT PARA USE32 PUBLIC 'CODE'
_TEXT	ENDS
;	COMDAT ?EndModalState@CWnd@@UAEXXZ
_TEXT	SEGMENT PARA USE32 PUBLIC 'CODE'
_TEXT	ENDS
;	COMDAT ??_GCStatic@@UAEPAXI@Z
_TEXT	SEGMENT PARA USE32 PUBLIC 'CODE'
_TEXT	ENDS
;	COMDAT ??0CButton@@QAE@XZ
_TEXT	SEGMENT PARA USE32 PUBLIC 'CODE'
_TEXT	ENDS
;	COMDAT ??_GCButton@@UAEPAXI@Z
_TEXT	SEGMENT PARA USE32 PUBLIC 'CODE'
_TEXT	ENDS
;	COMDAT ??0CListBox@@QAE@XZ
_TEXT	SEGMENT PARA USE32 PUBLIC 'CODE'
_TEXT	ENDS
;	COMDAT ??_GCListBox@@UAEPAXI@Z
_TEXT	SEGMENT PARA USE32 PUBLIC 'CODE'
_TEXT	ENDS
;	COMDAT ?GetCount@CListBox@@QBEHXZ
_TEXT	SEGMENT PARA USE32 PUBLIC 'CODE'
_TEXT	ENDS
;	COMDAT ?GetCurSel@CListBox@@QBEHXZ
_TEXT	SEGMENT PARA USE32 PUBLIC 'CODE'
_TEXT	ENDS
;	COMDAT ?SetCurSel@CListBox@@QAEHH@Z
_TEXT	SEGMENT PARA USE32 PUBLIC 'CODE'
_TEXT	ENDS
;	COMDAT ?SetTopIndex@CListBox@@QAEHH@Z
_TEXT	SEGMENT PARA USE32 PUBLIC 'CODE'
_TEXT	ENDS
;	COMDAT ?GetItemData@CListBox@@QBEKH@Z
_TEXT	SEGMENT PARA USE32 PUBLIC 'CODE'
_TEXT	ENDS
;	COMDAT ?SetItemData@CListBox@@QAEHHK@Z
_TEXT	SEGMENT PARA USE32 PUBLIC 'CODE'
_TEXT	ENDS
;	COMDAT ?FindStringExact@CListBox@@QBEHHPBD@Z
_TEXT	SEGMENT PARA USE32 PUBLIC 'CODE'
_TEXT	ENDS
;	COMDAT ?AddString@CListBox@@QAEHPBD@Z
_TEXT	SEGMENT PARA USE32 PUBLIC 'CODE'
_TEXT	ENDS
;	COMDAT ?DeleteString@CListBox@@QAEHI@Z
_TEXT	SEGMENT PARA USE32 PUBLIC 'CODE'
_TEXT	ENDS
;	COMDAT ?InsertString@CListBox@@QAEHHPBD@Z
_TEXT	SEGMENT PARA USE32 PUBLIC 'CODE'
_TEXT	ENDS
;	COMDAT ?ResetContent@CListBox@@QAEXXZ
_TEXT	SEGMENT PARA USE32 PUBLIC 'CODE'
_TEXT	ENDS
;	COMDAT ?FindString@CListBox@@QBEHHPBD@Z
_TEXT	SEGMENT PARA USE32 PUBLIC 'CODE'
_TEXT	ENDS
;	COMDAT ??_GCCheckListBox@@UAEPAXI@Z
_TEXT	SEGMENT PARA USE32 PUBLIC 'CODE'
_TEXT	ENDS
;	COMDAT ??1CCheckListBox@@UAE@XZ
_TEXT	SEGMENT PARA USE32 PUBLIC 'CODE'
_TEXT	ENDS
;	COMDAT ??0CComboBox@@QAE@XZ
_TEXT	SEGMENT PARA USE32 PUBLIC 'CODE'
_TEXT	ENDS
;	COMDAT ??_GCComboBox@@UAEPAXI@Z
_TEXT	SEGMENT PARA USE32 PUBLIC 'CODE'
_TEXT	ENDS
;	COMDAT ?GetItemData@CComboBox@@QBEKH@Z
_TEXT	SEGMENT PARA USE32 PUBLIC 'CODE'
_TEXT	ENDS
;	COMDAT ?SetItemData@CComboBox@@QAEHHK@Z
_TEXT	SEGMENT PARA USE32 PUBLIC 'CODE'
_TEXT	ENDS
;	COMDAT ??_GCEdit@@UAEPAXI@Z
_TEXT	SEGMENT PARA USE32 PUBLIC 'CODE'
_TEXT	ENDS
;	COMDAT ?SetSel@CEdit@@QAEXHHH@Z
_TEXT	SEGMENT PARA USE32 PUBLIC 'CODE'
_TEXT	ENDS
;	COMDAT ??_GCScrollBar@@UAEPAXI@Z
_TEXT	SEGMENT PARA USE32 PUBLIC 'CODE'
_TEXT	ENDS
;	COMDAT ?GetDocument@CView@@QBEPAVCDocument@@XZ
_TEXT	SEGMENT PARA USE32 PUBLIC 'CODE'
_TEXT	ENDS
;	COMDAT ??_GCCommonDialog@@UAEPAXI@Z
_TEXT	SEGMENT PARA USE32 PUBLIC 'CODE'
_TEXT	ENDS
;	COMDAT ??1CCommonDialog@@UAE@XZ
_TEXT	SEGMENT PARA USE32 PUBLIC 'CODE'
_TEXT	ENDS
;	COMDAT ?PrintSelection@CPrintDialog@@QBEHXZ
_TEXT	SEGMENT PARA USE32 PUBLIC 'CODE'
_TEXT	ENDS
;	COMDAT ?PrintRange@CPrintDialog@@QBEHXZ
_TEXT	SEGMENT PARA USE32 PUBLIC 'CODE'
_TEXT	ENDS
;	COMDAT ?SetBorders@CStatusBar@@QAEXHHHH@Z
_TEXT	SEGMENT PARA USE32 PUBLIC 'CODE'
_TEXT	ENDS
;	COMDAT ??_GCRectTracker@@UAEPAXI@Z
_TEXT	SEGMENT PARA USE32 PUBLIC 'CODE'
_TEXT	ENDS
;	COMDAT ??_GCBitmapButton@@UAEPAXI@Z
_TEXT	SEGMENT PARA USE32 PUBLIC 'CODE'
_TEXT	ENDS
;	COMDAT ??1CBitmapButton@@UAE@XZ
_TEXT	SEGMENT PARA USE32 PUBLIC 'CODE'
_TEXT	ENDS
;	COMDAT ??_GCOleException@@UAEPAXI@Z
_TEXT	SEGMENT PARA USE32 PUBLIC 'CODE'
_TEXT	ENDS
;	COMDAT ??1COleException@@UAE@XZ
_TEXT	SEGMENT PARA USE32 PUBLIC 'CODE'
_TEXT	ENDS
;	COMDAT ?InternalAddRef@CCmdTarget@@QAEKXZ
_TEXT	SEGMENT PARA USE32 PUBLIC 'CODE'
_TEXT	ENDS
;	COMDAT ??0COleVariant@@QAE@XZ
_TEXT	SEGMENT PARA USE32 PUBLIC 'CODE'
_TEXT	ENDS
;	COMDAT ??1COleVariant@@QAE@XZ
_TEXT	SEGMENT PARA USE32 PUBLIC 'CODE'
_TEXT	ENDS
;	COMDAT ??0COleVariant@@QAE@N@Z
_TEXT	SEGMENT PARA USE32 PUBLIC 'CODE'
_TEXT	ENDS
;	COMDAT ??BCOleVariant@@QAEPAUtagVARIANT@@XZ
_TEXT	SEGMENT PARA USE32 PUBLIC 'CODE'
_TEXT	ENDS
;	COMDAT ?SetStatus@COleCurrency@@QAEXW4CurrencyStatus@1@@Z
_TEXT	SEGMENT PARA USE32 PUBLIC 'CODE'
_TEXT	ENDS
;	COMDAT ??0COleDateTime@@QAE@XZ
_TEXT	SEGMENT PARA USE32 PUBLIC 'CODE'
_TEXT	ENDS
;	COMDAT ??0COleDateTime@@QAE@ABV0@@Z
_TEXT	SEGMENT PARA USE32 PUBLIC 'CODE'
_TEXT	ENDS
;	COMDAT ??0COleDateTime@@QAE@N@Z
_TEXT	SEGMENT PARA USE32 PUBLIC 'CODE'
_TEXT	ENDS
;	COMDAT ??0COleDateTime@@QAE@ABU_SYSTEMTIME@@@Z
_TEXT	SEGMENT PARA USE32 PUBLIC 'CODE'
_TEXT	ENDS
;	COMDAT ??0COleDateTime@@QAE@HHHHHH@Z
_TEXT	SEGMENT PARA USE32 PUBLIC 'CODE'
_TEXT	ENDS
;	COMDAT ??4COleDateTime@@QAEABV0@ABV0@@Z
_TEXT	SEGMENT PARA USE32 PUBLIC 'CODE'
_TEXT	ENDS
;	COMDAT ?GetStatus@COleDateTime@@QBE?AW4DateTimeStatus@1@XZ
_TEXT	SEGMENT PARA USE32 PUBLIC 'CODE'
_TEXT	ENDS
;	COMDAT ?SetStatus@COleDateTime@@QAEXW4DateTimeStatus@1@@Z
_TEXT	SEGMENT PARA USE32 PUBLIC 'CODE'
_TEXT	ENDS
;	COMDAT ??ZCOleDateTime@@QAEABV0@VCOleDateTimeSpan@@@Z
_TEXT	SEGMENT PARA USE32 PUBLIC 'CODE'
_TEXT	ENDS
;	COMDAT ??BCOleDateTime@@QBENXZ
_TEXT	SEGMENT PARA USE32 PUBLIC 'CODE'
_TEXT	ENDS
;	COMDAT ?SetDate@COleDateTime@@QAEHHHH@Z
_TEXT	SEGMENT PARA USE32 PUBLIC 'CODE'
_TEXT	ENDS
;	COMDAT ??0COleDateTimeSpan@@QAE@XZ
_TEXT	SEGMENT PARA USE32 PUBLIC 'CODE'
_TEXT	ENDS
;	COMDAT ??0COleDateTimeSpan@@QAE@N@Z
_TEXT	SEGMENT PARA USE32 PUBLIC 'CODE'
_TEXT	ENDS
;	COMDAT ??0COleDateTimeSpan@@QAE@ABV0@@Z
_TEXT	SEGMENT PARA USE32 PUBLIC 'CODE'
_TEXT	ENDS
;	COMDAT ??0COleDateTimeSpan@@QAE@JHHH@Z
_TEXT	SEGMENT PARA USE32 PUBLIC 'CODE'
_TEXT	ENDS
;	COMDAT ?SetStatus@COleDateTimeSpan@@QAEXW4DateTimeSpanStatus@1@@Z
_TEXT	SEGMENT PARA USE32 PUBLIC 'CODE'
_TEXT	ENDS
;	COMDAT ?GetTotalDays@COleDateTimeSpan@@QBENXZ
_TEXT	SEGMENT PARA USE32 PUBLIC 'CODE'
_TEXT	ENDS
;	COMDAT ?GetTotalHours@COleDateTimeSpan@@QBENXZ
_TEXT	SEGMENT PARA USE32 PUBLIC 'CODE'
_TEXT	ENDS
;	COMDAT ??BCOleDateTimeSpan@@QBENXZ
_TEXT	SEGMENT PARA USE32 PUBLIC 'CODE'
_TEXT	ENDS
;	COMDAT ?Clear@COleSafeArray@@QAEXXZ
_TEXT	SEGMENT PARA USE32 PUBLIC 'CODE'
_TEXT	ENDS
;	COMDAT ??_GCDateTimeCtrl@@UAEPAXI@Z
_TEXT	SEGMENT PARA USE32 PUBLIC 'CODE'
_TEXT	ENDS
;	COMDAT ??_GCMonthCalCtrl@@UAEPAXI@Z
_TEXT	SEGMENT PARA USE32 PUBLIC 'CODE'
_TEXT	ENDS
;	COMDAT ??_GCDragListBox@@UAEPAXI@Z
_TEXT	SEGMENT PARA USE32 PUBLIC 'CODE'
_TEXT	ENDS
;	COMDAT ??_GCToolBarCtrl@@UAEPAXI@Z
_TEXT	SEGMENT PARA USE32 PUBLIC 'CODE'
_TEXT	ENDS
;	COMDAT ??_GCStatusBarCtrl@@UAEPAXI@Z
_TEXT	SEGMENT PARA USE32 PUBLIC 'CODE'
_TEXT	ENDS
;	COMDAT ??0CListCtrl@@QAE@XZ
_TEXT	SEGMENT PARA USE32 PUBLIC 'CODE'
_TEXT	ENDS
;	COMDAT ??_GCListCtrl@@UAEPAXI@Z
_TEXT	SEGMENT PARA USE32 PUBLIC 'CODE'
_TEXT	ENDS
;	COMDAT ?GetItemCount@CListCtrl@@QBEHXZ
_TEXT	SEGMENT PARA USE32 PUBLIC 'CODE'
_TEXT	ENDS
;	COMDAT ?SetItemData@CListCtrl@@QAEHHK@Z
_TEXT	SEGMENT PARA USE32 PUBLIC 'CODE'
_TEXT	ENDS
;	COMDAT ?InsertItem@CListCtrl@@QAEHHPBDH@Z
_TEXT	SEGMENT PARA USE32 PUBLIC 'CODE'
_TEXT	ENDS
;	COMDAT ?DeleteItem@CListCtrl@@QAEHH@Z
_TEXT	SEGMENT PARA USE32 PUBLIC 'CODE'
_TEXT	ENDS
;	COMDAT ?GetNextItem@CListCtrl@@QBEHHH@Z
_TEXT	SEGMENT PARA USE32 PUBLIC 'CODE'
_TEXT	ENDS
;	COMDAT ?GetFirstSelectedItemPosition@CListCtrl@@QBEPAU__POSITION@@XZ
_TEXT	SEGMENT PARA USE32 PUBLIC 'CODE'
_TEXT	ENDS
;	COMDAT ?GetNextSelectedItem@CListCtrl@@QBEHAAPAU__POSITION@@@Z
_TEXT	SEGMENT PARA USE32 PUBLIC 'CODE'
_TEXT	ENDS
;	COMDAT ?GetColumn@CListCtrl@@QBEHHPAUtagLVCOLUMNA@@@Z
_TEXT	SEGMENT PARA USE32 PUBLIC 'CODE'
_TEXT	ENDS
;	COMDAT ?GetColumnWidth@CListCtrl@@QBEHH@Z
_TEXT	SEGMENT PARA USE32 PUBLIC 'CODE'
_TEXT	ENDS
;	COMDAT ?SetColumnWidth@CListCtrl@@QAEHHH@Z
_TEXT	SEGMENT PARA USE32 PUBLIC 'CODE'
_TEXT	ENDS
;	COMDAT ?GetSelectedCount@CListCtrl@@QBEIXZ
_TEXT	SEGMENT PARA USE32 PUBLIC 'CODE'
_TEXT	ENDS
;	COMDAT ??0CTreeCtrl@@QAE@XZ
_TEXT	SEGMENT PARA USE32 PUBLIC 'CODE'
_TEXT	ENDS
;	COMDAT ??_GCTreeCtrl@@UAEPAXI@Z
_TEXT	SEGMENT PARA USE32 PUBLIC 'CODE'
_TEXT	ENDS
;	COMDAT ?GetNextItem@CTreeCtrl@@QBEPAU_TREEITEM@@PAU2@I@Z
_TEXT	SEGMENT PARA USE32 PUBLIC 'CODE'
_TEXT	ENDS
;	COMDAT ?GetSelectedItem@CTreeCtrl@@QBEPAU_TREEITEM@@XZ
_TEXT	SEGMENT PARA USE32 PUBLIC 'CODE'
_TEXT	ENDS
;	COMDAT ??_GCHotKeyCtrl@@UAEPAXI@Z
_TEXT	SEGMENT PARA USE32 PUBLIC 'CODE'
_TEXT	ENDS
;	COMDAT ??_GCSpinButtonCtrl@@UAEPAXI@Z
_TEXT	SEGMENT PARA USE32 PUBLIC 'CODE'
_TEXT	ENDS
;	COMDAT ??_GCSliderCtrl@@UAEPAXI@Z
_TEXT	SEGMENT PARA USE32 PUBLIC 'CODE'
_TEXT	ENDS
;	COMDAT ??_GCProgressCtrl@@UAEPAXI@Z
_TEXT	SEGMENT PARA USE32 PUBLIC 'CODE'
_TEXT	ENDS
;	COMDAT ??_GCHeaderCtrl@@UAEPAXI@Z
_TEXT	SEGMENT PARA USE32 PUBLIC 'CODE'
_TEXT	ENDS
;	COMDAT ?GetItemCount@CHeaderCtrl@@QBEHXZ
_TEXT	SEGMENT PARA USE32 PUBLIC 'CODE'
_TEXT	ENDS
;	COMDAT ??BCImageList@@QBEPAU_IMAGELIST@@XZ
_TEXT	SEGMENT PARA USE32 PUBLIC 'CODE'
_TEXT	ENDS
;	COMDAT ?GetSafeHandle@CImageList@@QBEPAU_IMAGELIST@@XZ
_TEXT	SEGMENT PARA USE32 PUBLIC 'CODE'
_TEXT	ENDS
;	COMDAT ?Add@CImageList@@QAEHPAUHICON__@@@Z
_TEXT	SEGMENT PARA USE32 PUBLIC 'CODE'
_TEXT	ENDS
;	COMDAT ??_GCTabCtrl@@UAEPAXI@Z
_TEXT	SEGMENT PARA USE32 PUBLIC 'CODE'
_TEXT	ENDS
;	COMDAT ?SetImageList@CTabCtrl@@QAEPAVCImageList@@PAV2@@Z
_TEXT	SEGMENT PARA USE32 PUBLIC 'CODE'
_TEXT	ENDS
;	COMDAT ?GetCurSel@CTabCtrl@@QBEHXZ
_TEXT	SEGMENT PARA USE32 PUBLIC 'CODE'
_TEXT	ENDS
;	COMDAT ??_GCAnimateCtrl@@UAEPAXI@Z
_TEXT	SEGMENT PARA USE32 PUBLIC 'CODE'
_TEXT	ENDS
;	COMDAT ??_GCRichEditCtrl@@UAEPAXI@Z
_TEXT	SEGMENT PARA USE32 PUBLIC 'CODE'
_TEXT	ENDS
;	COMDAT ?SetExtendedStyle@CListCtrl@@QAEKK@Z
_TEXT	SEGMENT PARA USE32 PUBLIC 'CODE'
_TEXT	ENDS
;	COMDAT ?GetSelectionMark@CListCtrl@@QAEHXZ
_TEXT	SEGMENT PARA USE32 PUBLIC 'CODE'
_TEXT	ENDS
;	COMDAT ??_GCReBarCtrl@@UAEPAXI@Z
_TEXT	SEGMENT PARA USE32 PUBLIC 'CODE'
_TEXT	ENDS
;	COMDAT ??1CReBarCtrl@@UAE@XZ
_TEXT	SEGMENT PARA USE32 PUBLIC 'CODE'
_TEXT	ENDS
;	COMDAT ??_GCComboBoxEx@@UAEPAXI@Z
_TEXT	SEGMENT PARA USE32 PUBLIC 'CODE'
_TEXT	ENDS
;	COMDAT ??_GCIPAddressCtrl@@UAEPAXI@Z
_TEXT	SEGMENT PARA USE32 PUBLIC 'CODE'
_TEXT	ENDS
;	COMDAT ?data@CPlex@@QAEPAXXZ
text$AFX_COL1	SEGMENT PARA USE32 PUBLIC ''
text$AFX_COL1	ENDS
;	COMDAT ??2@YAPAXIPAX@Z
_TEXT	SEGMENT PARA USE32 PUBLIC 'CODE'
_TEXT	ENDS
;	COMDAT ??3@YAXPAX0@Z
_TEXT	SEGMENT PARA USE32 PUBLIC 'CODE'
_TEXT	ENDS
;	COMDAT ??_G?$CTypedPtrList@VCObList@@PAV1@@@UAEPAXI@Z
_TEXT	SEGMENT PARA USE32 PUBLIC 'CODE'
_TEXT	ENDS
;	COMDAT ??1?$_CTypedPtrList@VCObList@@PAV1@@@UAE@XZ
_TEXT	SEGMENT PARA USE32 PUBLIC 'CODE'
_TEXT	ENDS
;	COMDAT ??1?$CTypedPtrList@VCObList@@PAV1@@@UAE@XZ
_TEXT	SEGMENT PARA USE32 PUBLIC 'CODE'
_TEXT	ENDS
;	COMDAT ??_G?$CTypedPtrList@VCPtrList@@PAV1@@@UAEPAXI@Z
_TEXT	SEGMENT PARA USE32 PUBLIC 'CODE'
_TEXT	ENDS
;	COMDAT ??1?$_CTypedPtrList@VCPtrList@@PAV1@@@UAE@XZ
_TEXT	SEGMENT PARA USE32 PUBLIC 'CODE'
_TEXT	ENDS
;	COMDAT ??1?$CTypedPtrList@VCPtrList@@PAV1@@@UAE@XZ
_TEXT	SEGMENT PARA USE32 PUBLIC 'CODE'
_TEXT	ENDS
;	COMDAT ??0CLock@@QAE@AAU_RTL_CRITICAL_SECTION@@ABVCString@@@Z
_TEXT	SEGMENT PARA USE32 PUBLIC 'CODE'
_TEXT	ENDS
;	COMDAT ??1CLock@@QAE@XZ
_TEXT	SEGMENT PARA USE32 PUBLIC 'CODE'
_TEXT	ENDS
;	COMDAT ?Unlock@CLock@@QAEXXZ
_TEXT	SEGMENT PARA USE32 PUBLIC 'CODE'
_TEXT	ENDS
;	COMDAT ?Lock@CLock@@QAEXXZ
_TEXT	SEGMENT PARA USE32 PUBLIC 'CODE'
_TEXT	ENDS
;	COMDAT ??_GCMonikerFile@@UAEPAXI@Z
_TEXT	SEGMENT PARA USE32 PUBLIC 'CODE'
_TEXT	ENDS
;	COMDAT ?GetDocument@COleServerItem@@QBEPAVCOleServerDoc@@XZ
_TEXT	SEGMENT PARA USE32 PUBLIC 'CODE'
_TEXT	ENDS
;	COMDAT ?AtlA2WHelper@@YGPAGPAGPBDHI@Z
_TEXT	SEGMENT PARA USE32 PUBLIC 'CODE'
_TEXT	ENDS
;	COMDAT ?AtlW2AHelper@@YGPADPADPBGHI@Z
_TEXT	SEGMENT PARA USE32 PUBLIC 'CODE'
_TEXT	ENDS
;	COMDAT ?ocslen@@YAIPBG@Z
_TEXT	SEGMENT PARA USE32 PUBLIC 'CODE'
_TEXT	ENDS
;	COMDAT ?ocscpy@@YAPAGPAGPBG@Z
_TEXT	SEGMENT PARA USE32 PUBLIC 'CODE'
_TEXT	ENDS
;	COMDAT ?A2WBSTR@@YAPAGPBDH@Z
_TEXT	SEGMENT PARA USE32 PUBLIC 'CODE'
_TEXT	ENDS
;	COMDAT ??0CListView@@QAE@XZ
_TEXT	SEGMENT PARA USE32 PUBLIC 'CODE'
_TEXT	ENDS
;	COMDAT ??_GCListView@@UAEPAXI@Z
_TEXT	SEGMENT PARA USE32 PUBLIC 'CODE'
_TEXT	ENDS
;	COMDAT ??1CCtrlView@@UAE@XZ
_TEXT	SEGMENT PARA USE32 PUBLIC 'CODE'
_TEXT	ENDS
;	COMDAT ??1CListView@@UAE@XZ
_TEXT	SEGMENT PARA USE32 PUBLIC 'CODE'
_TEXT	ENDS
;	COMDAT ?GetListCtrl@CListView@@QBEAAVCListCtrl@@XZ
_TEXT	SEGMENT PARA USE32 PUBLIC 'CODE'
_TEXT	ENDS
;	COMDAT ??0CTreeView@@QAE@XZ
_TEXT	SEGMENT PARA USE32 PUBLIC 'CODE'
_TEXT	ENDS
;	COMDAT ??_GCTreeView@@UAEPAXI@Z
_TEXT	SEGMENT PARA USE32 PUBLIC 'CODE'
_TEXT	ENDS
;	COMDAT ??1CTreeView@@UAE@XZ
_TEXT	SEGMENT PARA USE32 PUBLIC 'CODE'
_TEXT	ENDS
;	COMDAT ?MEMCPY_S@@YAXPAXPBXI@Z
_TEXT	SEGMENT PARA USE32 PUBLIC 'CODE'
_TEXT	ENDS
;	COMDAT ?STRCPY_S@@YAXPADIPBD@Z
_TEXT	SEGMENT PARA USE32 PUBLIC 'CODE'
_TEXT	ENDS
;	COMDAT ?SetCustomValue@CXTPPaintManagerColor@@QAEXK@Z
_TEXT	SEGMENT PARA USE32 PUBLIC 'CODE'
_TEXT	ENDS
;	COMDAT ?SetStandardValue@CXTPPaintManagerColor@@QAEXK@Z
_TEXT	SEGMENT PARA USE32 PUBLIC 'CODE'
_TEXT	ENDS
;	COMDAT ??BCXTPPaintManagerColor@@QBEKXZ
_TEXT	SEGMENT PARA USE32 PUBLIC 'CODE'
_TEXT	ENDS
;	COMDAT ??4CXTPPaintManagerColor@@QAEABV0@K@Z
_TEXT	SEGMENT PARA USE32 PUBLIC 'CODE'
_TEXT	ENDS
;	COMDAT ??4CXTPPaintManagerColor@@QAEABV0@ABV0@@Z
_TEXT	SEGMENT PARA USE32 PUBLIC 'CODE'
_TEXT	ENDS
;	COMDAT ?XTPColorManager@@YAPAVCXTPColorManager@@XZ
_TEXT	SEGMENT PARA USE32 PUBLIC 'CODE'
_TEXT	ENDS
;	COMDAT ?GetXtremeColor@@YAKI@Z
_TEXT	SEGMENT PARA USE32 PUBLIC 'CODE'
_TEXT	ENDS
;	COMDAT ??1CXTPPrintingDialog@@UAE@XZ
_TEXT	SEGMENT PARA USE32 PUBLIC 'CODE'
_TEXT	ENDS
;	COMDAT ??_GCXTPPrintingDialog@@UAEPAXI@Z
_TEXT	SEGMENT PARA USE32 PUBLIC 'CODE'
_TEXT	ENDS
;	COMDAT ??1CBitmapDC@CXTPImageManagerResource@@UAE@XZ
_TEXT	SEGMENT PARA USE32 PUBLIC 'CODE'
_TEXT	ENDS
;	COMDAT ??_GCBitmapDC@CXTPImageManagerResource@@UAEPAXI@Z
_TEXT	SEGMENT PARA USE32 PUBLIC 'CODE'
_TEXT	ENDS
;	COMDAT ??_GCXTPImageManagerIcon@@UAEPAXI@Z
_TEXT	SEGMENT PARA USE32 PUBLIC 'CODE'
_TEXT	ENDS
;	COMDAT ??_GCXTPImageManagerIconSet@@UAEPAXI@Z
_TEXT	SEGMENT PARA USE32 PUBLIC 'CODE'
_TEXT	ENDS
;	COMDAT ?CheckError@_com_util@@YAXJ@Z
_TEXT	SEGMENT PARA USE32 PUBLIC 'CODE'
_TEXT	ENDS
;	COMDAT ??0_bstr_t@@QAE@ABV0@@Z
_TEXT	SEGMENT PARA USE32 PUBLIC 'CODE'
_TEXT	ENDS
;	COMDAT ??0_bstr_t@@QAE@PBD@Z
_TEXT	SEGMENT PARA USE32 PUBLIC 'CODE'
_TEXT	ENDS
;	COMDAT ??0_bstr_t@@QAE@PBG@Z
_TEXT	SEGMENT PARA USE32 PUBLIC 'CODE'
_TEXT	ENDS
;	COMDAT ??0_bstr_t@@QAE@PAG_N@Z
_TEXT	SEGMENT PARA USE32 PUBLIC 'CODE'
_TEXT	ENDS
;	COMDAT ??1_bstr_t@@QAE@XZ
_TEXT	SEGMENT PARA USE32 PUBLIC 'CODE'
_TEXT	ENDS
;	COMDAT ??4_bstr_t@@QAEAAV0@PBG@Z
_TEXT	SEGMENT PARA USE32 PUBLIC 'CODE'
_TEXT	ENDS
;	COMDAT ??Y_bstr_t@@QAEAAV0@ABV0@@Z
_TEXT	SEGMENT PARA USE32 PUBLIC 'CODE'
_TEXT	ENDS
;	COMDAT ??B_bstr_t@@QBEPBGXZ
_TEXT	SEGMENT PARA USE32 PUBLIC 'CODE'
_TEXT	ENDS
;	COMDAT ??B_bstr_t@@QBEPAGXZ
_TEXT	SEGMENT PARA USE32 PUBLIC 'CODE'
_TEXT	ENDS
;	COMDAT ??7_bstr_t@@QBE_NXZ
_TEXT	SEGMENT PARA USE32 PUBLIC 'CODE'
_TEXT	ENDS
;	COMDAT ?length@_bstr_t@@QBEIXZ
_TEXT	SEGMENT PARA USE32 PUBLIC 'CODE'
_TEXT	ENDS
;	COMDAT ?_AddRef@_bstr_t@@AAEXXZ
_TEXT	SEGMENT PARA USE32 PUBLIC 'CODE'
_TEXT	ENDS
;	COMDAT ?_Free@_bstr_t@@AAEXXZ
_TEXT	SEGMENT PARA USE32 PUBLIC 'CODE'
_TEXT	ENDS
;	COMDAT ?_Compare@_bstr_t@@ABEHABV1@@Z
_TEXT	SEGMENT PARA USE32 PUBLIC 'CODE'
_TEXT	ENDS
;	COMDAT ??0Data_t@_bstr_t@@QAE@PBD@Z
_TEXT	SEGMENT PARA USE32 PUBLIC 'CODE'
_TEXT	ENDS
;	COMDAT ??0Data_t@_bstr_t@@QAE@PBG@Z
_TEXT	SEGMENT PARA USE32 PUBLIC 'CODE'
_TEXT	ENDS
;	COMDAT ??0Data_t@_bstr_t@@QAE@PAG_N@Z
_TEXT	SEGMENT PARA USE32 PUBLIC 'CODE'
_TEXT	ENDS
;	COMDAT ??0Data_t@_bstr_t@@QAE@ABV1@0@Z
_TEXT	SEGMENT PARA USE32 PUBLIC 'CODE'
_TEXT	ENDS
;	COMDAT ?AddRef@Data_t@_bstr_t@@QAEKXZ
_TEXT	SEGMENT PARA USE32 PUBLIC 'CODE'
_TEXT	ENDS
;	COMDAT ?Release@Data_t@_bstr_t@@QAEKXZ
_TEXT	SEGMENT PARA USE32 PUBLIC 'CODE'
_TEXT	ENDS
;	COMDAT ??_GData_t@_bstr_t@@AAEPAXI@Z
_TEXT	SEGMENT PARA USE32 PUBLIC 'CODE'
_TEXT	ENDS
;	COMDAT ?GetWString@Data_t@_bstr_t@@QBEPBGXZ
_TEXT	SEGMENT PARA USE32 PUBLIC 'CODE'
_TEXT	ENDS
;	COMDAT ?GetString@Data_t@_bstr_t@@QBEPBDXZ
_TEXT	SEGMENT PARA USE32 PUBLIC 'CODE'
_TEXT	ENDS
;	COMDAT ?Copy@Data_t@_bstr_t@@QBEPAGXZ
_TEXT	SEGMENT PARA USE32 PUBLIC 'CODE'
_TEXT	ENDS
;	COMDAT ?Assign@Data_t@_bstr_t@@QAEXPAG@Z
_TEXT	SEGMENT PARA USE32 PUBLIC 'CODE'
_TEXT	ENDS
;	COMDAT ?Length@Data_t@_bstr_t@@QBEIXZ
_TEXT	SEGMENT PARA USE32 PUBLIC 'CODE'
_TEXT	ENDS
;	COMDAT ?Compare@Data_t@_bstr_t@@QBEHABV12@@Z
_TEXT	SEGMENT PARA USE32 PUBLIC 'CODE'
_TEXT	ENDS
;	COMDAT ??1Data_t@_bstr_t@@AAE@XZ
_TEXT	SEGMENT PARA USE32 PUBLIC 'CODE'
_TEXT	ENDS
;	COMDAT ?_Free@Data_t@_bstr_t@@AAEXXZ
_TEXT	SEGMENT PARA USE32 PUBLIC 'CODE'
_TEXT	ENDS
;	COMDAT ??0_variant_t@@QAE@XZ
_TEXT	SEGMENT PARA USE32 PUBLIC 'CODE'
_TEXT	ENDS
;	COMDAT ??0_variant_t@@QAE@AAUtagVARIANT@@_N@Z
_TEXT	SEGMENT PARA USE32 PUBLIC 'CODE'
_TEXT	ENDS
;	COMDAT ??8_variant_t@@QBE_NPBUtagVARIANT@@@Z
_TEXT	SEGMENT PARA USE32 PUBLIC 'CODE'
_TEXT	ENDS
;	COMDAT ?Clear@_variant_t@@QAEXXZ
_TEXT	SEGMENT PARA USE32 PUBLIC 'CODE'
_TEXT	ENDS
;	COMDAT ?ChangeType@_variant_t@@QAEXGPBV1@@Z
_TEXT	SEGMENT PARA USE32 PUBLIC 'CODE'
_TEXT	ENDS
;	COMDAT ??1_variant_t@@QAE@XZ
_TEXT	SEGMENT PARA USE32 PUBLIC 'CODE'
_TEXT	ENDS
;	COMDAT ??_G_com_error@@UAEPAXI@Z
_TEXT	SEGMENT PARA USE32 PUBLIC 'CODE'
_TEXT	ENDS
;	COMDAT ??0_com_error@@QAE@ABV0@@Z
_TEXT	SEGMENT PARA USE32 PUBLIC 'CODE'
_TEXT	ENDS
;	COMDAT ??1_com_error@@UAE@XZ
_TEXT	SEGMENT PARA USE32 PUBLIC 'CODE'
_TEXT	ENDS
;	COMDAT ?WCode@_com_error@@QBEGXZ
_TEXT	SEGMENT PARA USE32 PUBLIC 'CODE'
_TEXT	ENDS
;	COMDAT ?HRESULTToWCode@_com_error@@SAGJ@Z
_TEXT	SEGMENT PARA USE32 PUBLIC 'CODE'
_TEXT	ENDS
;	COMDAT ??0CXTPPropExchangeSection@@QAE@PAVCXTPPropExchange@@@Z
_TEXT	SEGMENT PARA USE32 PUBLIC 'CODE'
_TEXT	ENDS
;	COMDAT ??1CXTPPropExchangeSection@@QAE@XZ
_TEXT	SEGMENT PARA USE32 PUBLIC 'CODE'
_TEXT	ENDS
;	COMDAT ??CCXTPPropExchangeSection@@QBEPAVCXTPPropExchange@@XZ
_TEXT	SEGMENT PARA USE32 PUBLIC 'CODE'
_TEXT	ENDS
;	COMDAT ??ICXTPPropExchangeSection@@QBEPAVCXTPPropExchange@@XZ
_TEXT	SEGMENT PARA USE32 PUBLIC 'CODE'
_TEXT	ENDS
;	COMDAT ?IsStoring@CXTPPropExchange@@QBEHXZ
_TEXT	SEGMENT PARA USE32 PUBLIC 'CODE'
_TEXT	ENDS
;	COMDAT ?Reset@TOOLITEM@CXTPToolTipContextToolTip@@QAEXXZ
_TEXT	SEGMENT PARA USE32 PUBLIC 'CODE'
_TEXT	ENDS
;	COMDAT ??4TOOLITEM@CXTPToolTipContextToolTip@@QAEAAU01@ABU01@@Z
_TEXT	SEGMENT PARA USE32 PUBLIC 'CODE'
_TEXT	ENDS
;	COMDAT ??1CBitmapDC@CXTPResourceImages@@UAE@XZ
_TEXT	SEGMENT PARA USE32 PUBLIC 'CODE'
_TEXT	ENDS
;	COMDAT ??_GCBitmapDC@CXTPResourceImages@@UAEPAXI@Z
_TEXT	SEGMENT PARA USE32 PUBLIC 'CODE'
_TEXT	ENDS
;	COMDAT ?Unlock@CSyncObject@@UAEHJPAJ@Z
_TEXT	SEGMENT PARA USE32 PUBLIC 'CODE'
_TEXT	ENDS
;	COMDAT ??_GCCriticalSection@@UAEPAXI@Z
_TEXT	SEGMENT PARA USE32 PUBLIC 'CODE'
_TEXT	ENDS
;	COMDAT ??1CCriticalSection@@UAE@XZ
_TEXT	SEGMENT PARA USE32 PUBLIC 'CODE'
_TEXT	ENDS
;	COMDAT ?Lock@CCriticalSection@@QAEHXZ
_TEXT	SEGMENT PARA USE32 PUBLIC 'CODE'
_TEXT	ENDS
;	COMDAT ?Lock@CCriticalSection@@UAEHK@Z
_TEXT	SEGMENT PARA USE32 PUBLIC 'CODE'
_TEXT	ENDS
;	COMDAT ?Unlock@CCriticalSection@@UAEHXZ
_TEXT	SEGMENT PARA USE32 PUBLIC 'CODE'
_TEXT	ENDS
;	COMDAT ?GetSupportedColorSets@CAppearanceSet@CXTPTabPaintManager@@UAEHXZ
_TEXT	SEGMENT PARA USE32 PUBLIC 'CODE'
_TEXT	ENDS
;	COMDAT ?GetSupportedColorSets@CAppearanceSetPropertyPage@CXTPTabPaintManager@@UAEHXZ
_TEXT	SEGMENT PARA USE32 PUBLIC 'CODE'
_TEXT	ENDS
;	COMDAT ?GetDefaultColorSet@CAppearanceSetPropertyPage@CXTPTabPaintManager@@UAE?AW4XTPTabColorStyle@@XZ
_TEXT	SEGMENT PARA USE32 PUBLIC 'CODE'
_TEXT	ENDS
;	COMDAT ??0CAppearanceSetPropertyPage2003@CXTPTabPaintManager@@QAE@XZ
_TEXT	SEGMENT PARA USE32 PUBLIC 'CODE'
_TEXT	ENDS
;	COMDAT ?GetHeaderMargin@CAppearanceSetPropertyPage2003@CXTPTabPaintManager@@UAE?AVCRect@@XZ
_TEXT	SEGMENT PARA USE32 PUBLIC 'CODE'
_TEXT	ENDS
;	COMDAT ?GetSupportedColorSets@CAppearanceSetPropertyPage2003@CXTPTabPaintManager@@UAEHXZ
_TEXT	SEGMENT PARA USE32 PUBLIC 'CODE'
_TEXT	ENDS
;	COMDAT ?GetDefaultColorSet@CAppearanceSetPropertyPage2003@CXTPTabPaintManager@@UAE?AW4XTPTabColorStyle@@XZ
_TEXT	SEGMENT PARA USE32 PUBLIC 'CODE'
_TEXT	ENDS
;	COMDAT ??0CAppearanceSetPropertyPage2007@CXTPTabPaintManager@@QAE@XZ
_TEXT	SEGMENT PARA USE32 PUBLIC 'CODE'
_TEXT	ENDS
;	COMDAT ?GetSupportedColorSets@CAppearanceSetPropertyPage2007@CXTPTabPaintManager@@MAEHXZ
_TEXT	SEGMENT PARA USE32 PUBLIC 'CODE'
_TEXT	ENDS
;	COMDAT ?GetDefaultColorSet@CAppearanceSetPropertyPage2007@CXTPTabPaintManager@@MAE?AW4XTPTabColorStyle@@XZ
_TEXT	SEGMENT PARA USE32 PUBLIC 'CODE'
_TEXT	ENDS
;	COMDAT ?GetSupportedColorSets@CAppearanceSetPropertyPageAccess2007@CXTPTabPaintManager@@MAEHXZ
_TEXT	SEGMENT PARA USE32 PUBLIC 'CODE'
_TEXT	ENDS
;	COMDAT ?GetDefaultColorSet@CAppearanceSetPropertyPageAccess2007@CXTPTabPaintManager@@MAE?AW4XTPTabColorStyle@@XZ
_TEXT	SEGMENT PARA USE32 PUBLIC 'CODE'
_TEXT	ENDS
;	COMDAT ?GetHeaderMargin@CAppearanceSetPropertyPageAccess2007@CXTPTabPaintManager@@MAE?AVCRect@@XZ
_TEXT	SEGMENT PARA USE32 PUBLIC 'CODE'
_TEXT	ENDS
;	COMDAT ?GetDefaultColorSet@CAppearanceSetStateButtons@CXTPTabPaintManager@@UAE?AW4XTPTabColorStyle@@XZ
_TEXT	SEGMENT PARA USE32 PUBLIC 'CODE'
_TEXT	ENDS
;	COMDAT ?GetSupportedColorSets@CAppearanceSetVisualStudio@CXTPTabPaintManager@@UAEHXZ
_TEXT	SEGMENT PARA USE32 PUBLIC 'CODE'
_TEXT	ENDS
;	COMDAT ?GetDefaultColorSet@CAppearanceSetVisualStudio@CXTPTabPaintManager@@UAE?AW4XTPTabColorStyle@@XZ
_TEXT	SEGMENT PARA USE32 PUBLIC 'CODE'
_TEXT	ENDS
;	COMDAT ?GetHeaderMargin@CAppearanceSetVisualStudio2005@CXTPTabPaintManager@@UAE?AVCRect@@XZ
_TEXT	SEGMENT PARA USE32 PUBLIC 'CODE'
_TEXT	ENDS
;	COMDAT ??0CAppearanceSetFlat@CXTPTabPaintManager@@QAE@XZ
_TEXT	SEGMENT PARA USE32 PUBLIC 'CODE'
_TEXT	ENDS
;	COMDAT ?GetSupportedColorSets@CAppearanceSetFlat@CXTPTabPaintManager@@UAEHXZ
_TEXT	SEGMENT PARA USE32 PUBLIC 'CODE'
_TEXT	ENDS
;	COMDAT ?GetDefaultColorSet@CAppearanceSetFlat@CXTPTabPaintManager@@UAE?AW4XTPTabColorStyle@@XZ
_TEXT	SEGMENT PARA USE32 PUBLIC 'CODE'
_TEXT	ENDS
;	COMDAT ?GetDefaultColorSet@CAppearanceSetPropertyPageFlat@CXTPTabPaintManager@@UAE?AW4XTPTabColorStyle@@XZ
_TEXT	SEGMENT PARA USE32 PUBLIC 'CODE'
_TEXT	ENDS
;	COMDAT ?GetHeaderMargin@CAppearanceSetExcel@CXTPTabPaintManager@@UAE?AVCRect@@XZ
_TEXT	SEGMENT PARA USE32 PUBLIC 'CODE'
_TEXT	ENDS
;	COMDAT ??_GCAppearanceSetPropertyPage@CXTPTabPaintManager@@UAEPAXI@Z
_TEXT	SEGMENT PARA USE32 PUBLIC 'CODE'
_TEXT	ENDS
;	COMDAT ??_GCAppearanceSetPropertyPage2003@CXTPTabPaintManager@@UAEPAXI@Z
_TEXT	SEGMENT PARA USE32 PUBLIC 'CODE'
_TEXT	ENDS
;	COMDAT ??_GCAppearanceSetPropertyPage2007@CXTPTabPaintManager@@UAEPAXI@Z
_TEXT	SEGMENT PARA USE32 PUBLIC 'CODE'
_TEXT	ENDS
;	COMDAT ??_GCAppearanceSetPropertyPageAccess2007@CXTPTabPaintManager@@UAEPAXI@Z
_TEXT	SEGMENT PARA USE32 PUBLIC 'CODE'
_TEXT	ENDS
;	COMDAT ??1CAppearanceSetPropertyPage2007@CXTPTabPaintManager@@UAE@XZ
_TEXT	SEGMENT PARA USE32 PUBLIC 'CODE'
_TEXT	ENDS
;	COMDAT ??_GCAppearanceSetStateButtons@CXTPTabPaintManager@@UAEPAXI@Z
_TEXT	SEGMENT PARA USE32 PUBLIC 'CODE'
_TEXT	ENDS
;	COMDAT ??_GCAppearanceSetVisualStudio@CXTPTabPaintManager@@UAEPAXI@Z
_TEXT	SEGMENT PARA USE32 PUBLIC 'CODE'
_TEXT	ENDS
;	COMDAT ??_GCAppearanceSetVisualStudio2005@CXTPTabPaintManager@@UAEPAXI@Z
_TEXT	SEGMENT PARA USE32 PUBLIC 'CODE'
_TEXT	ENDS
;	COMDAT ??1CAppearanceSetPropertyPage2003@CXTPTabPaintManager@@UAE@XZ
_TEXT	SEGMENT PARA USE32 PUBLIC 'CODE'
_TEXT	ENDS
;	COMDAT ??_GCAppearanceSetFlat@CXTPTabPaintManager@@UAEPAXI@Z
_TEXT	SEGMENT PARA USE32 PUBLIC 'CODE'
_TEXT	ENDS
;	COMDAT ??_GCAppearanceSetPropertyPageFlat@CXTPTabPaintManager@@UAEPAXI@Z
_TEXT	SEGMENT PARA USE32 PUBLIC 'CODE'
_TEXT	ENDS
;	COMDAT ??1CAppearanceSetFlat@CXTPTabPaintManager@@UAE@XZ
_TEXT	SEGMENT PARA USE32 PUBLIC 'CODE'
_TEXT	ENDS
;	COMDAT ??_GCAppearanceSetExcel@CXTPTabPaintManager@@UAEPAXI@Z
_TEXT	SEGMENT PARA USE32 PUBLIC 'CODE'
_TEXT	ENDS
;	COMDAT ??1CAppearanceSetPropertyPage@CXTPTabPaintManager@@UAE@XZ
_TEXT	SEGMENT PARA USE32 PUBLIC 'CODE'
_TEXT	ENDS
;	COMDAT ??1CAppearanceSetPropertyPageAccess2007@CXTPTabPaintManager@@UAE@XZ
_TEXT	SEGMENT PARA USE32 PUBLIC 'CODE'
_TEXT	ENDS
;	COMDAT ??1CAppearanceSetStateButtons@CXTPTabPaintManager@@UAE@XZ
_TEXT	SEGMENT PARA USE32 PUBLIC 'CODE'
_TEXT	ENDS
;	COMDAT ??1CAppearanceSetVisualStudio@CXTPTabPaintManager@@UAE@XZ
_TEXT	SEGMENT PARA USE32 PUBLIC 'CODE'
_TEXT	ENDS
;	COMDAT ??1CAppearanceSetVisualStudio2005@CXTPTabPaintManager@@UAE@XZ
_TEXT	SEGMENT PARA USE32 PUBLIC 'CODE'
_TEXT	ENDS
;	COMDAT ??1CAppearanceSetPropertyPageFlat@CXTPTabPaintManager@@UAE@XZ
_TEXT	SEGMENT PARA USE32 PUBLIC 'CODE'
_TEXT	ENDS
;	COMDAT ??1CAppearanceSetExcel@CXTPTabPaintManager@@UAE@XZ
_TEXT	SEGMENT PARA USE32 PUBLIC 'CODE'
_TEXT	ENDS
;	COMDAT ?GetHeaderMargin@CAppearanceSet@CXTPTabPaintManager@@UAE?AVCRect@@XZ
_TEXT	SEGMENT PARA USE32 PUBLIC 'CODE'
_TEXT	ENDS
;	COMDAT ?DrawTabControl@CAppearanceSet@CXTPTabPaintManager@@UAEXPAVCXTPTabManager@@PAVCDC@@VCRect@@@Z
_TEXT	SEGMENT PARA USE32 PUBLIC 'CODE'
_TEXT	ENDS
;	COMDAT ?RepositionTabControl@CAppearanceSet@CXTPTabPaintManager@@UAEXPAVCXTPTabManager@@PAVCDC@@VCRect@@@Z
_TEXT	SEGMENT PARA USE32 PUBLIC 'CODE'
_TEXT	ENDS
;	COMDAT ?GetAppearanceSet@CXTPTabPaintManager@@QBEPAVCAppearanceSet@1@XZ
_TEXT	SEGMENT PARA USE32 PUBLIC 'CODE'
_TEXT	ENDS
;	COMDAT ?GetColorSet@CXTPTabPaintManager@@QBEPAVCColorSet@1@XZ
_TEXT	SEGMENT PARA USE32 PUBLIC 'CODE'
_TEXT	ENDS
;	COMDAT ?OnPropertyChanged@CXTPTabManagerAtom@@UAEXXZ
_TEXT	SEGMENT PARA USE32 PUBLIC 'CODE'
_TEXT	ENDS
;	COMDAT ??1CXTPTabManagerAtom@@MAE@XZ
_TEXT	SEGMENT PARA USE32 PUBLIC 'CODE'
_TEXT	ENDS
;	COMDAT ??_GCXTPTabManagerAtom@@MAEPAXI@Z
_TEXT	SEGMENT PARA USE32 PUBLIC 'CODE'
_TEXT	ENDS
;	COMDAT ?IsSelected@CXTPTabManagerItem@@QBEHXZ
_TEXT	SEGMENT PARA USE32 PUBLIC 'CODE'
_TEXT	ENDS
;	COMDAT ?GetID@CXTPTabManagerNavigateButton@@QBEIXZ
_TEXT	SEGMENT PARA USE32 PUBLIC 'CODE'
_TEXT	ENDS
;	COMDAT ?GetItemCount@CXTPTabManager@@QBEHXZ
_TEXT	SEGMENT PARA USE32 PUBLIC 'CODE'
_TEXT	ENDS
;	COMDAT ?GetItem@CXTPTabManager@@QBEPAVCXTPTabManagerItem@@H@Z
_TEXT	SEGMENT PARA USE32 PUBLIC 'CODE'
_TEXT	ENDS
;	COMDAT ?GetNavigateButtonCount@CXTPTabManager@@QBEHXZ
_TEXT	SEGMENT PARA USE32 PUBLIC 'CODE'
_TEXT	ENDS
;	COMDAT ?IsHorizontalPosition@CXTPTabManager@@QBEHXZ
_TEXT	SEGMENT PARA USE32 PUBLIC 'CODE'
_TEXT	ENDS
;	COMDAT ?GetSize@CXTPTabManagerNavigateButtons@@QBEHXZ
_TEXT	SEGMENT PARA USE32 PUBLIC 'CODE'
_TEXT	ENDS
;	COMDAT ??ACXTPTabManagerNavigateButtons@@QBEPAVCXTPTabManagerNavigateButton@@H@Z
_TEXT	SEGMENT PARA USE32 PUBLIC 'CODE'
_TEXT	ENDS
;	COMDAT ?RedrawButton@CXTPButton@@QAEXH@Z
_TEXT	SEGMENT PARA USE32 PUBLIC 'CODE'
_TEXT	ENDS
;	COMDAT ?EnableEdit@CXTPEditListBoxToolBar@@QAEX_N@Z
_TEXT	SEGMENT PARA USE32 PUBLIC 'CODE'
_TEXT	ENDS
;	COMDAT ??_GCXTPCtrlView@@UAEPAXI@Z
_TEXT	SEGMENT PARA USE32 PUBLIC 'CODE'
_TEXT	ENDS
;	COMDAT ??1CXTPCtrlView@@UAE@XZ
_TEXT	SEGMENT PARA USE32 PUBLIC 'CODE'
_TEXT	ENDS
;	COMDAT ?SetBorderGap@CXTPMDIClientWnd@@QAEXH@Z
_TEXT	SEGMENT PARA USE32 PUBLIC 'CODE'
_TEXT	ENDS
;	COMDAT ??8CXTPResizeRect@@QAE_NABUXTP_RESIZERECT@@@Z
_TEXT	SEGMENT PARA USE32 PUBLIC 'CODE'
_TEXT	ENDS
;	COMDAT ?SetResize@CXTPResize@@QAEXIABUXTP_RESIZERECT@@@Z
_TEXT	SEGMENT PARA USE32 PUBLIC 'CODE'
_TEXT	ENDS
;	COMDAT ?IsLinkButtonsUsed@CXTPTaskDialogClient@@QBEHXZ
_TEXT	SEGMENT PARA USE32 PUBLIC 'CODE'
_TEXT	ENDS
;	COMDAT ?GetPage@CXTPPropertySheet@@QBEPAVCXTPPropertyPage@@H@Z
_TEXT	SEGMENT PARA USE32 PUBLIC 'CODE'
_TEXT	ENDS
;	COMDAT ?GetNextItem@CXTPTreeBase@@UBEPAU_TREEITEM@@PAU2@I@Z
_TEXT	SEGMENT PARA USE32 PUBLIC 'CODE'
_TEXT	ENDS
;	COMDAT ??0CLRFONT@CXTPTreeBase@@QAE@XZ
_TEXT	SEGMENT PARA USE32 PUBLIC 'CODE'
_TEXT	ENDS
;	COMDAT ?GetItemState@CXTPTreeViewBase@@UBEIPAU_TREEITEM@@I@Z
_TEXT	SEGMENT PARA USE32 PUBLIC 'CODE'
_TEXT	ENDS
;	COMDAT ?SelectItem@CXTPTreeViewBase@@UAEHPAU_TREEITEM@@@Z
_TEXT	SEGMENT PARA USE32 PUBLIC 'CODE'
_TEXT	ENDS
;	COMDAT ?SetItemState@CXTPTreeViewBase@@UAEHPAU_TREEITEM@@II@Z
_TEXT	SEGMENT PARA USE32 PUBLIC 'CODE'
_TEXT	ENDS
;	COMDAT ?GetNextItem@CXTPTreeViewBase@@UBEPAU_TREEITEM@@PAU2@I@Z
_TEXT	SEGMENT PARA USE32 PUBLIC 'CODE'
_TEXT	ENDS
;	COMDAT ?GetNextItem@CXTPTreeViewBase@@UBEPAU_TREEITEM@@PAU2@@Z
_TEXT	SEGMENT PARA USE32 PUBLIC 'CODE'
_TEXT	ENDS
;	COMDAT ?OnNotify@CXTPTreeViewBase@@MAEHIJPAJ@Z
_TEXT	SEGMENT PARA USE32 PUBLIC 'CODE'
_TEXT	ENDS
;	COMDAT ?PreTranslateMessage@CXTPTreeViewBase@@MAEHPAUtagMSG@@@Z
_TEXT	SEGMENT PARA USE32 PUBLIC 'CODE'
_TEXT	ENDS
;	COMDAT ?Init@CXTPTreeViewBase@@MAE_NXZ
_TEXT	SEGMENT PARA USE32 PUBLIC 'CODE'
_TEXT	ENDS
;	COMDAT ?PreSubclassWindow@CXTPTreeViewBase@@MAEXXZ
_TEXT	SEGMENT PARA USE32 PUBLIC 'CODE'
_TEXT	ENDS
;	COMDAT ?PreCreateWindow@CXTPTreeViewBase@@MAEHAAUtagCREATESTRUCTA@@@Z
_TEXT	SEGMENT PARA USE32 PUBLIC 'CODE'
_TEXT	ENDS
;	COMDAT ??_GCXTPTreeViewBase@@UAEPAXI@Z
_TEXT	SEGMENT PARA USE32 PUBLIC 'CODE'
_TEXT	ENDS
;	COMDAT ??1CXTPTreeViewBase@@UAE@XZ
_TEXT	SEGMENT PARA USE32 PUBLIC 'CODE'
_TEXT	ENDS
;	COMDAT ?GetItemState@CXTPTreeCtrlBase@@UBEIPAU_TREEITEM@@I@Z
_TEXT	SEGMENT PARA USE32 PUBLIC 'CODE'
_TEXT	ENDS
;	COMDAT ?SelectItem@CXTPTreeCtrlBase@@UAEHPAU_TREEITEM@@@Z
_TEXT	SEGMENT PARA USE32 PUBLIC 'CODE'
_TEXT	ENDS
;	COMDAT ?SetItemState@CXTPTreeCtrlBase@@UAEHPAU_TREEITEM@@II@Z
_TEXT	SEGMENT PARA USE32 PUBLIC 'CODE'
_TEXT	ENDS
;	COMDAT ?GetNextItem@CXTPTreeCtrlBase@@UBEPAU_TREEITEM@@PAU2@I@Z
_TEXT	SEGMENT PARA USE32 PUBLIC 'CODE'
_TEXT	ENDS
;	COMDAT ?GetNextItem@CXTPTreeCtrlBase@@UBEPAU_TREEITEM@@PAU2@@Z
_TEXT	SEGMENT PARA USE32 PUBLIC 'CODE'
_TEXT	ENDS
;	COMDAT ?OnNotify@CXTPTreeCtrlBase@@MAEHIJPAJ@Z
_TEXT	SEGMENT PARA USE32 PUBLIC 'CODE'
_TEXT	ENDS
;	COMDAT ?PreTranslateMessage@CXTPTreeCtrlBase@@MAEHPAUtagMSG@@@Z
_TEXT	SEGMENT PARA USE32 PUBLIC 'CODE'
_TEXT	ENDS
;	COMDAT ?Init@CXTPTreeCtrlBase@@MAE_NXZ
_TEXT	SEGMENT PARA USE32 PUBLIC 'CODE'
_TEXT	ENDS
;	COMDAT ?PreSubclassWindow@CXTPTreeCtrlBase@@MAEXXZ
_TEXT	SEGMENT PARA USE32 PUBLIC 'CODE'
_TEXT	ENDS
;	COMDAT ?PreCreateWindow@CXTPTreeCtrlBase@@MAEHAAUtagCREATESTRUCTA@@@Z
_TEXT	SEGMENT PARA USE32 PUBLIC 'CODE'
_TEXT	ENDS
;	COMDAT ??_GCXTPTreeCtrlBase@@UAEPAXI@Z
_TEXT	SEGMENT PARA USE32 PUBLIC 'CODE'
_TEXT	ENDS
;	COMDAT ??1CXTPTreeCtrlBase@@UAE@XZ
_TEXT	SEGMENT PARA USE32 PUBLIC 'CODE'
_TEXT	ENDS
;	COMDAT ?EnablePopupMenus@CXTPHeaderCtrl@@QAEXH@Z
_TEXT	SEGMENT PARA USE32 PUBLIC 'CODE'
_TEXT	ENDS
;	COMDAT ?GetTheme@CXTPHeaderCtrl@@QAEPAVCXTPHeaderCtrlTheme@@XZ
_TEXT	SEGMENT PARA USE32 PUBLIC 'CODE'
_TEXT	ENDS
;	COMDAT ?GetExtendedStyle@CXTPListBase@@UAEKXZ
_TEXT	SEGMENT PARA USE32 PUBLIC 'CODE'
_TEXT	ENDS
;	COMDAT ?SetExtendedStyle@CXTPListBase@@UAEXK@Z
_TEXT	SEGMENT PARA USE32 PUBLIC 'CODE'
_TEXT	ENDS
;	COMDAT ?DisableColumnSizing@CXTPListBase@@UAEX_N@Z
_TEXT	SEGMENT PARA USE32 PUBLIC 'CODE'
_TEXT	ENDS
;	COMDAT ?SetListBackColor@CXTPListBase@@QAEXK@Z
_TEXT	SEGMENT PARA USE32 PUBLIC 'CODE'
_TEXT	ENDS
;	COMDAT ?SetListTextColor@CXTPListBase@@QAEXK@Z
_TEXT	SEGMENT PARA USE32 PUBLIC 'CODE'
_TEXT	ENDS
;	COMDAT ?EnableUserListColor@CXTPListBase@@QAEX_N@Z
_TEXT	SEGMENT PARA USE32 PUBLIC 'CODE'
_TEXT	ENDS
;	COMDAT ?GetListBackColor@CXTPListBase@@QBEKXZ
_TEXT	SEGMENT PARA USE32 PUBLIC 'CODE'
_TEXT	ENDS
;	COMDAT ?GetListTextColor@CXTPListBase@@QBEKXZ
_TEXT	SEGMENT PARA USE32 PUBLIC 'CODE'
_TEXT	ENDS
;	COMDAT ?EnableUserSortColor@CXTPListBase@@QAEX_N@Z
_TEXT	SEGMENT PARA USE32 PUBLIC 'CODE'
_TEXT	ENDS
;	COMDAT ?GetExtendedStyle@CXTPListViewBase@@UAEKXZ
_TEXT	SEGMENT PARA USE32 PUBLIC 'CODE'
_TEXT	ENDS
;	COMDAT ?SetExtendedStyle@CXTPListViewBase@@UAEXK@Z
_TEXT	SEGMENT PARA USE32 PUBLIC 'CODE'
_TEXT	ENDS
;	COMDAT ?OnNotify@CXTPListViewBase@@MAEHIJPAJ@Z
_TEXT	SEGMENT PARA USE32 PUBLIC 'CODE'
_TEXT	ENDS
;	COMDAT ?Init@CXTPListViewBase@@MAE_NXZ
_TEXT	SEGMENT PARA USE32 PUBLIC 'CODE'
_TEXT	ENDS
;	COMDAT ?PreSubclassWindow@CXTPListViewBase@@MAEXXZ
_TEXT	SEGMENT PARA USE32 PUBLIC 'CODE'
_TEXT	ENDS
;	COMDAT ?PreCreateWindow@CXTPListViewBase@@MAEHAAUtagCREATESTRUCTA@@@Z
_TEXT	SEGMENT PARA USE32 PUBLIC 'CODE'
_TEXT	ENDS
;	COMDAT ??_GCXTPListViewBase@@UAEPAXI@Z
_TEXT	SEGMENT PARA USE32 PUBLIC 'CODE'
_TEXT	ENDS
;	COMDAT ??1CXTPListViewBase@@UAE@XZ
_TEXT	SEGMENT PARA USE32 PUBLIC 'CODE'
_TEXT	ENDS
;	COMDAT ?GetExtendedStyle@CXTPListCtrlBase@@UAEKXZ
_TEXT	SEGMENT PARA USE32 PUBLIC 'CODE'
_TEXT	ENDS
;	COMDAT ?SetExtendedStyle@CXTPListCtrlBase@@UAEXK@Z
_TEXT	SEGMENT PARA USE32 PUBLIC 'CODE'
_TEXT	ENDS
;	COMDAT ?OnNotify@CXTPListCtrlBase@@MAEHIJPAJ@Z
_TEXT	SEGMENT PARA USE32 PUBLIC 'CODE'
_TEXT	ENDS
;	COMDAT ?Init@CXTPListCtrlBase@@MAE_NXZ
_TEXT	SEGMENT PARA USE32 PUBLIC 'CODE'
_TEXT	ENDS
;	COMDAT ?PreSubclassWindow@CXTPListCtrlBase@@MAEXXZ
_TEXT	SEGMENT PARA USE32 PUBLIC 'CODE'
_TEXT	ENDS
;	COMDAT ?PreCreateWindow@CXTPListCtrlBase@@MAEHAAUtagCREATESTRUCTA@@@Z
_TEXT	SEGMENT PARA USE32 PUBLIC 'CODE'
_TEXT	ENDS
;	COMDAT ??_GCXTPListCtrlBase@@UAEPAXI@Z
_TEXT	SEGMENT PARA USE32 PUBLIC 'CODE'
_TEXT	ENDS
;	COMDAT ??1CXTPListCtrlBase@@UAE@XZ
_TEXT	SEGMENT PARA USE32 PUBLIC 'CODE'
_TEXT	ENDS
;	COMDAT ??1CShellMalloc@CXTPShellPidl@@UAE@XZ
_TEXT	SEGMENT PARA USE32 PUBLIC 'CODE'
_TEXT	ENDS
;	COMDAT ??1CShellSpecialFolder@CXTPShellPidl@@UAE@XZ
_TEXT	SEGMENT PARA USE32 PUBLIC 'CODE'
_TEXT	ENDS
;	COMDAT ??_GCShellMalloc@CXTPShellPidl@@UAEPAXI@Z
_TEXT	SEGMENT PARA USE32 PUBLIC 'CODE'
_TEXT	ENDS
;	COMDAT ??_GCShellSpecialFolder@CXTPShellPidl@@UAEPAXI@Z
_TEXT	SEGMENT PARA USE32 PUBLIC 'CODE'
_TEXT	ENDS
;	COMDAT ?GetItemState@CXTPShellTreeBaseCTreeView@@UBEIPAU_TREEITEM@@I@Z
_TEXT	SEGMENT PARA USE32 PUBLIC 'CODE'
_TEXT	ENDS
;	COMDAT ?SelectItem@CXTPShellTreeBaseCTreeView@@UAEHPAU_TREEITEM@@@Z
_TEXT	SEGMENT PARA USE32 PUBLIC 'CODE'
_TEXT	ENDS
;	COMDAT ?SetItemState@CXTPShellTreeBaseCTreeView@@UAEHPAU_TREEITEM@@II@Z
_TEXT	SEGMENT PARA USE32 PUBLIC 'CODE'
_TEXT	ENDS
;	COMDAT ?GetNextItem@CXTPShellTreeBaseCTreeView@@UBEPAU_TREEITEM@@PAU2@I@Z
_TEXT	SEGMENT PARA USE32 PUBLIC 'CODE'
_TEXT	ENDS
;	COMDAT ?GetNextItem@CXTPShellTreeBaseCTreeView@@UBEPAU_TREEITEM@@PAU2@@Z
_TEXT	SEGMENT PARA USE32 PUBLIC 'CODE'
_TEXT	ENDS
;	COMDAT ?OnNotify@CXTPShellTreeBaseCTreeView@@MAEHIJPAJ@Z
_TEXT	SEGMENT PARA USE32 PUBLIC 'CODE'
_TEXT	ENDS
;	COMDAT ?PreTranslateMessage@CXTPShellTreeBaseCTreeView@@MAEHPAUtagMSG@@@Z
_TEXT	SEGMENT PARA USE32 PUBLIC 'CODE'
_TEXT	ENDS
;	COMDAT ?Init@CXTPShellTreeBaseCTreeView@@MAE_NXZ
_TEXT	SEGMENT PARA USE32 PUBLIC 'CODE'
_TEXT	ENDS
;	COMDAT ?PreSubclassWindow@CXTPShellTreeBaseCTreeView@@MAEXXZ
_TEXT	SEGMENT PARA USE32 PUBLIC 'CODE'
_TEXT	ENDS
;	COMDAT ?PreCreateWindow@CXTPShellTreeBaseCTreeView@@MAEHAAUtagCREATESTRUCTA@@@Z
_TEXT	SEGMENT PARA USE32 PUBLIC 'CODE'
_TEXT	ENDS
;	COMDAT ??_GCXTPShellTreeBaseCTreeView@@UAEPAXI@Z
_TEXT	SEGMENT PARA USE32 PUBLIC 'CODE'
_TEXT	ENDS
;	COMDAT ??1CXTPShellTreeBaseCTreeView@@UAE@XZ
_TEXT	SEGMENT PARA USE32 PUBLIC 'CODE'
_TEXT	ENDS
;	COMDAT ?GetItemState@CXTPShellTreeBaseCTreeCtrl@@UBEIPAU_TREEITEM@@I@Z
_TEXT	SEGMENT PARA USE32 PUBLIC 'CODE'
_TEXT	ENDS
;	COMDAT ?SelectItem@CXTPShellTreeBaseCTreeCtrl@@UAEHPAU_TREEITEM@@@Z
_TEXT	SEGMENT PARA USE32 PUBLIC 'CODE'
_TEXT	ENDS
;	COMDAT ?SetItemState@CXTPShellTreeBaseCTreeCtrl@@UAEHPAU_TREEITEM@@II@Z
_TEXT	SEGMENT PARA USE32 PUBLIC 'CODE'
_TEXT	ENDS
;	COMDAT ?GetNextItem@CXTPShellTreeBaseCTreeCtrl@@UBEPAU_TREEITEM@@PAU2@I@Z
_TEXT	SEGMENT PARA USE32 PUBLIC 'CODE'
_TEXT	ENDS
;	COMDAT ?GetNextItem@CXTPShellTreeBaseCTreeCtrl@@UBEPAU_TREEITEM@@PAU2@@Z
_TEXT	SEGMENT PARA USE32 PUBLIC 'CODE'
_TEXT	ENDS
;	COMDAT ?OnNotify@CXTPShellTreeBaseCTreeCtrl@@MAEHIJPAJ@Z
_TEXT	SEGMENT PARA USE32 PUBLIC 'CODE'
_TEXT	ENDS
;	COMDAT ?PreTranslateMessage@CXTPShellTreeBaseCTreeCtrl@@MAEHPAUtagMSG@@@Z
_TEXT	SEGMENT PARA USE32 PUBLIC 'CODE'
_TEXT	ENDS
;	COMDAT ?Init@CXTPShellTreeBaseCTreeCtrl@@MAE_NXZ
_TEXT	SEGMENT PARA USE32 PUBLIC 'CODE'
_TEXT	ENDS
;	COMDAT ?PreSubclassWindow@CXTPShellTreeBaseCTreeCtrl@@MAEXXZ
_TEXT	SEGMENT PARA USE32 PUBLIC 'CODE'
_TEXT	ENDS
;	COMDAT ?PreCreateWindow@CXTPShellTreeBaseCTreeCtrl@@MAEHAAUtagCREATESTRUCTA@@@Z
_TEXT	SEGMENT PARA USE32 PUBLIC 'CODE'
_TEXT	ENDS
;	COMDAT ??_GCXTPShellTreeBaseCTreeCtrl@@UAEPAXI@Z
_TEXT	SEGMENT PARA USE32 PUBLIC 'CODE'
_TEXT	ENDS
;	COMDAT ??1CXTPShellTreeBaseCTreeCtrl@@UAE@XZ
_TEXT	SEGMENT PARA USE32 PUBLIC 'CODE'
_TEXT	ENDS
;	COMDAT ?SetEnumFlags@CXTPShellListBase@@UAEXI@Z
_TEXT	SEGMENT PARA USE32 PUBLIC 'CODE'
_TEXT	ENDS
;	COMDAT ?EnableContextMenu@CXTPShellListBase@@UAEXH@Z
_TEXT	SEGMENT PARA USE32 PUBLIC 'CODE'
_TEXT	ENDS
;	COMDAT ?SetIncludeExtensions@CXTPShellListBase@@UAEXPBD@Z
_TEXT	SEGMENT PARA USE32 PUBLIC 'CODE'
_TEXT	ENDS
;	COMDAT ?GetExtendedStyle@CXTPShellListBaseCListView@@UAEKXZ
_TEXT	SEGMENT PARA USE32 PUBLIC 'CODE'
_TEXT	ENDS
;	COMDAT ?SetExtendedStyle@CXTPShellListBaseCListView@@UAEXK@Z
_TEXT	SEGMENT PARA USE32 PUBLIC 'CODE'
_TEXT	ENDS
;	COMDAT ?OnNotify@CXTPShellListBaseCListView@@MAEHIJPAJ@Z
_TEXT	SEGMENT PARA USE32 PUBLIC 'CODE'
_TEXT	ENDS
;	COMDAT ?Init@CXTPShellListBaseCListView@@MAE_NXZ
_TEXT	SEGMENT PARA USE32 PUBLIC 'CODE'
_TEXT	ENDS
;	COMDAT ?PreSubclassWindow@CXTPShellListBaseCListView@@MAEXXZ
_TEXT	SEGMENT PARA USE32 PUBLIC 'CODE'
_TEXT	ENDS
;	COMDAT ?PreCreateWindow@CXTPShellListBaseCListView@@MAEHAAUtagCREATESTRUCTA@@@Z
_TEXT	SEGMENT PARA USE32 PUBLIC 'CODE'
_TEXT	ENDS
;	COMDAT ??_GCXTPShellListBaseCListView@@UAEPAXI@Z
_TEXT	SEGMENT PARA USE32 PUBLIC 'CODE'
_TEXT	ENDS
;	COMDAT ??1CXTPShellListBaseCListView@@UAE@XZ
_TEXT	SEGMENT PARA USE32 PUBLIC 'CODE'
_TEXT	ENDS
;	COMDAT ?GetExtendedStyle@CXTPShellListBaseCListCtrl@@UAEKXZ
_TEXT	SEGMENT PARA USE32 PUBLIC 'CODE'
_TEXT	ENDS
;	COMDAT ?SetExtendedStyle@CXTPShellListBaseCListCtrl@@UAEXK@Z
_TEXT	SEGMENT PARA USE32 PUBLIC 'CODE'
_TEXT	ENDS
;	COMDAT ?OnNotify@CXTPShellListBaseCListCtrl@@MAEHIJPAJ@Z
_TEXT	SEGMENT PARA USE32 PUBLIC 'CODE'
_TEXT	ENDS
;	COMDAT ?Init@CXTPShellListBaseCListCtrl@@MAE_NXZ
_TEXT	SEGMENT PARA USE32 PUBLIC 'CODE'
_TEXT	ENDS
;	COMDAT ?PreSubclassWindow@CXTPShellListBaseCListCtrl@@MAEXXZ
_TEXT	SEGMENT PARA USE32 PUBLIC 'CODE'
_TEXT	ENDS
;	COMDAT ?PreCreateWindow@CXTPShellListBaseCListCtrl@@MAEHAAUtagCREATESTRUCTA@@@Z
_TEXT	SEGMENT PARA USE32 PUBLIC 'CODE'
_TEXT	ENDS
;	COMDAT ??_GCXTPShellListBaseCListCtrl@@UAEPAXI@Z
_TEXT	SEGMENT PARA USE32 PUBLIC 'CODE'
_TEXT	ENDS
;	COMDAT ??1CXTPShellListBaseCListCtrl@@UAE@XZ
_TEXT	SEGMENT PARA USE32 PUBLIC 'CODE'
_TEXT	ENDS
;	COMDAT ?GetMinSize@CXTPSearchOptionsCtrl@@QAEHXZ
_TEXT	SEGMENT PARA USE32 PUBLIC 'CODE'
_TEXT	ENDS
;	COMDAT ?GetMaxSize@CXTPSearchOptionsCtrl@@QAEHXZ
_TEXT	SEGMENT PARA USE32 PUBLIC 'CODE'
_TEXT	ENDS
;	COMDAT ??4CXTColorRef@@QAEAAV0@K@Z
_TEXT	SEGMENT PARA USE32 PUBLIC 'CODE'
_TEXT	ENDS
;	COMDAT ?fixColorValue@CXTColorRef@@SAHH@Z
_TEXT	SEGMENT PARA USE32 PUBLIC 'CODE'
_TEXT	ENDS
;	COMDAT ?getRValue@CXTColorRef@@QBEHXZ
_TEXT	SEGMENT PARA USE32 PUBLIC 'CODE'
_TEXT	ENDS
;	COMDAT ?getGValue@CXTColorRef@@QBEHXZ
_TEXT	SEGMENT PARA USE32 PUBLIC 'CODE'
_TEXT	ENDS
;	COMDAT ?getBValue@CXTColorRef@@QBEHXZ
_TEXT	SEGMENT PARA USE32 PUBLIC 'CODE'
_TEXT	ENDS
;	COMDAT ??_GCXTComboBoxEx@@UAEPAXI@Z
_TEXT	SEGMENT PARA USE32 PUBLIC 'CODE'
_TEXT	ENDS
;	COMDAT ?Create@CXTComboBoxEx@@EAEHPBD0KABUtagRECT@@PAVCWnd@@IPAUCCreateContext@@@Z
_TEXT	SEGMENT PARA USE32 PUBLIC 'CODE'
_TEXT	ENDS
;	COMDAT ??_GCXTDateTimeCtrl@@UAEPAXI@Z
_TEXT	SEGMENT PARA USE32 PUBLIC 'CODE'
_TEXT	ENDS
;	COMDAT ?Create@CXTDateTimeCtrl@@EAEHPBD0KABUtagRECT@@PAVCWnd@@IPAUCCreateContext@@@Z
_TEXT	SEGMENT PARA USE32 PUBLIC 'CODE'
_TEXT	ENDS
;	COMDAT ??_GCXTMonthCalCtrl@@UAEPAXI@Z
_TEXT	SEGMENT PARA USE32 PUBLIC 'CODE'
_TEXT	ENDS
;	COMDAT ?Create@CXTMonthCalCtrl@@EAEHPBD0KABUtagRECT@@PAVCWnd@@IPAUCCreateContext@@@Z
_TEXT	SEGMENT PARA USE32 PUBLIC 'CODE'
_TEXT	ENDS
;	COMDAT ??_GCXTPCommandBarList@@UAEPAXI@Z
_TEXT	SEGMENT PARA USE32 PUBLIC 'CODE'
_TEXT	ENDS
;	COMDAT ?DelayLayout@CXTPCommandBar@@QAEXXZ
_TEXT	SEGMENT PARA USE32 PUBLIC 'CODE'
_TEXT	ENDS
;	COMDAT ?GetShortcutText@CXTPControlAction@@QBE?AVCString@@XZ
_TEXT	SEGMENT PARA USE32 PUBLIC 'CODE'
_TEXT	ENDS
;	COMDAT ?GetDescription@CXTPControlAction@@QBE?AVCString@@XZ
_TEXT	SEGMENT PARA USE32 PUBLIC 'CODE'
_TEXT	ENDS
;	COMDAT ?GetTooltip@CXTPControlAction@@QBE?AVCString@@XZ
_TEXT	SEGMENT PARA USE32 PUBLIC 'CODE'
_TEXT	ENDS
;	COMDAT ?GetCaption@CXTPControlAction@@QBE?AVCString@@XZ
_TEXT	SEGMENT PARA USE32 PUBLIC 'CODE'
_TEXT	ENDS
;	COMDAT ?GetIconId@CXTPControlAction@@QBEHXZ
_TEXT	SEGMENT PARA USE32 PUBLIC 'CODE'
_TEXT	ENDS
;	COMDAT ?GetHelpId@CXTPControlAction@@QBEHXZ
_TEXT	SEGMENT PARA USE32 PUBLIC 'CODE'
_TEXT	ENDS
;	COMDAT ?GetChecked@CXTPControlAction@@QBEHXZ
_TEXT	SEGMENT PARA USE32 PUBLIC 'CODE'
_TEXT	ENDS
;	COMDAT ?IsVisible@CXTPControlAction@@QBEHXZ
_TEXT	SEGMENT PARA USE32 PUBLIC 'CODE'
_TEXT	ENDS
;	COMDAT ?GetCategory@CXTPControlAction@@QBE?AVCString@@XZ
_TEXT	SEGMENT PARA USE32 PUBLIC 'CODE'
_TEXT	ENDS
;	COMDAT ?GetKeyboardTip@CXTPControlAction@@QBE?AVCString@@XZ
_TEXT	SEGMENT PARA USE32 PUBLIC 'CODE'
_TEXT	ENDS
;	COMDAT ?IsTransparent@CXTPControl@@UBEHXZ
_TEXT	SEGMENT PARA USE32 PUBLIC 'CODE'
_TEXT	ENDS
;	COMDAT ?SetParent@CXTPControl@@MAEXPAVCXTPCommandBar@@@Z
_TEXT	SEGMENT PARA USE32 PUBLIC 'CODE'
_TEXT	ENDS
;	COMDAT ?GetDescription@CXTPControl@@UBE?AVCString@@XZ
_TEXT	SEGMENT PARA USE32 PUBLIC 'CODE'
_TEXT	ENDS
;	COMDAT ?GetTooltip@CXTPControl@@UBE?AVCString@@XZ
_TEXT	SEGMENT PARA USE32 PUBLIC 'CODE'
_TEXT	ENDS
;	COMDAT ?GetCaption@CXTPControl@@UBE?AVCString@@XZ
_TEXT	SEGMENT PARA USE32 PUBLIC 'CODE'
_TEXT	ENDS
;	COMDAT ?SetBeginGroup@CXTPControl@@UAEXH@Z
_TEXT	SEGMENT PARA USE32 PUBLIC 'CODE'
_TEXT	ENDS
;	COMDAT ?OnEnabledChanged@CXTPControl@@UAEXXZ
_TEXT	SEGMENT PARA USE32 PUBLIC 'CODE'
_TEXT	ENDS
;	COMDAT ?SetEnabled@CXTPControl@@UAEXH@Z
_TEXT	SEGMENT PARA USE32 PUBLIC 'CODE'
_TEXT	ENDS
;	COMDAT ?SetChecked@CXTPControl@@UAEXH@Z
_TEXT	SEGMENT PARA USE32 PUBLIC 'CODE'
_TEXT	ENDS
;	COMDAT ?GetPressed@CXTPControl@@UBEHXZ
_TEXT	SEGMENT PARA USE32 PUBLIC 'CODE'
_TEXT	ENDS
;	COMDAT ?SetRect@CXTPControl@@UAEXVCRect@@@Z
_TEXT	SEGMENT PARA USE32 PUBLIC 'CODE'
_TEXT	ENDS
;	COMDAT ?IsVisible@CXTPControl@@UBEHK@Z
_TEXT	SEGMENT PARA USE32 PUBLIC 'CODE'
_TEXT	ENDS
;	COMDAT ?SetHideFlags@CXTPControl@@UAEXK@Z
_TEXT	SEGMENT PARA USE32 PUBLIC 'CODE'
_TEXT	ENDS
;	COMDAT ?SetHideFlag@CXTPControl@@QAEHW4XTPControlHideFlags@@H@Z
_TEXT	SEGMENT PARA USE32 PUBLIC 'CODE'
_TEXT	ENDS
;	COMDAT ?SetStyle@CXTPControl@@QAEXW4XTPButtonStyle@@@Z
_TEXT	SEGMENT PARA USE32 PUBLIC 'CODE'
_TEXT	ENDS
;	COMDAT ?GetCommandBar@CXTPControl@@UBEPAVCXTPCommandBar@@XZ
_TEXT	SEGMENT PARA USE32 PUBLIC 'CODE'
_TEXT	ENDS
;	COMDAT ?GetCustomizeMinWidth@CXTPControl@@MBEHXZ
_TEXT	SEGMENT PARA USE32 PUBLIC 'CODE'
_TEXT	ENDS
;	COMDAT ?GetCustomizeMinHeight@CXTPControl@@MBEHXZ
_TEXT	SEGMENT PARA USE32 PUBLIC 'CODE'
_TEXT	ENDS
;	COMDAT ?SetWidth@CXTPControl@@UAEXH@Z
_TEXT	SEGMENT PARA USE32 PUBLIC 'CODE'
_TEXT	ENDS
;	COMDAT ?SetHeight@CXTPControl@@UAEXH@Z
_TEXT	SEGMENT PARA USE32 PUBLIC 'CODE'
_TEXT	ENDS
;	COMDAT ?OnHookKeyDown@CXTPControl@@MAEHIJ@Z
_TEXT	SEGMENT PARA USE32 PUBLIC 'CODE'
_TEXT	ENDS
;	COMDAT ?OnSetPopup@CXTPControl@@MAEHH@Z
_TEXT	SEGMENT PARA USE32 PUBLIC 'CODE'
_TEXT	ENDS
;	COMDAT ?OnLButtonUp@CXTPControl@@MAEXVCPoint@@@Z
_TEXT	SEGMENT PARA USE32 PUBLIC 'CODE'
_TEXT	ENDS
;	COMDAT ?OnRButtonDown@CXTPControl@@MAEHVCPoint@@@Z
_TEXT	SEGMENT PARA USE32 PUBLIC 'CODE'
_TEXT	ENDS
;	COMDAT ?OnRButtonUp@CXTPControl@@MAEHVCPoint@@@Z
_TEXT	SEGMENT PARA USE32 PUBLIC 'CODE'
_TEXT	ENDS
;	COMDAT ?OnMouseMove@CXTPControl@@MAEXVCPoint@@@Z
_TEXT	SEGMENT PARA USE32 PUBLIC 'CODE'
_TEXT	ENDS
;	COMDAT ?IsFocusable@CXTPControl@@MBEHXZ
_TEXT	SEGMENT PARA USE32 PUBLIC 'CODE'
_TEXT	ENDS
;	COMDAT ?SetFocused@CXTPControl@@UAEXH@Z
_TEXT	SEGMENT PARA USE32 PUBLIC 'CODE'
_TEXT	ENDS
;	COMDAT ?IsFocused@CXTPControl@@UBEHXZ
_TEXT	SEGMENT PARA USE32 PUBLIC 'CODE'
_TEXT	ENDS
;	COMDAT ?OnCalcDynamicSize@CXTPControl@@UAEXK@Z
_TEXT	SEGMENT PARA USE32 PUBLIC 'CODE'
_TEXT	ENDS
;	COMDAT ?OnHookMouseWheel@CXTPControl@@MAEHIFVCPoint@@@Z
_TEXT	SEGMENT PARA USE32 PUBLIC 'CODE'
_TEXT	ENDS
;	COMDAT ?GetPopuped@CXTPControl@@UBEHXZ
_TEXT	SEGMENT PARA USE32 PUBLIC 'CODE'
_TEXT	ENDS
;	COMDAT ?OnIdleUpdate@CXTPControl@@MAEXXZ
_TEXT	SEGMENT PARA USE32 PUBLIC 'CODE'
_TEXT	ENDS
;	COMDAT ?OnThemeChanged@CXTPControl@@UAEXXZ
_TEXT	SEGMENT PARA USE32 PUBLIC 'CODE'
_TEXT	ENDS
;	COMDAT ?OnActionChanging@CXTPControl@@MAEXH@Z
_TEXT	SEGMENT PARA USE32 PUBLIC 'CODE'
_TEXT	ENDS
;	COMDAT ?OnToolHitTest@CXTPControl@@MBEHVCPoint@@PAUtagTOOLINFOA@@@Z
_TEXT	SEGMENT PARA USE32 PUBLIC 'CODE'
_TEXT	ENDS
;	COMDAT ?OnCaptionChanged@CXTPControl@@MAEXXZ
_TEXT	SEGMENT PARA USE32 PUBLIC 'CODE'
_TEXT	ENDS
;	COMDAT ?SetBorders@CXTPStatusBar@@QAEXHHHH@Z
_TEXT	SEGMENT PARA USE32 PUBLIC 'CODE'
_TEXT	ENDS
;	COMDAT ??_GCXTPPaintManagerFont@@UAEPAXI@Z
_TEXT	SEGMENT PARA USE32 PUBLIC 'CODE'
_TEXT	ENDS
;	COMDAT ??1CXTPPaintManagerFont@@UAE@XZ
_TEXT	SEGMENT PARA USE32 PUBLIC 'CODE'
_TEXT	ENDS
;	COMDAT ?Init@BTNSCROLL@SCROLLINFO@CXTPPopupBar@@QAEXPAVCWnd@@I@Z
_TEXT	SEGMENT PARA USE32 PUBLIC 'CODE'
_TEXT	ENDS
;	COMDAT ?KillTimer@BTNSCROLL@SCROLLINFO@CXTPPopupBar@@QAEXXZ
_TEXT	SEGMENT PARA USE32 PUBLIC 'CODE'
_TEXT	ENDS
;	COMDAT ?SetTimer@BTNSCROLL@SCROLLINFO@CXTPPopupBar@@QAEXXZ
_TEXT	SEGMENT PARA USE32 PUBLIC 'CODE'
_TEXT	ENDS
;	COMDAT ?GetListBoxCtrl@CXTPControlComboBox@@QBEPAVCListBox@@XZ
_TEXT	SEGMENT PARA USE32 PUBLIC 'CODE'
_TEXT	ENDS
;	COMDAT ?GetCount@CXTPControlComboBox@@QBEHXZ
_TEXT	SEGMENT PARA USE32 PUBLIC 'CODE'
_TEXT	ENDS
;	COMDAT ?GetOriginalAccelerator@CXTPShortcutManager@@QBEPAVCXTPShortcutManagerAccelTable@@XZ
_TEXT	SEGMENT PARA USE32 PUBLIC 'CODE'
_TEXT	ENDS
;	COMDAT ??_GCFontDesc@CXTPControlFontComboBoxList@@QAEPAXI@Z
_TEXT	SEGMENT PARA USE32 PUBLIC 'CODE'
_TEXT	ENDS
;	COMDAT ??1CFontDesc@CXTPControlFontComboBoxList@@QAE@XZ
_TEXT	SEGMENT PARA USE32 PUBLIC 'CODE'
_TEXT	ENDS
;	COMDAT ?GetSelected@CXTPControlLabel@@UBEHXZ
_TEXT	SEGMENT PARA USE32 PUBLIC 'CODE'
_TEXT	ENDS
;	COMDAT ??_GCXTPControlLabel@@UAEPAXI@Z
_TEXT	SEGMENT PARA USE32 PUBLIC 'CODE'
_TEXT	ENDS
;	COMDAT ??1CXTPControlLabel@@UAE@XZ
_TEXT	SEGMENT PARA USE32 PUBLIC 'CODE'
_TEXT	ENDS
;	COMDAT ?IsResizable@CXTPControlGallery@@QBEHXZ
_TEXT	SEGMENT PARA USE32 PUBLIC 'CODE'
_TEXT	ENDS
;	COMDAT ?Find@CTrustedArray@CXTPMouseManager@@QBEHQAUHWND__@@@Z
_TEXT	SEGMENT PARA USE32 PUBLIC 'CODE'
_TEXT	ENDS
;	COMDAT ??_GCAlphaBitmap@CXTPImageEditorPicture@@UAEPAXI@Z
_TEXT	SEGMENT PARA USE32 PUBLIC 'CODE'
_TEXT	ENDS
;	COMDAT ??1CAlphaBitmap@CXTPImageEditorPicture@@UAE@XZ
_TEXT	SEGMENT PARA USE32 PUBLIC 'CODE'
_TEXT	ENDS
;	COMDAT ??_GCDlgToolBar@CXTPImageEditorDlg@@UAEPAXI@Z
_TEXT	SEGMENT PARA USE32 PUBLIC 'CODE'
_TEXT	ENDS
;	COMDAT ??1CDlgToolBar@CXTPImageEditorDlg@@UAE@XZ
_TEXT	SEGMENT PARA USE32 PUBLIC 'CODE'
_TEXT	ENDS
;	COMDAT ??_GCXTPCustomizeCommandsListBox@@UAEPAXI@Z
_TEXT	SEGMENT PARA USE32 PUBLIC 'CODE'
_TEXT	ENDS
;	COMDAT ??1CXTPCustomizeCommandsListBox@@UAE@XZ
_TEXT	SEGMENT PARA USE32 PUBLIC 'CODE'
_TEXT	ENDS
;	COMDAT ??_GCXTPDialog@@UAEPAXI@Z
_TEXT	SEGMENT PARA USE32 PUBLIC 'CODE'
_TEXT	ENDS
;	COMDAT ??1CXTPDialog@@UAE@XZ
_TEXT	SEGMENT PARA USE32 PUBLIC 'CODE'
_TEXT	ENDS
;	COMDAT ?GetPThis@C_m_Sink_Informator@CXTPOffice2007FrameHook@@SAPAV2@PAE@Z
_TEXT	SEGMENT PARA USE32 PUBLIC 'CODE'
_TEXT	ENDS
;	COMDAT ??0XTP_DOCKINGPANE_INFO@@QAE@PAVCXTPDockingPane@@@Z
_TEXT	SEGMENT PARA USE32 PUBLIC 'CODE'
_TEXT	ENDS
;	COMDAT ?RedrawPanes@CXTPDockingPaneManager@@QAEXXZ
_TEXT	SEGMENT PARA USE32 PUBLIC 'CODE'
_TEXT	ENDS
;	COMDAT ?GetCount@CXTPPropertyGridInplaceButtons@@QBEHXZ
_TEXT	SEGMENT PARA USE32 PUBLIC 'CODE'
_TEXT	ENDS
;	COMDAT ?GetCount@CXTPPropertyGridItems@@QBEJXZ
_TEXT	SEGMENT PARA USE32 PUBLIC 'CODE'
_TEXT	ENDS
;	COMDAT ?IsEmpty@CXTPPropertyGridItems@@QBEHXZ
_TEXT	SEGMENT PARA USE32 PUBLIC 'CODE'
_TEXT	ENDS
;	COMDAT ?GetCount@CXTPPropertyGridItemConstraints@@QBEHXZ
_TEXT	SEGMENT PARA USE32 PUBLIC 'CODE'
_TEXT	ENDS
;	COMDAT ?GetItemMetrics@CXTPPropertyGridPaintManager@@QBEPAVCXTPPropertyGridItemMetrics@@XZ
_TEXT	SEGMENT PARA USE32 PUBLIC 'CODE'
_TEXT	ENDS
;	COMDAT ?IsEmpty@CXTPPropertyGridVerbs@@QBEHXZ
_TEXT	SEGMENT PARA USE32 PUBLIC 'CODE'
_TEXT	ENDS
;	COMDAT ??_GCXTPPropertyGridInplaceMonthCal@@UAEPAXI@Z
_TEXT	SEGMENT PARA USE32 PUBLIC 'CODE'
_TEXT	ENDS
;	COMDAT ??1CXTPPropertyGridInplaceMonthCal@@UAE@XZ
_TEXT	SEGMENT PARA USE32 PUBLIC 'CODE'
_TEXT	ENDS
;	COMDAT ?XTPHeapSetCompatibilityInformation@@YAHPAX0K@Z
_TEXT	SEGMENT PARA USE32 PUBLIC 'CODE'
_TEXT	ENDS
;	COMDAT ??1CXTPHeapString@@UAE@XZ
_TEXT	SEGMENT PARA USE32 PUBLIC 'CODE'
_TEXT	ENDS
;	COMDAT ?IsEmpty@CXTPHeapString@@UBEHXZ
_TEXT	SEGMENT PARA USE32 PUBLIC 'CODE'
_TEXT	ENDS
;	COMDAT ??BCXTPHeapString@@QBEPBDXZ
_TEXT	SEGMENT PARA USE32 PUBLIC 'CODE'
_TEXT	ENDS
;	COMDAT ?AllocSysString@CXTPHeapString@@UBEPAGXZ
_TEXT	SEGMENT PARA USE32 PUBLIC 'CODE'
_TEXT	ENDS
;	COMDAT ?SetString@CXTPHeapString@@UAEXPBD@Z
_TEXT	SEGMENT PARA USE32 PUBLIC 'CODE'
_TEXT	ENDS
;	COMDAT ?_AllocStringData@CXTPHeapString@@MAEXH@Z
_TEXT	SEGMENT PARA USE32 PUBLIC 'CODE'
_TEXT	ENDS
;	COMDAT ?_FreeStringData@CXTPHeapString@@MAEXXZ
_TEXT	SEGMENT PARA USE32 PUBLIC 'CODE'
_TEXT	ENDS
;	COMDAT ??_GCXTPHeapString@@UAEPAXI@Z
_TEXT	SEGMENT PARA USE32 PUBLIC 'CODE'
_TEXT	ENDS
;	COMDAT ?GetCount@CXTPReportColumns@@QBEHXZ
_TEXT	SEGMENT PARA USE32 PUBLIC 'CODE'
_TEXT	ENDS
;	COMDAT ?EnablePreviewMode@CXTPReportPaintManager@@QAEXH@Z
_TEXT	SEGMENT PARA USE32 PUBLIC 'CODE'
_TEXT	ENDS
;	COMDAT ?IsPreviewMode@CXTPReportPaintManager@@QBEHXZ
_TEXT	SEGMENT PARA USE32 PUBLIC 'CODE'
_TEXT	ENDS
;	COMDAT ?SetGridColor@CXTPReportPaintManager@@QAEKK@Z
_TEXT	SEGMENT PARA USE32 PUBLIC 'CODE'
_TEXT	ENDS
;	COMDAT ?GetPaintManager@CXTPReportControl@@QBEPAVCXTPReportPaintManager@@XZ
_TEXT	SEGMENT PARA USE32 PUBLIC 'CODE'
_TEXT	ENDS
;	COMDAT ?GetNavigator@CXTPReportControl@@QBEPAVCXTPReportNavigator@@XZ
_TEXT	SEGMENT PARA USE32 PUBLIC 'CODE'
_TEXT	ENDS
;	COMDAT ?GetItemCount@CXTPReportRecord@@QBEHXZ
_TEXT	SEGMENT PARA USE32 PUBLIC 'CODE'
_TEXT	ENDS
;	COMDAT ??_GXTP_REPORTRECORDITEM_DRAWARGS@@UAEPAXI@Z
_TEXT	SEGMENT PARA USE32 PUBLIC 'CODE'
_TEXT	ENDS
;	COMDAT ??1XTP_REPORTRECORDITEM_DRAWARGS@@UAE@XZ
_TEXT	SEGMENT PARA USE32 PUBLIC 'CODE'
_TEXT	ENDS
;	COMDAT ?Reset@XTP_REPORTRECORDITEM_METRICS@@QAEXXZ
_TEXT	SEGMENT PARA USE32 PUBLIC 'CODE'
_TEXT	ENDS
;	COMDAT ??_GXTP_REPORTRECORDITEM_METRICS@@UAEPAXI@Z
_TEXT	SEGMENT PARA USE32 PUBLIC 'CODE'
_TEXT	ENDS
;	COMDAT ??1XTP_REPORTRECORDITEM_METRICS@@UAE@XZ
_TEXT	SEGMENT PARA USE32 PUBLIC 'CODE'
_TEXT	ENDS
;	COMDAT ?GetPThis@C_m_Sink_Informator@CXTPCalendarController@@SAPAV2@PAE@Z
_TEXT	SEGMENT PARA USE32 PUBLIC 'CODE'
_TEXT	ENDS
;	COMDAT ?_RoundDateTime_dbl@CXTPCalendarUtils@@SANN@Z
_TEXT	SEGMENT PARA USE32 PUBLIC 'CODE'
_TEXT	ENDS
;	COMDAT ?_ResetTime_dbl@CXTPCalendarUtils@@SANN@Z
_TEXT	SEGMENT PARA USE32 PUBLIC 'CODE'
_TEXT	ENDS
;	COMDAT ?_ResetDate_dbl@CXTPCalendarUtils@@SANN@Z
_TEXT	SEGMENT PARA USE32 PUBLIC 'CODE'
_TEXT	ENDS
;	COMDAT ?ResetTime@CXTPCalendarUtils@@SA?BVCOleDateTime@@ABV2@@Z
_TEXT	SEGMENT PARA USE32 PUBLIC 'CODE'
_TEXT	ENDS
;	COMDAT ?SetTime_235959@CXTPCalendarUtils@@SA?BVCOleDateTime@@ABV2@@Z
_TEXT	SEGMENT PARA USE32 PUBLIC 'CODE'
_TEXT	ENDS
;	COMDAT ?GetDayOfWeekMask@CXTPCalendarUtils@@SAHH@Z
_TEXT	SEGMENT PARA USE32 PUBLIC 'CODE'
_TEXT	ENDS
;	COMDAT ?GetMaxMonthDay@CXTPCalendarUtils@@SAHVCOleDateTime@@@Z
_TEXT	SEGMENT PARA USE32 PUBLIC 'CODE'
_TEXT	ENDS
;	COMDAT ?UpdateMonthDay@CXTPCalendarUtils@@SAHAAVCOleDateTime@@H@Z
_TEXT	SEGMENT PARA USE32 PUBLIC 'CODE'
_TEXT	ENDS
;	COMDAT ?ShiftDate_Month@CXTPCalendarUtils@@SAHAAVCOleDateTime@@H@Z
_TEXT	SEGMENT PARA USE32 PUBLIC 'CODE'
_TEXT	ENDS
;	COMDAT ?ShiftDate_Year@CXTPCalendarUtils@@SAHAAVCOleDateTime@@H@Z
_TEXT	SEGMENT PARA USE32 PUBLIC 'CODE'
_TEXT	ENDS
;	COMDAT ?RetriveEventEndDate@CXTPCalendarUtils@@SA?AVCOleDateTime@@ABV2@0@Z
_TEXT	SEGMENT PARA USE32 PUBLIC 'CODE'
_TEXT	ENDS
;	COMDAT ?Minutes2Span@CXTPCalendarUtils@@SA?AVCOleDateTimeSpan@@H@Z
_TEXT	SEGMENT PARA USE32 PUBLIC 'CODE'
_TEXT	ENDS
;	COMDAT ?GetAsSystemTime@CXTPCalendarUtils@@SAHABVCOleDateTime@@AAU_SYSTEMTIME@@@Z
_TEXT	SEGMENT PARA USE32 PUBLIC 'CODE'
_TEXT	ENDS
;	COMDAT ?GetTotalDays@CXTPCalendarUtils@@SAJABVCOleDateTimeSpan@@@Z
_TEXT	SEGMENT PARA USE32 PUBLIC 'CODE'
_TEXT	ENDS
;	COMDAT ?_DoubleToLONG@CXTPCalendarUtils@@SAJN@Z
_TEXT	SEGMENT PARA USE32 PUBLIC 'CODE'
_TEXT	ENDS
;	COMDAT ?GetTotalMinutes@CXTPCalendarUtils@@SAJABVCOleDateTimeSpan@@@Z
_TEXT	SEGMENT PARA USE32 PUBLIC 'CODE'
_TEXT	ENDS
;	COMDAT ??0XTP_CALENDAR_HITTESTINFO@@QAE@XZ
_TEXT	SEGMENT PARA USE32 PUBLIC 'CODE'
_TEXT	ENDS
;	COMDAT ??1XTP_CALENDAR_HITTESTINFO@@UAE@XZ
_TEXT	SEGMENT PARA USE32 PUBLIC 'CODE'
_TEXT	ENDS
;	COMDAT ??8XTP_CALENDAR_HITTESTINFO@@QAEHABU0@@Z
_TEXT	SEGMENT PARA USE32 PUBLIC 'CODE'
_TEXT	ENDS
;	COMDAT ??4XTP_CALENDAR_HITTESTINFO@@QAEABU0@ABU0@@Z
_TEXT	SEGMENT PARA USE32 PUBLIC 'CODE'
_TEXT	ENDS
;	COMDAT ??_GXTP_CALENDAR_HITTESTINFO@@UAEPAXI@Z
_TEXT	SEGMENT PARA USE32 PUBLIC 'CODE'
_TEXT	ENDS
;	COMDAT ??0XTP_CALENDAR_HITTESTINFO_DAY_VIEW@@QAE@XZ
_TEXT	SEGMENT PARA USE32 PUBLIC 'CODE'
_TEXT	ENDS
;	COMDAT ??_GXTP_CALENDAR_HITTESTINFO_DAY_VIEW@@UAEPAXI@Z
_TEXT	SEGMENT PARA USE32 PUBLIC 'CODE'
_TEXT	ENDS
;	COMDAT ??1XTP_CALENDAR_HITTESTINFO_DAY_VIEW@@UAE@XZ
_TEXT	SEGMENT PARA USE32 PUBLIC 'CODE'
_TEXT	ENDS
;	COMDAT ??0XTP_CALENDAR_MONTHVIEW_DAYPOS@@QAE@H@Z
_TEXT	SEGMENT PARA USE32 PUBLIC 'CODE'
_TEXT	ENDS
;	COMDAT ??1XTP_CALENDAR_PATTERN_END@@UAE@XZ
_TEXT	SEGMENT PARA USE32 PUBLIC 'CODE'
_TEXT	ENDS
;	COMDAT ??_GXTP_CALENDAR_PATTERN_END@@UAEPAXI@Z
_TEXT	SEGMENT PARA USE32 PUBLIC 'CODE'
_TEXT	ENDS
;	COMDAT ??1XTP_DAYITEM_METRICS@@UAE@XZ
_TEXT	SEGMENT PARA USE32 PUBLIC 'CODE'
_TEXT	ENDS
;	COMDAT ??_GXTP_DAYITEM_METRICS@@UAEPAXI@Z
_TEXT	SEGMENT PARA USE32 PUBLIC 'CODE'
_TEXT	ENDS
;	COMDAT ??1CXTPDatePickerButton@@UAE@XZ
_TEXT	SEGMENT PARA USE32 PUBLIC 'CODE'
_TEXT	ENDS
;	COMDAT ??_GCXTPDatePickerButton@@UAEPAXI@Z
_TEXT	SEGMENT PARA USE32 PUBLIC 'CODE'
_TEXT	ENDS
;	COMDAT ??0CXTPCalendarViewPartFontValue@@QAE@XZ
_TEXT	SEGMENT PARA USE32 PUBLIC 'CODE'
_TEXT	ENDS
;	COMDAT ?SetStandardValue@CXTPCalendarViewPartFontValue@@QAEXPAUtagLOGFONTA@@@Z
_TEXT	SEGMENT PARA USE32 PUBLIC 'CODE'
_TEXT	ENDS
;	COMDAT ??4CXTPCalendarViewPartFontValue@@QAEABV0@PAUtagLOGFONTA@@@Z
_TEXT	SEGMENT PARA USE32 PUBLIC 'CODE'
_TEXT	ENDS
;	COMDAT ??0CXTPCalendarThemeFontValue@@QAE@XZ
_TEXT	SEGMENT PARA USE32 PUBLIC 'CODE'
_TEXT	ENDS
;	COMDAT ?SetStandardValue@CXTPCalendarThemeFontValue@@UAEXPAUtagLOGFONTA@@@Z
_TEXT	SEGMENT PARA USE32 PUBLIC 'CODE'
_TEXT	ENDS
;	COMDAT ?SetCustomValue@CXTPCalendarThemeFontValue@@UAEXPAUtagLOGFONTA@@@Z
_TEXT	SEGMENT PARA USE32 PUBLIC 'CODE'
_TEXT	ENDS
;	COMDAT ?SetStandardValue@CXTPCalendarThemeFontValue@@UAEXPAVCFont@@@Z
_TEXT	SEGMENT PARA USE32 PUBLIC 'CODE'
_TEXT	ENDS
;	COMDAT ?SetCustomValue@CXTPCalendarThemeFontValue@@UAEXPAVCFont@@@Z
_TEXT	SEGMENT PARA USE32 PUBLIC 'CODE'
_TEXT	ENDS
;	COMDAT ?CopySettings@CXTPCalendarThemeFontValue@@QAEXABV1@@Z
_TEXT	SEGMENT PARA USE32 PUBLIC 'CODE'
_TEXT	ENDS
;	COMDAT ??_GCXTPCalendarThemeFontValue@@UAEPAXI@Z
_TEXT	SEGMENT PARA USE32 PUBLIC 'CODE'
_TEXT	ENDS
;	COMDAT ??1CXTPCalendarThemeFontValue@@UAE@XZ
_TEXT	SEGMENT PARA USE32 PUBLIC 'CODE'
_TEXT	ENDS
;	COMDAT ??0CXTPCalendarThemeStringValue@@QAE@XZ
_TEXT	SEGMENT PARA USE32 PUBLIC 'CODE'
_TEXT	ENDS
;	COMDAT ?DoDestroy@CXTPCalendarThemeStringValue@@MAEXAAVCString@@@Z
_TEXT	SEGMENT PARA USE32 PUBLIC 'CODE'
_TEXT	ENDS
;	COMDAT ?DoPX_Value@CXTPCalendarThemeStringValue@@MAEXPAVCXTPPropExchange@@PBDAAVCString@@H@Z
_TEXT	SEGMENT PARA USE32 PUBLIC 'CODE'
_TEXT	ENDS
;	COMDAT ??_GCXTPCalendarThemeStringValue@@UAEPAXI@Z
_TEXT	SEGMENT PARA USE32 PUBLIC 'CODE'
_TEXT	ENDS
;	COMDAT ??1CXTPCalendarThemeStringValue@@UAE@XZ
_TEXT	SEGMENT PARA USE32 PUBLIC 'CODE'
_TEXT	ENDS
;	COMDAT ??0CXTPCalendarThemeIntValue@@QAE@XZ
_TEXT	SEGMENT PARA USE32 PUBLIC 'CODE'
_TEXT	ENDS
;	COMDAT ?DoPX_Value@CXTPCalendarThemeIntValue@@UAEXPAVCXTPPropExchange@@PBDAAHH@Z
_TEXT	SEGMENT PARA USE32 PUBLIC 'CODE'
_TEXT	ENDS
;	COMDAT ??_GCXTPCalendarThemeIntValue@@UAEPAXI@Z
_TEXT	SEGMENT PARA USE32 PUBLIC 'CODE'
_TEXT	ENDS
;	COMDAT ??1CXTPCalendarThemeIntValue@@UAE@XZ
_TEXT	SEGMENT PARA USE32 PUBLIC 'CODE'
_TEXT	ENDS
;	COMDAT ??0CXTPCalendarThemeBOOLValue@@QAE@XZ
_TEXT	SEGMENT PARA USE32 PUBLIC 'CODE'
_TEXT	ENDS
;	COMDAT ?DoPX_Value@CXTPCalendarThemeBOOLValue@@UAEXPAVCXTPPropExchange@@PBDAAHH@Z
_TEXT	SEGMENT PARA USE32 PUBLIC 'CODE'
_TEXT	ENDS
;	COMDAT ??_GCXTPCalendarThemeBOOLValue@@UAEPAXI@Z
_TEXT	SEGMENT PARA USE32 PUBLIC 'CODE'
_TEXT	ENDS
;	COMDAT ??1CXTPCalendarThemeBOOLValue@@UAE@XZ
_TEXT	SEGMENT PARA USE32 PUBLIC 'CODE'
_TEXT	ENDS
;	COMDAT ??0CXTPCalendarThemeRectValue@@QAE@XZ
_TEXT	SEGMENT PARA USE32 PUBLIC 'CODE'
_TEXT	ENDS
;	COMDAT ?DoPX_Value@CXTPCalendarThemeRectValue@@UAEXPAVCXTPPropExchange@@PBDAAVCRect@@H@Z
_TEXT	SEGMENT PARA USE32 PUBLIC 'CODE'
_TEXT	ENDS
;	COMDAT ??_GCXTPCalendarThemeRectValue@@UAEPAXI@Z
_TEXT	SEGMENT PARA USE32 PUBLIC 'CODE'
_TEXT	ENDS
;	COMDAT ??1CXTPCalendarThemeRectValue@@UAE@XZ
_TEXT	SEGMENT PARA USE32 PUBLIC 'CODE'
_TEXT	ENDS
;	COMDAT ?_Init@CXTPCalendarViewPart@@MAEXXZ
_TEXT	SEGMENT PARA USE32 PUBLIC 'CODE'
_TEXT	ENDS
;	COMDAT ?GetControlBackColor@CXTPDatePickerPaintManager@@UAEKXZ
_TEXT	SEGMENT PARA USE32 PUBLIC 'CODE'
_TEXT	ENDS
;	COMDAT ?GetDayBackColor@CXTPDatePickerPaintManager@@UAEKXZ
_TEXT	SEGMENT PARA USE32 PUBLIC 'CODE'
_TEXT	ENDS
;	COMDAT ?GetDayTextColor@CXTPDatePickerPaintManager@@UAEKXZ
_TEXT	SEGMENT PARA USE32 PUBLIC 'CODE'
_TEXT	ENDS
;	COMDAT ?GetDayTextFont@CXTPDatePickerPaintManager@@UAEPAVCFont@@XZ
_TEXT	SEGMENT PARA USE32 PUBLIC 'CODE'
_TEXT	ENDS
;	COMDAT ?GetDayTextFontBold@CXTPDatePickerPaintManager@@UAEPAVCFont@@XZ
_TEXT	SEGMENT PARA USE32 PUBLIC 'CODE'
_TEXT	ENDS
;	COMDAT ?GetNonMonthDayBackColor@CXTPDatePickerPaintManager@@UAEKXZ
_TEXT	SEGMENT PARA USE32 PUBLIC 'CODE'
_TEXT	ENDS
;	COMDAT ?GetNonMonthDayTextColor@CXTPDatePickerPaintManager@@UAEKXZ
_TEXT	SEGMENT PARA USE32 PUBLIC 'CODE'
_TEXT	ENDS
;	COMDAT ?GetSelectedDayBackColor@CXTPDatePickerPaintManager@@UAEKXZ
_TEXT	SEGMENT PARA USE32 PUBLIC 'CODE'
_TEXT	ENDS
;	COMDAT ?GetSelectedDayTextColor@CXTPDatePickerPaintManager@@UAEKXZ
_TEXT	SEGMENT PARA USE32 PUBLIC 'CODE'
_TEXT	ENDS
;	COMDAT ?GetHeaderBackColor@CXTPDatePickerPaintManager@@UAEKXZ
_TEXT	SEGMENT PARA USE32 PUBLIC 'CODE'
_TEXT	ENDS
;	COMDAT ?GetHeaderTextColor@CXTPDatePickerPaintManager@@UAEKXZ
_TEXT	SEGMENT PARA USE32 PUBLIC 'CODE'
_TEXT	ENDS
;	COMDAT ?GetDaysOfWeekBackColor@CXTPDatePickerPaintManager@@UAEKXZ
_TEXT	SEGMENT PARA USE32 PUBLIC 'CODE'
_TEXT	ENDS
;	COMDAT ?GetDaysOfWeekTextColor@CXTPDatePickerPaintManager@@UAEKXZ
_TEXT	SEGMENT PARA USE32 PUBLIC 'CODE'
_TEXT	ENDS
;	COMDAT ?GetWeekNumbersBackColor@CXTPDatePickerPaintManager@@UAEKXZ
_TEXT	SEGMENT PARA USE32 PUBLIC 'CODE'
_TEXT	ENDS
;	COMDAT ?GetWeekNumbersTextColor@CXTPDatePickerPaintManager@@UAEKXZ
_TEXT	SEGMENT PARA USE32 PUBLIC 'CODE'
_TEXT	ENDS
;	COMDAT ?GetListControlBackColor@CXTPDatePickerPaintManager@@UAEKXZ
_TEXT	SEGMENT PARA USE32 PUBLIC 'CODE'
_TEXT	ENDS
;	COMDAT ?GetListControlTextColor@CXTPDatePickerPaintManager@@UAEKXZ
_TEXT	SEGMENT PARA USE32 PUBLIC 'CODE'
_TEXT	ENDS
;	COMDAT ?GetHighlightTodayColor@CXTPDatePickerPaintManager@@UAEKXZ
_TEXT	SEGMENT PARA USE32 PUBLIC 'CODE'
_TEXT	ENDS
;	COMDAT ?EnableTheme@CXTPDatePickerPaintManager@@UAEXH@Z
_TEXT	SEGMENT PARA USE32 PUBLIC 'CODE'
_TEXT	ENDS
;	COMDAT ?GetCursorBack@CXTPDatePickerPaintManager@@UAEPAUHICON__@@XZ
_TEXT	SEGMENT PARA USE32 PUBLIC 'CODE'
_TEXT	ENDS
;	COMDAT ?GetControl@CXTPDatePickerPaintManager@@MAEPAVCXTPDatePickerControl@@XZ
_TEXT	SEGMENT PARA USE32 PUBLIC 'CODE'
_TEXT	ENDS
;	COMDAT ?RefreshMetrics@CXTPDatePickerThemePart@@UAEXXZ
_TEXT	SEGMENT PARA USE32 PUBLIC 'CODE'
_TEXT	ENDS
;	COMDAT ??_GCXTPDatePickerThemePart@@UAEPAXI@Z
_TEXT	SEGMENT PARA USE32 PUBLIC 'CODE'
_TEXT	ENDS
;	COMDAT ??1CXTPDatePickerThemePart@@UAE@XZ
_TEXT	SEGMENT PARA USE32 PUBLIC 'CODE'
_TEXT	ENDS
;	COMDAT ?SetStandardValue@CThemeFontColorSet@CXTPDatePickerTheme@@QAEXABV12@@Z
_TEXT	SEGMENT PARA USE32 PUBLIC 'CODE'
_TEXT	ENDS
;	COMDAT ?GetPThis@C_m_Sink_Informator@CXTPDatePickerTheme@@SAPAV2@PAE@Z
_TEXT	SEGMENT PARA USE32 PUBLIC 'CODE'
_TEXT	ENDS
;	COMDAT ??_GCXTPDatePickerTheme@@UAEPAXI@Z
_TEXT	SEGMENT PARA USE32 PUBLIC 'CODE'
_TEXT	ENDS
;	COMDAT ??1CXTPDatePickerThemeOffice2007@@UAE@XZ
_TEXT	SEGMENT PARA USE32 PUBLIC 'CODE'
_TEXT	ENDS
;	COMDAT ?GetDayPartX@CXTPDatePickerThemeOffice2007@@UAEPAVCTODay@1@XZ
_TEXT	SEGMENT PARA USE32 PUBLIC 'CODE'
_TEXT	ENDS
;	COMDAT ?GetDayPart@CXTPDatePickerThemeOffice2007@@UAEPAVCTODay@CXTPDatePickerTheme@@XZ
_TEXT	SEGMENT PARA USE32 PUBLIC 'CODE'
_TEXT	ENDS
;	COMDAT ?GetMonthHeaderPartX@CXTPDatePickerThemeOffice2007@@UAEPAVCTOMonthHeader@1@XZ
_TEXT	SEGMENT PARA USE32 PUBLIC 'CODE'
_TEXT	ENDS
;	COMDAT ?GetMonthHeaderPart@CXTPDatePickerThemeOffice2007@@UAEPAVCTOMonthHeader@CXTPDatePickerTheme@@XZ
_TEXT	SEGMENT PARA USE32 PUBLIC 'CODE'
_TEXT	ENDS
;	COMDAT ?GetWeekDayPartX@CXTPDatePickerThemeOffice2007@@UAEPAVCTOWeekDay@1@XZ
_TEXT	SEGMENT PARA USE32 PUBLIC 'CODE'
_TEXT	ENDS
;	COMDAT ?GetWeekDayPart@CXTPDatePickerThemeOffice2007@@UAEPAVCTOWeekDay@CXTPDatePickerTheme@@XZ
_TEXT	SEGMENT PARA USE32 PUBLIC 'CODE'
_TEXT	ENDS
;	COMDAT ?GetWeekNumberPartX@CXTPDatePickerThemeOffice2007@@UAEPAVCTOWeekNumber@1@XZ
_TEXT	SEGMENT PARA USE32 PUBLIC 'CODE'
_TEXT	ENDS
;	COMDAT ?GetWeekNumberPart@CXTPDatePickerThemeOffice2007@@UAEPAVCTOWeekNumber@CXTPDatePickerTheme@@XZ
_TEXT	SEGMENT PARA USE32 PUBLIC 'CODE'
_TEXT	ENDS
;	COMDAT ?GetButtonPartX@CXTPDatePickerThemeOffice2007@@UAEPAVCTOButton@1@XZ
_TEXT	SEGMENT PARA USE32 PUBLIC 'CODE'
_TEXT	ENDS
;	COMDAT ?GetButtonPart@CXTPDatePickerThemeOffice2007@@UAEPAVCTOButton@CXTPDatePickerTheme@@XZ
_TEXT	SEGMENT PARA USE32 PUBLIC 'CODE'
_TEXT	ENDS
;	COMDAT ??_GCXTPDatePickerThemeOffice2007@@UAEPAXI@Z
_TEXT	SEGMENT PARA USE32 PUBLIC 'CODE'
_TEXT	ENDS
;	COMDAT ?GetPThis@C_m_Sink_DP_Informator@CXTPCalendarControl@@SAPAV2@PAE@Z
_TEXT	SEGMENT PARA USE32 PUBLIC 'CODE'
_TEXT	ENDS
;	COMDAT ?GetCount@CXTPCalendarEvents@@QBEHXZ
_TEXT	SEGMENT PARA USE32 PUBLIC 'CODE'
_TEXT	ENDS
;	COMDAT ??1CXTPCalendarEventLabel@@UAE@XZ
_TEXT	SEGMENT PARA USE32 PUBLIC 'CODE'
_TEXT	ENDS
;	COMDAT ??_GCXTPCalendarEventLabel@@UAEPAXI@Z
_TEXT	SEGMENT PARA USE32 PUBLIC 'CODE'
_TEXT	ENDS
;	COMDAT ?ScrollV@CXTPCalendarView@@UAEXHH@Z
_TEXT	SEGMENT PARA USE32 PUBLIC 'CODE'
_TEXT	ENDS
;	COMDAT ?ScrollH@CXTPCalendarView@@UAEXHH@Z
_TEXT	SEGMENT PARA USE32 PUBLIC 'CODE'
_TEXT	ENDS
;	COMDAT ?OnScrollEnd@CXTPCalendarView@@UAEXH@Z
_TEXT	SEGMENT PARA USE32 PUBLIC 'CODE'
_TEXT	ENDS
;	COMDAT ?GetScrollBarInfoV@CXTPCalendarView@@UAEHPAUtagSCROLLINFO@@@Z
_TEXT	SEGMENT PARA USE32 PUBLIC 'CODE'
_TEXT	ENDS
;	COMDAT ?GetScrollBarInfoH@CXTPCalendarView@@UAEHPAUtagSCROLLINFO@@PAH@Z
_TEXT	SEGMENT PARA USE32 PUBLIC 'CODE'
_TEXT	ENDS
;	COMDAT ?Draw@CXTPCalendarView@@UAEXPAVCDC@@@Z
_TEXT	SEGMENT PARA USE32 PUBLIC 'CODE'
_TEXT	ENDS
;	COMDAT ?Draw2@CXTPCalendarView@@UAEXPAVCDC@@@Z
_TEXT	SEGMENT PARA USE32 PUBLIC 'CODE'
_TEXT	ENDS
;	COMDAT ??1CUndoBuffer@CXTPCalendarView@@UAE@XZ
_TEXT	SEGMENT PARA USE32 PUBLIC 'CODE'
_TEXT	ENDS
;	COMDAT ?RemoveAll@CUndoBuffer@CXTPCalendarView@@QAEXXZ
_TEXT	SEGMENT PARA USE32 PUBLIC 'CODE'
_TEXT	ENDS
;	COMDAT ??0SUndoAction@CUndoBuffer@CXTPCalendarView@@QAE@PAVCXTPCalendarEvent@@0@Z
_TEXT	SEGMENT PARA USE32 PUBLIC 'CODE'
_TEXT	ENDS
;	COMDAT ??1SUndoAction@CUndoBuffer@CXTPCalendarView@@UAE@XZ
_TEXT	SEGMENT PARA USE32 PUBLIC 'CODE'
_TEXT	ENDS
;	COMDAT ??4SUndoAction@CUndoBuffer@CXTPCalendarView@@QAEABU012@ABU012@@Z
_TEXT	SEGMENT PARA USE32 PUBLIC 'CODE'
_TEXT	ENDS
;	COMDAT ??_GCUndoBuffer@CXTPCalendarView@@UAEPAXI@Z
_TEXT	SEGMENT PARA USE32 PUBLIC 'CODE'
_TEXT	ENDS
;	COMDAT ??_GSUndoAction@CUndoBuffer@CXTPCalendarView@@UAEPAXI@Z
_TEXT	SEGMENT PARA USE32 PUBLIC 'CODE'
_TEXT	ENDS
;	COMDAT ?GetCalendarControl@CXTPCalendarView@@UBEPAVCXTPCalendarControl@@XZ
_TEXT	SEGMENT PARA USE32 PUBLIC 'CODE'
_TEXT	ENDS
;	COMDAT ?GetDraggingMode@CXTPCalendarView@@UBE?AW4XTPCalendarDraggingMode@@XZ
_TEXT	SEGMENT PARA USE32 PUBLIC 'CODE'
_TEXT	ENDS
;	COMDAT ?GetRowHeight@CXTPCalendarView@@UBEHXZ
_TEXT	SEGMENT PARA USE32 PUBLIC 'CODE'
_TEXT	ENDS
;	COMDAT ?GetStartEditSubjectTimeOut@CXTPCalendarView@@UBEIXZ
_TEXT	SEGMENT PARA USE32 PUBLIC 'CODE'
_TEXT	ENDS
;	COMDAT ?IsEditingSubject@CXTPCalendarView@@UBEHXZ
_TEXT	SEGMENT PARA USE32 PUBLIC 'CODE'
_TEXT	ENDS
;	COMDAT ?EmptyUndoBuffer@CXTPCalendarView@@UAEXXZ
_TEXT	SEGMENT PARA USE32 PUBLIC 'CODE'
_TEXT	ENDS
;	COMDAT ?GetDayHeaderFormat@CXTPCalendarView@@UAE?AVCString@@XZ
_TEXT	SEGMENT PARA USE32 PUBLIC 'CODE'
_TEXT	ENDS
;	COMDAT ?SetDayHeaderFormat@CXTPCalendarView@@UAEXVCString@@@Z
_TEXT	SEGMENT PARA USE32 PUBLIC 'CODE'
_TEXT	ENDS
;	COMDAT ?EnableVScroll@CXTPCalendarView@@UAEXH@Z
_TEXT	SEGMENT PARA USE32 PUBLIC 'CODE'
_TEXT	ENDS
;	COMDAT ?EnableHScroll@CXTPCalendarView@@UAEXH@Z
_TEXT	SEGMENT PARA USE32 PUBLIC 'CODE'
_TEXT	ENDS
;	COMDAT ?IsHScrollEnabled@CXTPCalendarView@@UAEHXZ
_TEXT	SEGMENT PARA USE32 PUBLIC 'CODE'
_TEXT	ENDS
;	COMDAT ?IsVScrollEnabled@CXTPCalendarView@@UAEHXZ
_TEXT	SEGMENT PARA USE32 PUBLIC 'CODE'
_TEXT	ENDS
;	COMDAT ?SetDayHeaderFormatLong@CXTPCalendarView@@UAEXPBD@Z
_TEXT	SEGMENT PARA USE32 PUBLIC 'CODE'
_TEXT	ENDS
;	COMDAT ?SetDayHeaderFormatShortest@CXTPCalendarView@@UAEXPBD@Z
_TEXT	SEGMENT PARA USE32 PUBLIC 'CODE'
_TEXT	ENDS
;	COMDAT ?SetDayHeaderFormatMiddle@CXTPCalendarView@@UAEXPBD@Z
_TEXT	SEGMENT PARA USE32 PUBLIC 'CODE'
_TEXT	ENDS
;	COMDAT ?SetDayHeaderFormatShort@CXTPCalendarView@@UAEXPBD@Z
_TEXT	SEGMENT PARA USE32 PUBLIC 'CODE'
_TEXT	ENDS
;	COMDAT ?GetChildHandlersCount@CXTPCalendarView@@UAEHXZ
_TEXT	SEGMENT PARA USE32 PUBLIC 'CODE'
_TEXT	ENDS
;	COMDAT ?GetLayout_@CXTPCalendarView@@MAEAAUXTP_VIEW_LAYOUT@1@XZ
_TEXT	SEGMENT PARA USE32 PUBLIC 'CODE'
_TEXT	ENDS
;	COMDAT ?IsUseCellAlignedDraggingInTimeArea@CXTPCalendarView@@MAEHXZ
_TEXT	SEGMENT PARA USE32 PUBLIC 'CODE'
_TEXT	ENDS
;	COMDAT ?GetShowToolTipTimeOut@CXTPCalendarView@@UBEIXZ
_TEXT	SEGMENT PARA USE32 PUBLIC 'CODE'
_TEXT	ENDS
;	COMDAT ?SetTextOutOfBorders@CXTPCalendarViewEvent@@UAEXH@Z
_TEXT	SEGMENT PARA USE32 PUBLIC 'CODE'
_TEXT	ENDS
;	COMDAT ?IsTextOutOfBorders@CXTPCalendarViewEvent@@UAEHXZ
_TEXT	SEGMENT PARA USE32 PUBLIC 'CODE'
_TEXT	ENDS
;	COMDAT ?GetEvent@CXTPCalendarViewEvent@@UAEPAVCXTPCalendarEvent@@XZ
_TEXT	SEGMENT PARA USE32 PUBLIC 'CODE'
_TEXT	ENDS
;	COMDAT ?GetMultiDayEventFlags@CXTPCalendarViewEvent@@UBEHXZ
_TEXT	SEGMENT PARA USE32 PUBLIC 'CODE'
_TEXT	ENDS
;	COMDAT ?GetEventPlaceNumber@CXTPCalendarViewEvent@@UBEHXZ
_TEXT	SEGMENT PARA USE32 PUBLIC 'CODE'
_TEXT	ENDS
;	COMDAT ?GetEventTimelinePlaceNumber@CXTPCalendarViewEvent@@UBEHXZ
_TEXT	SEGMENT PARA USE32 PUBLIC 'CODE'
_TEXT	ENDS
;	COMDAT ?IsEditingSubject@CXTPCalendarViewEvent@@UBEHXZ
_TEXT	SEGMENT PARA USE32 PUBLIC 'CODE'
_TEXT	ENDS
;	COMDAT ?GetSubjectEditorRect@CXTPCalendarViewEvent@@UBE?AVCRect@@XZ
_TEXT	SEGMENT PARA USE32 PUBLIC 'CODE'
_TEXT	ENDS
;	COMDAT ?GetSubjectEditor@CXTPCalendarViewEvent@@UAEPAVCWnd@@XZ
_TEXT	SEGMENT PARA USE32 PUBLIC 'CODE'
_TEXT	ENDS
;	COMDAT ?GetShowToolTipTimeOut@CXTPCalendarViewEvent@@MBEIXZ
_TEXT	SEGMENT PARA USE32 PUBLIC 'CODE'
_TEXT	ENDS
;	COMDAT ?GetSubjectEditorStyles@CXTPCalendarViewEvent@@MAEKXZ
_TEXT	SEGMENT PARA USE32 PUBLIC 'CODE'
_TEXT	ENDS
;	COMDAT ?GetSubjectEditorFont@CXTPCalendarViewEvent@@MAEPAVCFont@@XZ
_TEXT	SEGMENT PARA USE32 PUBLIC 'CODE'
_TEXT	ENDS
;	COMDAT ?GetFirstClockRect@CXTPCalendarViewEvent@@UAE?AVCRect@@XZ
_TEXT	SEGMENT PARA USE32 PUBLIC 'CODE'
_TEXT	ENDS
;	COMDAT ?GetLastClockRect@CXTPCalendarViewEvent@@UAE?AVCRect@@XZ
_TEXT	SEGMENT PARA USE32 PUBLIC 'CODE'
_TEXT	ENDS
;	COMDAT ?GetTextRect@CXTPCalendarViewEvent@@UAE?AVCRect@@XZ
_TEXT	SEGMENT PARA USE32 PUBLIC 'CODE'
_TEXT	ENDS
;	COMDAT ?GetStartTimeRect@CXTPCalendarViewEvent@@UAE?AVCRect@@XZ
_TEXT	SEGMENT PARA USE32 PUBLIC 'CODE'
_TEXT	ENDS
;	COMDAT ?GetEndTimeRect@CXTPCalendarViewEvent@@UAE?AVCRect@@XZ
_TEXT	SEGMENT PARA USE32 PUBLIC 'CODE'
_TEXT	ENDS
;	COMDAT ?GetViewEventRect@CXTPCalendarViewEvent@@UAE?AVCRect@@XZ
_TEXT	SEGMENT PARA USE32 PUBLIC 'CODE'
_TEXT	ENDS
;	COMDAT ?GetViewEventRectMax@CXTPCalendarViewEvent@@UAE?AVCRect@@XZ
_TEXT	SEGMENT PARA USE32 PUBLIC 'CODE'
_TEXT	ENDS
;	COMDAT ?GetReminderGlyphRect@CXTPCalendarViewEvent@@UAE?AVCRect@@XZ
_TEXT	SEGMENT PARA USE32 PUBLIC 'CODE'
_TEXT	ENDS
;	COMDAT ?GetRecurrenceGlyphRect@CXTPCalendarViewEvent@@UAE?AVCRect@@XZ
_TEXT	SEGMENT PARA USE32 PUBLIC 'CODE'
_TEXT	ENDS
;	COMDAT ?GetMeetingGlyphRect@CXTPCalendarViewEvent@@UAE?AVCRect@@XZ
_TEXT	SEGMENT PARA USE32 PUBLIC 'CODE'
_TEXT	ENDS
;	COMDAT ?GetPrivateGlyphRect@CXTPCalendarViewEvent@@UAE?AVCRect@@XZ
_TEXT	SEGMENT PARA USE32 PUBLIC 'CODE'
_TEXT	ENDS
;	COMDAT ?IsMultyDayTextAlign@CXTPCalendarViewEvent@@UAEHXZ
_TEXT	SEGMENT PARA USE32 PUBLIC 'CODE'
_TEXT	ENDS
;	COMDAT ?GetItemTextSubject@CXTPCalendarViewEvent@@UAE?AVCString@@XZ
_TEXT	SEGMENT PARA USE32 PUBLIC 'CODE'
_TEXT	ENDS
;	COMDAT ?GetItemTextLocation@CXTPCalendarViewEvent@@UAE?AVCString@@XZ
_TEXT	SEGMENT PARA USE32 PUBLIC 'CODE'
_TEXT	ENDS
;	COMDAT ?GetItemTextBody@CXTPCalendarViewEvent@@UAE?AVCString@@XZ
_TEXT	SEGMENT PARA USE32 PUBLIC 'CODE'
_TEXT	ENDS
;	COMDAT ?GetItemTextStartTime@CXTPCalendarViewEvent@@UAE?AVCString@@XZ
_TEXT	SEGMENT PARA USE32 PUBLIC 'CODE'
_TEXT	ENDS
;	COMDAT ?GetItemTextEndTime@CXTPCalendarViewEvent@@UAE?AVCString@@XZ
_TEXT	SEGMENT PARA USE32 PUBLIC 'CODE'
_TEXT	ENDS
;	COMDAT ?GetHeaderHeight@CXTPCalendarTimeLineViewTimeScalePart@@UAEHXZ
_TEXT	SEGMENT PARA USE32 PUBLIC 'CODE'
_TEXT	ENDS
;	COMDAT ??0CXTPCalendarTimeLineViewPart@@QAE@PAVCXTPCalendarViewPart@@@Z
_TEXT	SEGMENT PARA USE32 PUBLIC 'CODE'
_TEXT	ENDS
;	COMDAT ?Draw@CXTPCalendarTimeLineViewPart@@UAEXPAVCDC@@ABVCRect@@PAVCXTPCalendarTimeLineView@@@Z
_TEXT	SEGMENT PARA USE32 PUBLIC 'CODE'
_TEXT	ENDS
;	COMDAT ?CalcEventSize@CXTPCalendarTimeLineViewPart@@UAE?AVCSize@@PAVCDC@@PAVCXTPCalendarTimeLineViewEvent@@@Z
_TEXT	SEGMENT PARA USE32 PUBLIC 'CODE'
_TEXT	ENDS
;	COMDAT ?DrawEvent@CXTPCalendarTimeLineViewPart@@UAEXPAVCDC@@ABVCRect@@PAVCXTPCalendarTimeLineViewEvent@@@Z
_TEXT	SEGMENT PARA USE32 PUBLIC 'CODE'
_TEXT	ENDS
;	COMDAT ??_GCXTPCalendarTimeLineViewPart@@UAEPAXI@Z
_TEXT	SEGMENT PARA USE32 PUBLIC 'CODE'
_TEXT	ENDS
;	COMDAT ??1CXTPCalendarTimeLineViewPart@@UAE@XZ
_TEXT	SEGMENT PARA USE32 PUBLIC 'CODE'
_TEXT	ENDS
;	COMDAT ?RefreshMetrics@CControlPart@CXTPCalendarPaintManager@@UAEXXZ
_TEXT	SEGMENT PARA USE32 PUBLIC 'CODE'
_TEXT	ENDS
;	COMDAT ??0CDayViewTimeScaleHeaderPart@CXTPCalendarPaintManager@@QAE@PAVCXTPCalendarViewPart@@@Z
_TEXT	SEGMENT PARA USE32 PUBLIC 'CODE'
_TEXT	ENDS
;	COMDAT ??0CDayViewCellPart@CXTPCalendarPaintManager@@QAE@PAVCXTPCalendarViewPart@@@Z
_TEXT	SEGMENT PARA USE32 PUBLIC 'CODE'
_TEXT	ENDS
;	COMDAT ??0CDayMonthViewHeaderPart@CXTPCalendarPaintManager@@QAE@PAVCXTPCalendarViewPart@@@Z
_TEXT	SEGMENT PARA USE32 PUBLIC 'CODE'
_TEXT	ENDS
;	COMDAT ?RefreshMetrics@CDayMonthViewHeaderPart@CXTPCalendarPaintManager@@UAEXXZ
_TEXT	SEGMENT PARA USE32 PUBLIC 'CODE'
_TEXT	ENDS
;	COMDAT ?RefreshMetrics@CDayViewAllDayEventsPart@CXTPCalendarPaintManager@@UAEXXZ
_TEXT	SEGMENT PARA USE32 PUBLIC 'CODE'
_TEXT	ENDS
;	COMDAT ?RefreshMetrics@CDayViewEventPart@CXTPCalendarPaintManager@@UAEXXZ
_TEXT	SEGMENT PARA USE32 PUBLIC 'CODE'
_TEXT	ENDS
;	COMDAT ?RefreshMetrics@CMonthViewEventPart@CXTPCalendarPaintManager@@UAEXXZ
_TEXT	SEGMENT PARA USE32 PUBLIC 'CODE'
_TEXT	ENDS
;	COMDAT ?GetWeekViewPart@CXTPCalendarPaintManager@@QAEPAVCWeekViewPart@1@XZ
_TEXT	SEGMENT PARA USE32 PUBLIC 'CODE'
_TEXT	ENDS
;	COMDAT ?RefreshMetrics@CWeekViewEventPart@CXTPCalendarPaintManager@@UAEXXZ
_TEXT	SEGMENT PARA USE32 PUBLIC 'CODE'
_TEXT	ENDS
;	COMDAT ??_GCControlPart@CXTPCalendarPaintManager@@UAEPAXI@Z
_TEXT	SEGMENT PARA USE32 PUBLIC 'CODE'
_TEXT	ENDS
;	COMDAT ??_GCDayViewTimeScaleHeaderPart@CXTPCalendarPaintManager@@UAEPAXI@Z
_TEXT	SEGMENT PARA USE32 PUBLIC 'CODE'
_TEXT	ENDS
;	COMDAT ??_GCDayViewTimeScaleCellPart@CXTPCalendarPaintManager@@UAEPAXI@Z
_TEXT	SEGMENT PARA USE32 PUBLIC 'CODE'
_TEXT	ENDS
;	COMDAT ??1CDayViewTimeScaleHeaderPart@CXTPCalendarPaintManager@@UAE@XZ
_TEXT	SEGMENT PARA USE32 PUBLIC 'CODE'
_TEXT	ENDS
;	COMDAT ??1CXTPCalendarViewPartFontValue@@QAE@XZ
_TEXT	SEGMENT PARA USE32 PUBLIC 'CODE'
_TEXT	ENDS
;	COMDAT ??_GCDayViewCellPart@CXTPCalendarPaintManager@@UAEPAXI@Z
_TEXT	SEGMENT PARA USE32 PUBLIC 'CODE'
_TEXT	ENDS
;	COMDAT ??_GCDayViewWorkCellPart@CXTPCalendarPaintManager@@UAEPAXI@Z
_TEXT	SEGMENT PARA USE32 PUBLIC 'CODE'
_TEXT	ENDS
;	COMDAT ??1CDayViewCellPart@CXTPCalendarPaintManager@@UAE@XZ
_TEXT	SEGMENT PARA USE32 PUBLIC 'CODE'
_TEXT	ENDS
;	COMDAT ??_GCDayViewNonworkCellPart@CXTPCalendarPaintManager@@UAEPAXI@Z
_TEXT	SEGMENT PARA USE32 PUBLIC 'CODE'
_TEXT	ENDS
;	COMDAT ??_GCDayMonthViewHeaderPart@CXTPCalendarPaintManager@@UAEPAXI@Z
_TEXT	SEGMENT PARA USE32 PUBLIC 'CODE'
_TEXT	ENDS
;	COMDAT ??_GCDayViewHeaderPart@CXTPCalendarPaintManager@@UAEPAXI@Z
_TEXT	SEGMENT PARA USE32 PUBLIC 'CODE'
_TEXT	ENDS
;	COMDAT ??1CDayMonthViewHeaderPart@CXTPCalendarPaintManager@@UAE@XZ
_TEXT	SEGMENT PARA USE32 PUBLIC 'CODE'
_TEXT	ENDS
;	COMDAT ??_GCDayViewGroupHeaderPart@CXTPCalendarPaintManager@@UAEPAXI@Z
_TEXT	SEGMENT PARA USE32 PUBLIC 'CODE'
_TEXT	ENDS
;	COMDAT ??_GCDayViewAllDayEventsPart@CXTPCalendarPaintManager@@UAEPAXI@Z
_TEXT	SEGMENT PARA USE32 PUBLIC 'CODE'
_TEXT	ENDS
;	COMDAT ??_GCDayViewEventPart@CXTPCalendarPaintManager@@UAEPAXI@Z
_TEXT	SEGMENT PARA USE32 PUBLIC 'CODE'
_TEXT	ENDS
;	COMDAT ??_GCMonthViewGridPart@CXTPCalendarPaintManager@@UAEPAXI@Z
_TEXT	SEGMENT PARA USE32 PUBLIC 'CODE'
_TEXT	ENDS
;	COMDAT ??_GCMonthViewHeaderPart@CXTPCalendarPaintManager@@UAEPAXI@Z
_TEXT	SEGMENT PARA USE32 PUBLIC 'CODE'
_TEXT	ENDS
;	COMDAT ??_GCMonthViewEventPart@CXTPCalendarPaintManager@@UAEPAXI@Z
_TEXT	SEGMENT PARA USE32 PUBLIC 'CODE'
_TEXT	ENDS
;	COMDAT ??_GCWeekViewPart@CXTPCalendarPaintManager@@UAEPAXI@Z
_TEXT	SEGMENT PARA USE32 PUBLIC 'CODE'
_TEXT	ENDS
;	COMDAT ??_GCWeekViewEventPart@CXTPCalendarPaintManager@@UAEPAXI@Z
_TEXT	SEGMENT PARA USE32 PUBLIC 'CODE'
_TEXT	ENDS
;	COMDAT ??_GCTimeLineViewTimeScalePart_Day@CXTPCalendarPaintManager@@UAEPAXI@Z
_TEXT	SEGMENT PARA USE32 PUBLIC 'CODE'
_TEXT	ENDS
;	COMDAT ??1CXTPCalendarTimeLineViewTimeScalePart@@UAE@XZ
_TEXT	SEGMENT PARA USE32 PUBLIC 'CODE'
_TEXT	ENDS
;	COMDAT ??_GCTimeLineViewTimeScalePart_Week@CXTPCalendarPaintManager@@UAEPAXI@Z
_TEXT	SEGMENT PARA USE32 PUBLIC 'CODE'
_TEXT	ENDS
;	COMDAT ??_GCTimeLineViewTimeScalePart_Month@CXTPCalendarPaintManager@@UAEPAXI@Z
_TEXT	SEGMENT PARA USE32 PUBLIC 'CODE'
_TEXT	ENDS
;	COMDAT ??_GCTimeLineViewTimeScalePart_WorkWeek@CXTPCalendarPaintManager@@UAEPAXI@Z
_TEXT	SEGMENT PARA USE32 PUBLIC 'CODE'
_TEXT	ENDS
;	COMDAT ??_GCTimeLineViewPart@CXTPCalendarPaintManager@@UAEPAXI@Z
_TEXT	SEGMENT PARA USE32 PUBLIC 'CODE'
_TEXT	ENDS
;	COMDAT ??1CControlPart@CXTPCalendarPaintManager@@UAE@XZ
_TEXT	SEGMENT PARA USE32 PUBLIC 'CODE'
_TEXT	ENDS
;	COMDAT ??1CDayViewTimeScaleCellPart@CXTPCalendarPaintManager@@UAE@XZ
_TEXT	SEGMENT PARA USE32 PUBLIC 'CODE'
_TEXT	ENDS
;	COMDAT ??1CDayViewWorkCellPart@CXTPCalendarPaintManager@@UAE@XZ
_TEXT	SEGMENT PARA USE32 PUBLIC 'CODE'
_TEXT	ENDS
;	COMDAT ??1CDayViewNonworkCellPart@CXTPCalendarPaintManager@@UAE@XZ
_TEXT	SEGMENT PARA USE32 PUBLIC 'CODE'
_TEXT	ENDS
;	COMDAT ??1CDayViewHeaderPart@CXTPCalendarPaintManager@@UAE@XZ
_TEXT	SEGMENT PARA USE32 PUBLIC 'CODE'
_TEXT	ENDS
;	COMDAT ??1CDayViewGroupHeaderPart@CXTPCalendarPaintManager@@UAE@XZ
_TEXT	SEGMENT PARA USE32 PUBLIC 'CODE'
_TEXT	ENDS
;	COMDAT ??1CDayViewAllDayEventsPart@CXTPCalendarPaintManager@@UAE@XZ
_TEXT	SEGMENT PARA USE32 PUBLIC 'CODE'
_TEXT	ENDS
;	COMDAT ??1CDayViewEventPart@CXTPCalendarPaintManager@@UAE@XZ
_TEXT	SEGMENT PARA USE32 PUBLIC 'CODE'
_TEXT	ENDS
;	COMDAT ??1CMonthViewGridPart@CXTPCalendarPaintManager@@UAE@XZ
_TEXT	SEGMENT PARA USE32 PUBLIC 'CODE'
_TEXT	ENDS
;	COMDAT ??1CMonthViewHeaderPart@CXTPCalendarPaintManager@@UAE@XZ
_TEXT	SEGMENT PARA USE32 PUBLIC 'CODE'
_TEXT	ENDS
;	COMDAT ??1CMonthViewEventPart@CXTPCalendarPaintManager@@UAE@XZ
_TEXT	SEGMENT PARA USE32 PUBLIC 'CODE'
_TEXT	ENDS
;	COMDAT ??1CWeekViewPart@CXTPCalendarPaintManager@@UAE@XZ
_TEXT	SEGMENT PARA USE32 PUBLIC 'CODE'
_TEXT	ENDS
;	COMDAT ??1CWeekViewEventPart@CXTPCalendarPaintManager@@UAE@XZ
_TEXT	SEGMENT PARA USE32 PUBLIC 'CODE'
_TEXT	ENDS
;	COMDAT ??1CTimeLineViewTimeScalePart_Day@CXTPCalendarPaintManager@@UAE@XZ
_TEXT	SEGMENT PARA USE32 PUBLIC 'CODE'
_TEXT	ENDS
;	COMDAT ??1CTimeLineViewTimeScalePart_Week@CXTPCalendarPaintManager@@UAE@XZ
_TEXT	SEGMENT PARA USE32 PUBLIC 'CODE'
_TEXT	ENDS
;	COMDAT ??1CTimeLineViewTimeScalePart_Month@CXTPCalendarPaintManager@@UAE@XZ
_TEXT	SEGMENT PARA USE32 PUBLIC 'CODE'
_TEXT	ENDS
;	COMDAT ??1CTimeLineViewTimeScalePart_WorkWeek@CXTPCalendarPaintManager@@UAE@XZ
_TEXT	SEGMENT PARA USE32 PUBLIC 'CODE'
_TEXT	ENDS
;	COMDAT ?GetRect@CXTPCalendarViewGroup@@UAE?AVCRect@@XZ
_TEXT	SEGMENT PARA USE32 PUBLIC 'CODE'
_TEXT	ENDS
;	COMDAT ?GetHeaderRect@CXTPCalendarViewGroup@@UAE?AVCRect@@XZ
_TEXT	SEGMENT PARA USE32 PUBLIC 'CODE'
_TEXT	ENDS
;	COMDAT ?Draw@CXTPCalendarViewDay@@UAEXPAVCDC@@@Z
_TEXT	SEGMENT PARA USE32 PUBLIC 'CODE'
_TEXT	ENDS
;	COMDAT ?GetChildHandlersCount@CXTPCalendarViewDay@@UAEHXZ
_TEXT	SEGMENT PARA USE32 PUBLIC 'CODE'
_TEXT	ENDS
;	COMDAT ?GetChildHandlerAt@CXTPCalendarViewDay@@UAEPAVCXTPCalendarWMHandler@@H@Z
_TEXT	SEGMENT PARA USE32 PUBLIC 'CODE'
_TEXT	ENDS
;	COMDAT ?GetDayDate@CXTPCalendarViewDay@@UBE?AVCOleDateTime@@XZ
_TEXT	SEGMENT PARA USE32 PUBLIC 'CODE'
_TEXT	ENDS
;	COMDAT ?SetDayDate@CXTPCalendarViewDay@@UAE?AVCOleDateTime@@V2@@Z
_TEXT	SEGMENT PARA USE32 PUBLIC 'CODE'
_TEXT	ENDS
;	COMDAT ?GetDayRect@CXTPCalendarViewDay@@UAE?AVCRect@@XZ
_TEXT	SEGMENT PARA USE32 PUBLIC 'CODE'
_TEXT	ENDS
;	COMDAT ?SetDayRect@CXTPCalendarViewDay@@UAEXVCRect@@@Z
_TEXT	SEGMENT PARA USE32 PUBLIC 'CODE'
_TEXT	ENDS
;	COMDAT ?IsExpanded@CXTPCalendarViewDay@@UAEHXZ
_TEXT	SEGMENT PARA USE32 PUBLIC 'CODE'
_TEXT	ENDS
;	COMDAT ?GetExpandSignRect@CXTPCalendarViewDay@@UAE?AVCRect@@XZ
_TEXT	SEGMENT PARA USE32 PUBLIC 'CODE'
_TEXT	ENDS
;	COMDAT ?GetLayout_@CXTPCalendarViewDay@@MAEAAUXTP_VIEW_DAY_LAYOUT@1@XZ
_TEXT	SEGMENT PARA USE32 PUBLIC 'CODE'
_TEXT	ENDS
;	COMDAT ?GetResources@CXTPCalendarViewGroup@@UAEPAVCXTPCalendarResources@@XZ
_TEXT	SEGMENT PARA USE32 PUBLIC 'CODE'
_TEXT	ENDS
;	COMDAT ?GetChildHandlersCount@CXTPCalendarViewGroup@@UAEHXZ
_TEXT	SEGMENT PARA USE32 PUBLIC 'CODE'
_TEXT	ENDS
;	COMDAT ?GetLayout_@CXTPCalendarViewGroup@@MAEAAUXTP_VIEW_GROUP_LAYOUT@1@XZ
_TEXT	SEGMENT PARA USE32 PUBLIC 'CODE'
_TEXT	ENDS
;	COMDAT ?GetCalendarControl@CXTPCalendarViewGroup@@UBEPAVCXTPCalendarControl@@XZ
_TEXT	SEGMENT PARA USE32 PUBLIC 'CODE'
_TEXT	ENDS
;	COMDAT ?GetTopRow@CXTPCalendarDayView@@QBEHXZ
_TEXT	SEGMENT PARA USE32 PUBLIC 'CODE'
_TEXT	ENDS
;	COMDAT ?RefreshMetrics@CXTPCalendarCaptionBarThemePart@@UAEXXZ
_TEXT	SEGMENT PARA USE32 PUBLIC 'CODE'
_TEXT	ENDS
;	COMDAT ?GetPThis@C_m_Sink_Informator@CXTPCalendarCaptionBarTheme@@SAPAV2@PAE@Z
_TEXT	SEGMENT PARA USE32 PUBLIC 'CODE'
_TEXT	ENDS
;	COMDAT ??_GCSwitchViewButtonPart@CXTPCalendarCaptionBarTheme@@UAEPAXI@Z
_TEXT	SEGMENT PARA USE32 PUBLIC 'CODE'
_TEXT	ENDS
;	COMDAT ??_GCRadioButtonPart@CXTPCalendarCaptionBarTheme@@UAEPAXI@Z
_TEXT	SEGMENT PARA USE32 PUBLIC 'CODE'
_TEXT	ENDS
;	COMDAT ??_GCCheckboxButtonPart@CXTPCalendarCaptionBarTheme@@UAEPAXI@Z
_TEXT	SEGMENT PARA USE32 PUBLIC 'CODE'
_TEXT	ENDS
;	COMDAT ??_GCScrollDateButtonPart@CXTPCalendarCaptionBarTheme@@UAEPAXI@Z
_TEXT	SEGMENT PARA USE32 PUBLIC 'CODE'
_TEXT	ENDS
;	COMDAT ??_GCDateLabelPart@CXTPCalendarCaptionBarTheme@@UAEPAXI@Z
_TEXT	SEGMENT PARA USE32 PUBLIC 'CODE'
_TEXT	ENDS
;	COMDAT ??_GCExpandButtonPart@CXTPCalendarCaptionBarTheme@@UAEPAXI@Z
_TEXT	SEGMENT PARA USE32 PUBLIC 'CODE'
_TEXT	ENDS
;	COMDAT ??1CSwitchViewButtonPart@CXTPCalendarCaptionBarTheme@@UAE@XZ
_TEXT	SEGMENT PARA USE32 PUBLIC 'CODE'
_TEXT	ENDS
;	COMDAT ??1CRadioButtonPart@CXTPCalendarCaptionBarTheme@@UAE@XZ
_TEXT	SEGMENT PARA USE32 PUBLIC 'CODE'
_TEXT	ENDS
;	COMDAT ??1CCheckboxButtonPart@CXTPCalendarCaptionBarTheme@@UAE@XZ
_TEXT	SEGMENT PARA USE32 PUBLIC 'CODE'
_TEXT	ENDS
;	COMDAT ??1CScrollDateButtonPart@CXTPCalendarCaptionBarTheme@@UAE@XZ
_TEXT	SEGMENT PARA USE32 PUBLIC 'CODE'
_TEXT	ENDS
;	COMDAT ??1CDateLabelPart@CXTPCalendarCaptionBarTheme@@UAE@XZ
_TEXT	SEGMENT PARA USE32 PUBLIC 'CODE'
_TEXT	ENDS
;	COMDAT ??1CExpandButtonPart@CXTPCalendarCaptionBarTheme@@UAE@XZ
_TEXT	SEGMENT PARA USE32 PUBLIC 'CODE'
_TEXT	ENDS
;	COMDAT ?GetTheme@CXTPCalendarCaptionBarThemePart@@UAEPAVCXTPCalendarCaptionBarTheme@@XZ
_TEXT	SEGMENT PARA USE32 PUBLIC 'CODE'
_TEXT	ENDS
;	COMDAT ?GetPaintTheme@CXTPCalendarCaptionBarThemePart@@UBE?AW4XTPCalendarTheme@@XZ
_TEXT	SEGMENT PARA USE32 PUBLIC 'CODE'
_TEXT	ENDS
;	COMDAT ?GetRect@CXTPCalendarCaptionBarThemePart@@UAE?AVCRect@@XZ
_TEXT	SEGMENT PARA USE32 PUBLIC 'CODE'
_TEXT	ENDS
;	COMDAT ?GetText@CXTPCalendarCaptionBarThemePart@@UAE?AVCString@@XZ
_TEXT	SEGMENT PARA USE32 PUBLIC 'CODE'
_TEXT	ENDS
;	COMDAT ?SetText@CXTPCalendarCaptionBarThemePart@@UAEXPBD@Z
_TEXT	SEGMENT PARA USE32 PUBLIC 'CODE'
_TEXT	ENDS
;	COMDAT ?GetPartID@CXTPCalendarCaptionBarThemePart@@UAEHXZ
_TEXT	SEGMENT PARA USE32 PUBLIC 'CODE'
_TEXT	ENDS
;	COMDAT ?IsVisible@CXTPCalendarCaptionBarThemePart@@UAEHXZ
_TEXT	SEGMENT PARA USE32 PUBLIC 'CODE'
_TEXT	ENDS
;	COMDAT ?SetVisible@CXTPCalendarCaptionBarThemePart@@UAEXH@Z
_TEXT	SEGMENT PARA USE32 PUBLIC 'CODE'
_TEXT	ENDS
;	COMDAT ?GetCheck@CXTPCalendarCaptionBarThemePart@@UAEHXZ
_TEXT	SEGMENT PARA USE32 PUBLIC 'CODE'
_TEXT	ENDS
;	COMDAT ?SetCheck@CXTPCalendarCaptionBarThemePart@@UAEXH@Z
_TEXT	SEGMENT PARA USE32 PUBLIC 'CODE'
_TEXT	ENDS
;	COMDAT ?GetState@CXTPCalendarCaptionBarThemePart@@UAEHXZ
_TEXT	SEGMENT PARA USE32 PUBLIC 'CODE'
_TEXT	ENDS
;	COMDAT ?SetState@CXTPCalendarCaptionBarThemePart@@UAEXH@Z
_TEXT	SEGMENT PARA USE32 PUBLIC 'CODE'
_TEXT	ENDS
;	COMDAT ?Reset@CXTPCalendarPritAdjustContext@CXTPCalendarControlView@@QAEXXZ
_TEXT	SEGMENT PARA USE32 PUBLIC 'CODE'
_TEXT	ENDS
;	COMDAT ?ClearData@CXTPCalendarBeforePrintState@CXTPCalendarControlView@@QAEXXZ
_TEXT	SEGMENT PARA USE32 PUBLIC 'CODE'
_TEXT	ENDS
;	COMDAT ?CalendarDayView_ScrolV@CXTPCalendarControlView@@IAEXH@Z
_TEXT	SEGMENT PARA USE32 PUBLIC 'CODE'
_TEXT	ENDS
;	COMDAT ?GetPThis@C_m_Sink_Informator@CXTPCalendarControlView@@SAPAV2@PAE@Z
_TEXT	SEGMENT PARA USE32 PUBLIC 'CODE'
_TEXT	ENDS
;	COMDAT ?GetPOS@XTP_CALENDAR_MONTHVIEW_DAYPOS@@QAEHXZ
_TEXT	SEGMENT PARA USE32 PUBLIC 'CODE'
_TEXT	ENDS
;	COMDAT ?SetPOS@XTP_CALENDAR_MONTHVIEW_DAYPOS@@QAEXH@Z
_TEXT	SEGMENT PARA USE32 PUBLIC 'CODE'
_TEXT	ENDS
;	COMDAT ?GetWeeksCount@CMonthViewGrid@CXTPCalendarMonthView@@QBEHXZ
_TEXT	SEGMENT PARA USE32 PUBLIC 'CODE'
_TEXT	ENDS
;	COMDAT ??_GXTP_CALENDAR_HITTESTINFO_TIMELINE_VIEW@@UAEPAXI@Z
_TEXT	SEGMENT PARA USE32 PUBLIC 'CODE'
_TEXT	ENDS
;	COMDAT ??1XTP_CALENDAR_HITTESTINFO_TIMELINE_VIEW@@UAE@XZ
_TEXT	SEGMENT PARA USE32 PUBLIC 'CODE'
_TEXT	ENDS
;	COMDAT ?Draw@CXTPCalendarThemePart@@UAEXPAVCCmdTarget@@PAVCDC@@@Z
_TEXT	SEGMENT PARA USE32 PUBLIC 'CODE'
_TEXT	ENDS
;	COMDAT ?OnMouseMove@CXTPCalendarThemePart@@UAEXPAVCCmdTarget@@IVCPoint@@@Z
_TEXT	SEGMENT PARA USE32 PUBLIC 'CODE'
_TEXT	ENDS
;	COMDAT ?OnLButtonDown@CXTPCalendarThemePart@@UAEHPAVCCmdTarget@@IVCPoint@@@Z
_TEXT	SEGMENT PARA USE32 PUBLIC 'CODE'
_TEXT	ENDS
;	COMDAT ?CreateMember0@CXTPCalendarThemePart@@MAEPAV1@XZ
_TEXT	SEGMENT PARA USE32 PUBLIC 'CODE'
_TEXT	ENDS
;	COMDAT ?CreateMember1@CXTPCalendarThemePart@@MAEPAV1@XZ
_TEXT	SEGMENT PARA USE32 PUBLIC 'CODE'
_TEXT	ENDS
;	COMDAT ?CreateMember2@CXTPCalendarThemePart@@MAEPAV1@XZ
_TEXT	SEGMENT PARA USE32 PUBLIC 'CODE'
_TEXT	ENDS
;	COMDAT ?CreateMember3@CXTPCalendarThemePart@@MAEPAV1@XZ
_TEXT	SEGMENT PARA USE32 PUBLIC 'CODE'
_TEXT	ENDS
;	COMDAT ?CreateMember4@CXTPCalendarThemePart@@MAEPAV1@XZ
_TEXT	SEGMENT PARA USE32 PUBLIC 'CODE'
_TEXT	ENDS
;	COMDAT ?CreateMember5@CXTPCalendarThemePart@@MAEPAV1@XZ
_TEXT	SEGMENT PARA USE32 PUBLIC 'CODE'
_TEXT	ENDS
;	COMDAT ?CreateMember6@CXTPCalendarThemePart@@MAEPAV1@XZ
_TEXT	SEGMENT PARA USE32 PUBLIC 'CODE'
_TEXT	ENDS
;	COMDAT ?CreateMember7@CXTPCalendarThemePart@@MAEPAV1@XZ
_TEXT	SEGMENT PARA USE32 PUBLIC 'CODE'
_TEXT	ENDS
;	COMDAT ?CreateMember8@CXTPCalendarThemePart@@MAEPAV1@XZ
_TEXT	SEGMENT PARA USE32 PUBLIC 'CODE'
_TEXT	ENDS
;	COMDAT ?CreateMember9@CXTPCalendarThemePart@@MAEPAV1@XZ
_TEXT	SEGMENT PARA USE32 PUBLIC 'CODE'
_TEXT	ENDS
;	COMDAT ?Font@CThemeFontColorSetValue@CXTPCalendarTheme@@UBEPAVCFont@@XZ
_TEXT	SEGMENT PARA USE32 PUBLIC 'CODE'
_TEXT	ENDS
;	COMDAT ?Color@CThemeFontColorSetValue@CXTPCalendarTheme@@UBEKXZ
_TEXT	SEGMENT PARA USE32 PUBLIC 'CODE'
_TEXT	ENDS
;	COMDAT ?CopySettings@CHeaderBackground@CTOHeader@CXTPCalendarTheme@@UAEXABU123@@Z
_TEXT	SEGMENT PARA USE32 PUBLIC 'CODE'
_TEXT	ENDS
;	COMDAT ?AdjustLayout@CTOHeader@CXTPCalendarTheme@@UAEXPAVCCmdTarget@@PAVCDC@@ABVCRect@@@Z
_TEXT	SEGMENT PARA USE32 PUBLIC 'CODE'
_TEXT	ENDS
;	COMDAT ?GetHeightFormulaPart@CTOHeader@CXTPCalendarTheme@@UAEPAVCTOFormula_MulDivC@2@XZ
_TEXT	SEGMENT PARA USE32 PUBLIC 'CODE'
_TEXT	ENDS
;	COMDAT ?AdjustLayout@CTOEvent@CXTPCalendarTheme@@UAEXPAVCCmdTarget@@PAVCDC@@ABVCRect@@H@Z
_TEXT	SEGMENT PARA USE32 PUBLIC 'CODE'
_TEXT	ENDS
;	COMDAT ?CalcMinEventHeight@CTOEvent@CXTPCalendarTheme@@UAEHPAVCDC@@@Z
_TEXT	SEGMENT PARA USE32 PUBLIC 'CODE'
_TEXT	ENDS
;	COMDAT ?GetHeightFormulaPart@CTOEvent@CXTPCalendarTheme@@UAEPAVCTOFormula_MulDivC@2@XZ
_TEXT	SEGMENT PARA USE32 PUBLIC 'CODE'
_TEXT	ENDS
;	COMDAT ?GetEventIconsToDrawPart@CTOEvent@CXTPCalendarTheme@@UAEPAVCTOEventIconsToDraw@2@XZ
_TEXT	SEGMENT PARA USE32 PUBLIC 'CODE'
_TEXT	ENDS
;	COMDAT ?GetHeightFormulaPart@CTODayViewTimeScale@CXTPCalendarTheme@@UAEPAVCTOFormula_MulDivC@2@XZ
_TEXT	SEGMENT PARA USE32 PUBLIC 'CODE'
_TEXT	ENDS
;	COMDAT ??0CTODayViewTimeScale@CXTPCalendarTheme@@QAE@XZ
_TEXT	SEGMENT PARA USE32 PUBLIC 'CODE'
_TEXT	ENDS
;	COMDAT ?CalcEventYs@CTODayViewEvent_MultiDay@CXTPCalendarTheme@@UAEXAAVCRect@@H@Z
_TEXT	SEGMENT PARA USE32 PUBLIC 'CODE'
_TEXT	ENDS
;	COMDAT ?DrawShadow@CTODayViewEvent_SingleDay@CXTPCalendarTheme@@UAEXPAVCDC@@PAVCXTPCalendarDayViewEvent@@@Z
_TEXT	SEGMENT PARA USE32 PUBLIC 'CODE'
_TEXT	ENDS
;	COMDAT ?SetDynColors@CTODayViewDayGroupAllDayEvents@CXTPCalendarTheme@@UAEXPAVCXTPCalendarDayViewGroup@@@Z
_TEXT	SEGMENT PARA USE32 PUBLIC 'CODE'
_TEXT	ENDS
;	COMDAT ?CalcHeight@CTODayViewDayGroupCell@CXTPCalendarTheme@@UAEHPAVCDC@@H@Z
_TEXT	SEGMENT PARA USE32 PUBLIC 'CODE'
_TEXT	ENDS
;	COMDAT ?IsSelected@CTODayViewDayGroup@CXTPCalendarTheme@@UAEHPAVCXTPCalendarViewGroup@@@Z
_TEXT	SEGMENT PARA USE32 PUBLIC 'CODE'
_TEXT	ENDS
;	COMDAT ?GetHeaderPart@CTODayViewDayGroup@CXTPCalendarTheme@@UAEPAVCTODayViewDayGroupHeader@2@XZ
_TEXT	SEGMENT PARA USE32 PUBLIC 'CODE'
_TEXT	ENDS
;	COMDAT ?GetAllDayEventsPart@CTODayViewDayGroup@CXTPCalendarTheme@@UAEPAVCTODayViewDayGroupAllDayEvents@2@XZ
_TEXT	SEGMENT PARA USE32 PUBLIC 'CODE'
_TEXT	ENDS
;	COMDAT ?GetCellPart@CTODayViewDayGroup@CXTPCalendarTheme@@UAEPAVCTODayViewDayGroupCell@2@XZ
_TEXT	SEGMENT PARA USE32 PUBLIC 'CODE'
_TEXT	ENDS
;	COMDAT ?GetMultiDayEventPart@CTODayViewDayGroup@CXTPCalendarTheme@@UAEPAVCTODayViewEvent_MultiDay@2@XZ
_TEXT	SEGMENT PARA USE32 PUBLIC 'CODE'
_TEXT	ENDS
;	COMDAT ?GetSingleDayEventPart@CTODayViewDayGroup@CXTPCalendarTheme@@UAEPAVCTODayViewEvent_SingleDay@2@XZ
_TEXT	SEGMENT PARA USE32 PUBLIC 'CODE'
_TEXT	ENDS
;	COMDAT ?Draw@CTODayViewDayHeader@CXTPCalendarTheme@@UAEXPAVCCmdTarget@@PAVCDC@@@Z
_TEXT	SEGMENT PARA USE32 PUBLIC 'CODE'
_TEXT	ENDS
;	COMDAT ?ExcludeDayBorder@CTODayViewDay@CXTPCalendarTheme@@UAE?AVCRect@@PAVCXTPCalendarDayViewDay@@ABV3@@Z
_TEXT	SEGMENT PARA USE32 PUBLIC 'CODE'
_TEXT	ENDS
;	COMDAT ?Draw_DayBorder@CTODayViewDay@CXTPCalendarTheme@@UAEXPAVCXTPCalendarDayViewDay@@PAVCDC@@@Z
_TEXT	SEGMENT PARA USE32 PUBLIC 'CODE'
_TEXT	ENDS
;	COMDAT ?GetHeaderPart@CTODayViewDay@CXTPCalendarTheme@@UAEPAVCTODayViewDayHeader@2@XZ
_TEXT	SEGMENT PARA USE32 PUBLIC 'CODE'
_TEXT	ENDS
;	COMDAT ?GetGroupPart@CTODayViewDay@CXTPCalendarTheme@@UAEPAVCTODayViewDayGroup@2@XZ
_TEXT	SEGMENT PARA USE32 PUBLIC 'CODE'
_TEXT	ENDS
;	COMDAT ?GetHeaderPart@CTODayView@CXTPCalendarTheme@@UAEPAVCTOHeader@2@XZ
_TEXT	SEGMENT PARA USE32 PUBLIC 'CODE'
_TEXT	ENDS
;	COMDAT ?GetEventPart@CTODayView@CXTPCalendarTheme@@UAEPAVCTODayViewEvent@2@XZ
_TEXT	SEGMENT PARA USE32 PUBLIC 'CODE'
_TEXT	ENDS
;	COMDAT ?GetTimeScalePart@CTODayView@CXTPCalendarTheme@@UAEPAVCTODayViewTimeScale@2@XZ
_TEXT	SEGMENT PARA USE32 PUBLIC 'CODE'
_TEXT	ENDS
;	COMDAT ?GetDayPart@CTODayView@CXTPCalendarTheme@@UAEPAVCTODayViewDay@2@XZ
_TEXT	SEGMENT PARA USE32 PUBLIC 'CODE'
_TEXT	ENDS
;	COMDAT ?IsUseCellAlignedDraggingInTimeArea@CTODayView@CXTPCalendarTheme@@UAEHXZ
_TEXT	SEGMENT PARA USE32 PUBLIC 'CODE'
_TEXT	ENDS
;	COMDAT ?GetHeaderPart@CTOMonthViewDay@CXTPCalendarTheme@@UAEPAVCTOMonthViewDayHeader@2@XZ
_TEXT	SEGMENT PARA USE32 PUBLIC 'CODE'
_TEXT	ENDS
;	COMDAT ?GetMultiDayEventPart@CTOMonthViewDay@CXTPCalendarTheme@@UAEPAVCTOMonthViewEvent_MultiDay@2@XZ
_TEXT	SEGMENT PARA USE32 PUBLIC 'CODE'
_TEXT	ENDS
;	COMDAT ?GetSingleDayEventPart@CTOMonthViewDay@CXTPCalendarTheme@@UAEPAVCTOMonthViewEvent_SingleDay@2@XZ
_TEXT	SEGMENT PARA USE32 PUBLIC 'CODE'
_TEXT	ENDS
;	COMDAT ?GetHeaderPart@CTOMonthView@CXTPCalendarTheme@@UAEPAVCTOHeader@2@XZ
_TEXT	SEGMENT PARA USE32 PUBLIC 'CODE'
_TEXT	ENDS
;	COMDAT ?GetEventPart@CTOMonthView@CXTPCalendarTheme@@UAEPAVCTOMonthViewEvent@2@XZ
_TEXT	SEGMENT PARA USE32 PUBLIC 'CODE'
_TEXT	ENDS
;	COMDAT ?GetWeekDayHeaderPart@CTOMonthView@CXTPCalendarTheme@@UAEPAVCTOMonthViewWeekDayHeader@2@XZ
_TEXT	SEGMENT PARA USE32 PUBLIC 'CODE'
_TEXT	ENDS
;	COMDAT ?GetDayPart@CTOMonthView@CXTPCalendarTheme@@UAEPAVCTOMonthViewDay@2@XZ
_TEXT	SEGMENT PARA USE32 PUBLIC 'CODE'
_TEXT	ENDS
;	COMDAT ?GetHeaderPart@CTOWeekViewDay@CXTPCalendarTheme@@UAEPAVCTOWeekViewDayHeader@2@XZ
_TEXT	SEGMENT PARA USE32 PUBLIC 'CODE'
_TEXT	ENDS
;	COMDAT ?GetMultiDayEventPart@CTOWeekViewDay@CXTPCalendarTheme@@UAEPAVCTOWeekViewEvent_MultiDay@2@XZ
_TEXT	SEGMENT PARA USE32 PUBLIC 'CODE'
_TEXT	ENDS
;	COMDAT ?GetSingleDayEventPart@CTOWeekViewDay@CXTPCalendarTheme@@UAEPAVCTOWeekViewEvent_SingleDay@2@XZ
_TEXT	SEGMENT PARA USE32 PUBLIC 'CODE'
_TEXT	ENDS
;	COMDAT ?SetDynColors@CTOWeekViewDay@CXTPCalendarTheme@@UAEXPAVCXTPCalendarWeekViewDay@@@Z
_TEXT	SEGMENT PARA USE32 PUBLIC 'CODE'
_TEXT	ENDS
;	COMDAT ?GetEventPart@CTOWeekView@CXTPCalendarTheme@@UAEPAVCTOWeekViewEvent@2@XZ
_TEXT	SEGMENT PARA USE32 PUBLIC 'CODE'
_TEXT	ENDS
;	COMDAT ?GetDayPart@CTOWeekView@CXTPCalendarTheme@@UAEPAVCTOWeekViewDay@2@XZ
_TEXT	SEGMENT PARA USE32 PUBLIC 'CODE'
_TEXT	ENDS
;	COMDAT ??_GCTODayViewTimeScale@CXTPCalendarTheme@@UAEPAXI@Z
_TEXT	SEGMENT PARA USE32 PUBLIC 'CODE'
_TEXT	ENDS
;	COMDAT ??0CThemeFontColorSetValue@CXTPCalendarTheme@@QAE@XZ
_TEXT	SEGMENT PARA USE32 PUBLIC 'CODE'
_TEXT	ENDS
;	COMDAT ??1CThemeFontColorSetValue@CXTPCalendarTheme@@QAE@XZ
_TEXT	SEGMENT PARA USE32 PUBLIC 'CODE'
_TEXT	ENDS
;	COMDAT ??_DCTOFormula_MulDivC@CXTPCalendarTheme@@QAEXXZ
_TEXT	SEGMENT PARA USE32 PUBLIC 'CODE'
_TEXT	ENDS
;	COMDAT ??1XTP_LC_TIMEFORMAT@CTODayViewTimeScale@CXTPCalendarTheme@@QAE@XZ
_TEXT	SEGMENT PARA USE32 PUBLIC 'CODE'
_TEXT	ENDS
;	COMDAT ??_DCTODayViewTimeScale@CXTPCalendarTheme@@QAEXXZ
_TEXT	SEGMENT PARA USE32 PUBLIC 'CODE'
_TEXT	ENDS
;	COMDAT ??0CThemeFontColorSet@CXTPCalendarTheme@@QAE@XZ
_TEXT	SEGMENT PARA USE32 PUBLIC 'CODE'
_TEXT	ENDS
;	COMDAT ??1CTOFormula_MulDivC@CXTPCalendarTheme@@UAE@XZ
_TEXT	SEGMENT PARA USE32 PUBLIC 'CODE'
_TEXT	ENDS
;	COMDAT ??1CTODayViewTimeScale@CXTPCalendarTheme@@UAE@XZ
_TEXT	SEGMENT PARA USE32 PUBLIC 'CODE'
_TEXT	ENDS
;	COMDAT ?IsCreated@CXTPCalendarThemePart@@UAEHXZ
_TEXT	SEGMENT PARA USE32 PUBLIC 'CODE'
_TEXT	ENDS
;	COMDAT ?CreateMember0@CTOHeader@CXTPCalendarThemeOffice2007@@MAEPAVCXTPCalendarThemePart@@XZ
_TEXT	SEGMENT PARA USE32 PUBLIC 'CODE'
_TEXT	ENDS
;	COMDAT ?GetHeightFormulaPart@CTOHeader@CXTPCalendarThemeOffice2007@@UAEPAVCTOFormula_MulDivC@CXTPCalendarTheme@@XZ
_TEXT	SEGMENT PARA USE32 PUBLIC 'CODE'
_TEXT	ENDS
;	COMDAT ?GetHeightFormulaPartX@CTOHeader@CXTPCalendarThemeOffice2007@@UAEPAVCTOFormula_MulDivC@CXTPCalendarTheme@@XZ
_TEXT	SEGMENT PARA USE32 PUBLIC 'CODE'
_TEXT	ENDS
;	COMDAT ?SetHeightFormulaPart@CTOHeader@CXTPCalendarThemeOffice2007@@UAEXPAVCTOFormula_MulDivC@CXTPCalendarTheme@@@Z
_TEXT	SEGMENT PARA USE32 PUBLIC 'CODE'
_TEXT	ENDS
;	COMDAT ?Draw@CTOHeader@CXTPCalendarThemeOffice2007@@UAEXPAVCCmdTarget@@PAVCDC@@@Z
_TEXT	SEGMENT PARA USE32 PUBLIC 'CODE'
_TEXT	ENDS
;	COMDAT ?DoPropExchange@CTOPrevNextEventButton@CXTPCalendarThemeOffice2007@@UAEXPAVCXTPPropExchange@@@Z
_TEXT	SEGMENT PARA USE32 PUBLIC 'CODE'
_TEXT	ENDS
;	COMDAT ?Serialize@CTOPrevNextEventButton@CXTPCalendarThemeOffice2007@@UAEXAAVCArchive@@@Z
_TEXT	SEGMENT PARA USE32 PUBLIC 'CODE'
_TEXT	ENDS
;	COMDAT ??0CTOPrevNextEventButton@CXTPCalendarThemeOffice2007@@QAE@XZ
_TEXT	SEGMENT PARA USE32 PUBLIC 'CODE'
_TEXT	ENDS
;	COMDAT ?GetPThis@C_m_Sink_Informator@CTOPrevNextEventButtons@CXTPCalendarThemeOffice2007@@SAPAV23@PAE@Z
_TEXT	SEGMENT PARA USE32 PUBLIC 'CODE'
_TEXT	ENDS
;	COMDAT ?CreateMember0@CTODayViewEvent@CXTPCalendarThemeOffice2007@@MAEPAVCXTPCalendarThemePart@@XZ
_TEXT	SEGMENT PARA USE32 PUBLIC 'CODE'
_TEXT	ENDS
;	COMDAT ?GetEventIconsToDrawPart@CTODayViewEvent@CXTPCalendarThemeOffice2007@@UAEPAVCTOEventIconsToDraw@CXTPCalendarTheme@@XZ
_TEXT	SEGMENT PARA USE32 PUBLIC 'CODE'
_TEXT	ENDS
;	COMDAT ?GetEventIconsToDrawPartX@CTODayViewEvent@CXTPCalendarThemeOffice2007@@UAEPAVCTOEventIconsToDraw@CXTPCalendarTheme@@XZ
_TEXT	SEGMENT PARA USE32 PUBLIC 'CODE'
_TEXT	ENDS
;	COMDAT ?SetEventIconsToDrawPart@CTODayViewEvent@CXTPCalendarThemeOffice2007@@UAEXPAVCTOEventIconsToDraw@CXTPCalendarTheme@@@Z
_TEXT	SEGMENT PARA USE32 PUBLIC 'CODE'
_TEXT	ENDS
;	COMDAT ?CreateMember1@CTODayViewEvent@CXTPCalendarThemeOffice2007@@MAEPAVCXTPCalendarThemePart@@XZ
_TEXT	SEGMENT PARA USE32 PUBLIC 'CODE'
_TEXT	ENDS
;	COMDAT ?GetHeightFormulaPart@CTODayViewEvent@CXTPCalendarThemeOffice2007@@UAEPAVCTOFormula_MulDivC@CXTPCalendarTheme@@XZ
_TEXT	SEGMENT PARA USE32 PUBLIC 'CODE'
_TEXT	ENDS
;	COMDAT ?GetHeightFormulaPartX@CTODayViewEvent@CXTPCalendarThemeOffice2007@@UAEPAVCTOFormula_MulDivC@CXTPCalendarTheme@@XZ
_TEXT	SEGMENT PARA USE32 PUBLIC 'CODE'
_TEXT	ENDS
;	COMDAT ?SetHeightFormulaPart@CTODayViewEvent@CXTPCalendarThemeOffice2007@@UAEXPAVCTOFormula_MulDivC@CXTPCalendarTheme@@@Z
_TEXT	SEGMENT PARA USE32 PUBLIC 'CODE'
_TEXT	ENDS
;	COMDAT ?CreateMember0@CTODayViewTimeScale@CXTPCalendarThemeOffice2007@@MAEPAVCXTPCalendarThemePart@@XZ
_TEXT	SEGMENT PARA USE32 PUBLIC 'CODE'
_TEXT	ENDS
;	COMDAT ?GetHeightFormulaPart@CTODayViewTimeScale@CXTPCalendarThemeOffice2007@@UAEPAVCTOFormula_MulDivC@CXTPCalendarTheme@@XZ
_TEXT	SEGMENT PARA USE32 PUBLIC 'CODE'
_TEXT	ENDS
;	COMDAT ?GetHeightFormulaPartX@CTODayViewTimeScale@CXTPCalendarThemeOffice2007@@UAEPAVCTOFormula_MulDivC@CXTPCalendarTheme@@XZ
_TEXT	SEGMENT PARA USE32 PUBLIC 'CODE'
_TEXT	ENDS
;	COMDAT ?SetHeightFormulaPart@CTODayViewTimeScale@CXTPCalendarThemeOffice2007@@UAEXPAVCTOFormula_MulDivC@CXTPCalendarTheme@@@Z
_TEXT	SEGMENT PARA USE32 PUBLIC 'CODE'
_TEXT	ENDS
;	COMDAT ?CalcHeight@CTODayViewDayGroupCell@CXTPCalendarThemeOffice2007@@UAEHPAVCDC@@H@Z
_TEXT	SEGMENT PARA USE32 PUBLIC 'CODE'
_TEXT	ENDS
;	COMDAT ?CreateMember0@CTODayViewDayGroup@CXTPCalendarThemeOffice2007@@MAEPAVCXTPCalendarThemePart@@XZ
_TEXT	SEGMENT PARA USE32 PUBLIC 'CODE'
_TEXT	ENDS
;	COMDAT ?GetHeaderPart@CTODayViewDayGroup@CXTPCalendarThemeOffice2007@@UAEPAVCTODayViewDayGroupHeader@CXTPCalendarTheme@@XZ
_TEXT	SEGMENT PARA USE32 PUBLIC 'CODE'
_TEXT	ENDS
;	COMDAT ?GetHeaderPartX@CTODayViewDayGroup@CXTPCalendarThemeOffice2007@@UAEPAVCTODayViewDayGroupHeader@2@XZ
_TEXT	SEGMENT PARA USE32 PUBLIC 'CODE'
_TEXT	ENDS
;	COMDAT ?SetHeaderPart@CTODayViewDayGroup@CXTPCalendarThemeOffice2007@@UAEXPAVCTODayViewDayGroupHeader@2@@Z
_TEXT	SEGMENT PARA USE32 PUBLIC 'CODE'
_TEXT	ENDS
;	COMDAT ?CreateMember1@CTODayViewDayGroup@CXTPCalendarThemeOffice2007@@MAEPAVCXTPCalendarThemePart@@XZ
_TEXT	SEGMENT PARA USE32 PUBLIC 'CODE'
_TEXT	ENDS
;	COMDAT ?GetAllDayEventsPart@CTODayViewDayGroup@CXTPCalendarThemeOffice2007@@UAEPAVCTODayViewDayGroupAllDayEvents@CXTPCalendarTheme@@XZ
_TEXT	SEGMENT PARA USE32 PUBLIC 'CODE'
_TEXT	ENDS
;	COMDAT ?GetAllDayEventsPartX@CTODayViewDayGroup@CXTPCalendarThemeOffice2007@@UAEPAVCTODayViewDayGroupAllDayEvents@2@XZ
_TEXT	SEGMENT PARA USE32 PUBLIC 'CODE'
_TEXT	ENDS
;	COMDAT ?SetAllDayEventsPart@CTODayViewDayGroup@CXTPCalendarThemeOffice2007@@UAEXPAVCTODayViewDayGroupAllDayEvents@2@@Z
_TEXT	SEGMENT PARA USE32 PUBLIC 'CODE'
_TEXT	ENDS
;	COMDAT ?CreateMember2@CTODayViewDayGroup@CXTPCalendarThemeOffice2007@@MAEPAVCXTPCalendarThemePart@@XZ
_TEXT	SEGMENT PARA USE32 PUBLIC 'CODE'
_TEXT	ENDS
;	COMDAT ?GetCellPart@CTODayViewDayGroup@CXTPCalendarThemeOffice2007@@UAEPAVCTODayViewDayGroupCell@CXTPCalendarTheme@@XZ
_TEXT	SEGMENT PARA USE32 PUBLIC 'CODE'
_TEXT	ENDS
;	COMDAT ?GetCellPartX@CTODayViewDayGroup@CXTPCalendarThemeOffice2007@@UAEPAVCTODayViewDayGroupCell@2@XZ
_TEXT	SEGMENT PARA USE32 PUBLIC 'CODE'
_TEXT	ENDS
;	COMDAT ?SetCellPart@CTODayViewDayGroup@CXTPCalendarThemeOffice2007@@UAEXPAVCTODayViewDayGroupCell@2@@Z
_TEXT	SEGMENT PARA USE32 PUBLIC 'CODE'
_TEXT	ENDS
;	COMDAT ?CreateMember3@CTODayViewDayGroup@CXTPCalendarThemeOffice2007@@MAEPAVCXTPCalendarThemePart@@XZ
_TEXT	SEGMENT PARA USE32 PUBLIC 'CODE'
_TEXT	ENDS
;	COMDAT ?GetMultiDayEventPart@CTODayViewDayGroup@CXTPCalendarThemeOffice2007@@UAEPAVCTODayViewEvent_MultiDay@CXTPCalendarTheme@@XZ
_TEXT	SEGMENT PARA USE32 PUBLIC 'CODE'
_TEXT	ENDS
;	COMDAT ?GetMultiDayEventPartX@CTODayViewDayGroup@CXTPCalendarThemeOffice2007@@UAEPAVCTODayViewEvent_MultiDay@2@XZ
_TEXT	SEGMENT PARA USE32 PUBLIC 'CODE'
_TEXT	ENDS
;	COMDAT ?SetMultiDayEventPart@CTODayViewDayGroup@CXTPCalendarThemeOffice2007@@UAEXPAVCTODayViewEvent_MultiDay@2@@Z
_TEXT	SEGMENT PARA USE32 PUBLIC 'CODE'
_TEXT	ENDS
;	COMDAT ?CreateMember4@CTODayViewDayGroup@CXTPCalendarThemeOffice2007@@MAEPAVCXTPCalendarThemePart@@XZ
_TEXT	SEGMENT PARA USE32 PUBLIC 'CODE'
_TEXT	ENDS
;	COMDAT ?GetSingleDayEventPart@CTODayViewDayGroup@CXTPCalendarThemeOffice2007@@UAEPAVCTODayViewEvent_SingleDay@CXTPCalendarTheme@@XZ
_TEXT	SEGMENT PARA USE32 PUBLIC 'CODE'
_TEXT	ENDS
;	COMDAT ?GetSingleDayEventPartX@CTODayViewDayGroup@CXTPCalendarThemeOffice2007@@UAEPAVCTODayViewEvent_SingleDay@2@XZ
_TEXT	SEGMENT PARA USE32 PUBLIC 'CODE'
_TEXT	ENDS
;	COMDAT ?SetSingleDayEventPart@CTODayViewDayGroup@CXTPCalendarThemeOffice2007@@UAEXPAVCTODayViewEvent_SingleDay@2@@Z
_TEXT	SEGMENT PARA USE32 PUBLIC 'CODE'
_TEXT	ENDS
;	COMDAT ??0CTODayViewDayHeader@CXTPCalendarThemeOffice2007@@QAE@XZ
_TEXT	SEGMENT PARA USE32 PUBLIC 'CODE'
_TEXT	ENDS
;	COMDAT ?CreateMember0@CTODayViewDay@CXTPCalendarThemeOffice2007@@MAEPAVCXTPCalendarThemePart@@XZ
_TEXT	SEGMENT PARA USE32 PUBLIC 'CODE'
_TEXT	ENDS
;	COMDAT ?GetHeaderPart@CTODayViewDay@CXTPCalendarThemeOffice2007@@UAEPAVCTODayViewDayHeader@CXTPCalendarTheme@@XZ
_TEXT	SEGMENT PARA USE32 PUBLIC 'CODE'
_TEXT	ENDS
;	COMDAT ?GetHeaderPartX@CTODayViewDay@CXTPCalendarThemeOffice2007@@UAEPAVCTODayViewDayHeader@2@XZ
_TEXT	SEGMENT PARA USE32 PUBLIC 'CODE'
_TEXT	ENDS
;	COMDAT ?SetHeaderPart@CTODayViewDay@CXTPCalendarThemeOffice2007@@UAEXPAVCTODayViewDayHeader@2@@Z
_TEXT	SEGMENT PARA USE32 PUBLIC 'CODE'
_TEXT	ENDS
;	COMDAT ?CreateMember1@CTODayViewDay@CXTPCalendarThemeOffice2007@@MAEPAVCXTPCalendarThemePart@@XZ
_TEXT	SEGMENT PARA USE32 PUBLIC 'CODE'
_TEXT	ENDS
;	COMDAT ?GetGroupPart@CTODayViewDay@CXTPCalendarThemeOffice2007@@UAEPAVCTODayViewDayGroup@CXTPCalendarTheme@@XZ
_TEXT	SEGMENT PARA USE32 PUBLIC 'CODE'
_TEXT	ENDS
;	COMDAT ?GetGroupPartX@CTODayViewDay@CXTPCalendarThemeOffice2007@@UAEPAVCTODayViewDayGroup@2@XZ
_TEXT	SEGMENT PARA USE32 PUBLIC 'CODE'
_TEXT	ENDS
;	COMDAT ?SetGroupPart@CTODayViewDay@CXTPCalendarThemeOffice2007@@UAEXPAVCTODayViewDayGroup@2@@Z
_TEXT	SEGMENT PARA USE32 PUBLIC 'CODE'
_TEXT	ENDS
;	COMDAT ?CreateMember0@CTODayView@CXTPCalendarThemeOffice2007@@MAEPAVCXTPCalendarThemePart@@XZ
_TEXT	SEGMENT PARA USE32 PUBLIC 'CODE'
_TEXT	ENDS
;	COMDAT ?GetHeaderPart@CTODayView@CXTPCalendarThemeOffice2007@@UAEPAVCTOHeader@CXTPCalendarTheme@@XZ
_TEXT	SEGMENT PARA USE32 PUBLIC 'CODE'
_TEXT	ENDS
;	COMDAT ?GetHeaderPartX@CTODayView@CXTPCalendarThemeOffice2007@@UAEPAVCTODayViewHeader@2@XZ
_TEXT	SEGMENT PARA USE32 PUBLIC 'CODE'
_TEXT	ENDS
;	COMDAT ?SetHeaderPart@CTODayView@CXTPCalendarThemeOffice2007@@UAEXPAVCTODayViewHeader@2@@Z
_TEXT	SEGMENT PARA USE32 PUBLIC 'CODE'
_TEXT	ENDS
;	COMDAT ?CreateMember1@CTODayView@CXTPCalendarThemeOffice2007@@MAEPAVCXTPCalendarThemePart@@XZ
_TEXT	SEGMENT PARA USE32 PUBLIC 'CODE'
_TEXT	ENDS
;	COMDAT ?GetEventPart@CTODayView@CXTPCalendarThemeOffice2007@@UAEPAVCTODayViewEvent@CXTPCalendarTheme@@XZ
_TEXT	SEGMENT PARA USE32 PUBLIC 'CODE'
_TEXT	ENDS
;	COMDAT ?GetEventPartX@CTODayView@CXTPCalendarThemeOffice2007@@UAEPAVCTODayViewEvent@2@XZ
_TEXT	SEGMENT PARA USE32 PUBLIC 'CODE'
_TEXT	ENDS
;	COMDAT ?SetEventPart@CTODayView@CXTPCalendarThemeOffice2007@@UAEXPAVCTODayViewEvent@2@@Z
_TEXT	SEGMENT PARA USE32 PUBLIC 'CODE'
_TEXT	ENDS
;	COMDAT ?CreateMember2@CTODayView@CXTPCalendarThemeOffice2007@@MAEPAVCXTPCalendarThemePart@@XZ
_TEXT	SEGMENT PARA USE32 PUBLIC 'CODE'
_TEXT	ENDS
;	COMDAT ?GetTimeScalePart@CTODayView@CXTPCalendarThemeOffice2007@@UAEPAVCTODayViewTimeScale@CXTPCalendarTheme@@XZ
_TEXT	SEGMENT PARA USE32 PUBLIC 'CODE'
_TEXT	ENDS
;	COMDAT ?GetTimeScalePartX@CTODayView@CXTPCalendarThemeOffice2007@@UAEPAVCTODayViewTimeScale@2@XZ
_TEXT	SEGMENT PARA USE32 PUBLIC 'CODE'
_TEXT	ENDS
;	COMDAT ?SetTimeScalePart@CTODayView@CXTPCalendarThemeOffice2007@@UAEXPAVCTODayViewTimeScale@2@@Z
_TEXT	SEGMENT PARA USE32 PUBLIC 'CODE'
_TEXT	ENDS
;	COMDAT ?CreateMember3@CTODayView@CXTPCalendarThemeOffice2007@@MAEPAVCXTPCalendarThemePart@@XZ
_TEXT	SEGMENT PARA USE32 PUBLIC 'CODE'
_TEXT	ENDS
;	COMDAT ?GetDayPart@CTODayView@CXTPCalendarThemeOffice2007@@UAEPAVCTODayViewDay@CXTPCalendarTheme@@XZ
_TEXT	SEGMENT PARA USE32 PUBLIC 'CODE'
_TEXT	ENDS
;	COMDAT ?GetDayPartX@CTODayView@CXTPCalendarThemeOffice2007@@UAEPAVCTODayViewDay@2@XZ
_TEXT	SEGMENT PARA USE32 PUBLIC 'CODE'
_TEXT	ENDS
;	COMDAT ?SetDayPart@CTODayView@CXTPCalendarThemeOffice2007@@UAEXPAVCTODayViewDay@2@@Z
_TEXT	SEGMENT PARA USE32 PUBLIC 'CODE'
_TEXT	ENDS
;	COMDAT ?IsUseCellAlignedDraggingInTimeArea@CTODayView@CXTPCalendarThemeOffice2007@@UAEHXZ
_TEXT	SEGMENT PARA USE32 PUBLIC 'CODE'
_TEXT	ENDS
;	COMDAT ?CreateMember0@CTOMonthViewEvent@CXTPCalendarThemeOffice2007@@MAEPAVCXTPCalendarThemePart@@XZ
_TEXT	SEGMENT PARA USE32 PUBLIC 'CODE'
_TEXT	ENDS
;	COMDAT ?GetEventIconsToDrawPart@CTOMonthViewEvent@CXTPCalendarThemeOffice2007@@UAEPAVCTOEventIconsToDraw@CXTPCalendarTheme@@XZ
_TEXT	SEGMENT PARA USE32 PUBLIC 'CODE'
_TEXT	ENDS
;	COMDAT ?GetEventIconsToDrawPartX@CTOMonthViewEvent@CXTPCalendarThemeOffice2007@@UAEPAVCTOEventIconsToDraw@CXTPCalendarTheme@@XZ
_TEXT	SEGMENT PARA USE32 PUBLIC 'CODE'
_TEXT	ENDS
;	COMDAT ?SetEventIconsToDrawPart@CTOMonthViewEvent@CXTPCalendarThemeOffice2007@@UAEXPAVCTOEventIconsToDraw@CXTPCalendarTheme@@@Z
_TEXT	SEGMENT PARA USE32 PUBLIC 'CODE'
_TEXT	ENDS
;	COMDAT ?CreateMember1@CTOMonthViewEvent@CXTPCalendarThemeOffice2007@@MAEPAVCXTPCalendarThemePart@@XZ
_TEXT	SEGMENT PARA USE32 PUBLIC 'CODE'
_TEXT	ENDS
;	COMDAT ?GetHeightFormulaPart@CTOMonthViewEvent@CXTPCalendarThemeOffice2007@@UAEPAVCTOFormula_MulDivC@CXTPCalendarTheme@@XZ
_TEXT	SEGMENT PARA USE32 PUBLIC 'CODE'
_TEXT	ENDS
;	COMDAT ?GetHeightFormulaPartX@CTOMonthViewEvent@CXTPCalendarThemeOffice2007@@UAEPAVCTOFormula_MulDivC@CXTPCalendarTheme@@XZ
_TEXT	SEGMENT PARA USE32 PUBLIC 'CODE'
_TEXT	ENDS
;	COMDAT ?SetHeightFormulaPart@CTOMonthViewEvent@CXTPCalendarThemeOffice2007@@UAEXPAVCTOFormula_MulDivC@CXTPCalendarTheme@@@Z
_TEXT	SEGMENT PARA USE32 PUBLIC 'CODE'
_TEXT	ENDS
;	COMDAT ?CreateMember0@CTOMonthViewDay@CXTPCalendarThemeOffice2007@@MAEPAVCXTPCalendarThemePart@@XZ
_TEXT	SEGMENT PARA USE32 PUBLIC 'CODE'
_TEXT	ENDS
;	COMDAT ?GetHeaderPart@CTOMonthViewDay@CXTPCalendarThemeOffice2007@@UAEPAVCTOMonthViewDayHeader@CXTPCalendarTheme@@XZ
_TEXT	SEGMENT PARA USE32 PUBLIC 'CODE'
_TEXT	ENDS
;	COMDAT ?GetHeaderPartX@CTOMonthViewDay@CXTPCalendarThemeOffice2007@@UAEPAVCTOMonthViewDayHeader@2@XZ
_TEXT	SEGMENT PARA USE32 PUBLIC 'CODE'
_TEXT	ENDS
;	COMDAT ?SetHeaderPart@CTOMonthViewDay@CXTPCalendarThemeOffice2007@@UAEXPAVCTOMonthViewDayHeader@2@@Z
_TEXT	SEGMENT PARA USE32 PUBLIC 'CODE'
_TEXT	ENDS
;	COMDAT ?CreateMember1@CTOMonthViewDay@CXTPCalendarThemeOffice2007@@MAEPAVCXTPCalendarThemePart@@XZ
_TEXT	SEGMENT PARA USE32 PUBLIC 'CODE'
_TEXT	ENDS
;	COMDAT ?GetMultiDayEventPart@CTOMonthViewDay@CXTPCalendarThemeOffice2007@@UAEPAVCTOMonthViewEvent_MultiDay@CXTPCalendarTheme@@XZ
_TEXT	SEGMENT PARA USE32 PUBLIC 'CODE'
_TEXT	ENDS
;	COMDAT ?GetMultiDayEventPartX@CTOMonthViewDay@CXTPCalendarThemeOffice2007@@UAEPAVCTOMonthViewEvent_MultiDay@2@XZ
_TEXT	SEGMENT PARA USE32 PUBLIC 'CODE'
_TEXT	ENDS
;	COMDAT ?SetMultiDayEventPart@CTOMonthViewDay@CXTPCalendarThemeOffice2007@@UAEXPAVCTOMonthViewEvent_MultiDay@2@@Z
_TEXT	SEGMENT PARA USE32 PUBLIC 'CODE'
_TEXT	ENDS
;	COMDAT ?CreateMember2@CTOMonthViewDay@CXTPCalendarThemeOffice2007@@MAEPAVCXTPCalendarThemePart@@XZ
_TEXT	SEGMENT PARA USE32 PUBLIC 'CODE'
_TEXT	ENDS
;	COMDAT ?GetSingleDayEventPart@CTOMonthViewDay@CXTPCalendarThemeOffice2007@@UAEPAVCTOMonthViewEvent_SingleDay@CXTPCalendarTheme@@XZ
_TEXT	SEGMENT PARA USE32 PUBLIC 'CODE'
_TEXT	ENDS
;	COMDAT ?GetSingleDayEventPartX@CTOMonthViewDay@CXTPCalendarThemeOffice2007@@UAEPAVCTOMonthViewEvent_SingleDay@2@XZ
_TEXT	SEGMENT PARA USE32 PUBLIC 'CODE'
_TEXT	ENDS
;	COMDAT ?SetSingleDayEventPart@CTOMonthViewDay@CXTPCalendarThemeOffice2007@@UAEXPAVCTOMonthViewEvent_SingleDay@2@@Z
_TEXT	SEGMENT PARA USE32 PUBLIC 'CODE'
_TEXT	ENDS
;	COMDAT ??0CTOMonthViewWeekDayHeader@CXTPCalendarThemeOffice2007@@QAE@XZ
_TEXT	SEGMENT PARA USE32 PUBLIC 'CODE'
_TEXT	ENDS
;	COMDAT ??0CTOMonthViewWeekHeader@CXTPCalendarThemeOffice2007@@QAE@XZ
_TEXT	SEGMENT PARA USE32 PUBLIC 'CODE'
_TEXT	ENDS
;	COMDAT ?CreateMember0@CTOMonthView@CXTPCalendarThemeOffice2007@@MAEPAVCXTPCalendarThemePart@@XZ
_TEXT	SEGMENT PARA USE32 PUBLIC 'CODE'
_TEXT	ENDS
;	COMDAT ?GetHeaderPart@CTOMonthView@CXTPCalendarThemeOffice2007@@UAEPAVCTOHeader@CXTPCalendarTheme@@XZ
_TEXT	SEGMENT PARA USE32 PUBLIC 'CODE'
_TEXT	ENDS
;	COMDAT ?GetHeaderPartX@CTOMonthView@CXTPCalendarThemeOffice2007@@UAEPAVCTOHeader@2@XZ
_TEXT	SEGMENT PARA USE32 PUBLIC 'CODE'
_TEXT	ENDS
;	COMDAT ?SetHeaderPart@CTOMonthView@CXTPCalendarThemeOffice2007@@UAEXPAVCTOHeader@2@@Z
_TEXT	SEGMENT PARA USE32 PUBLIC 'CODE'
_TEXT	ENDS
;	COMDAT ?CreateMember1@CTOMonthView@CXTPCalendarThemeOffice2007@@MAEPAVCXTPCalendarThemePart@@XZ
_TEXT	SEGMENT PARA USE32 PUBLIC 'CODE'
_TEXT	ENDS
;	COMDAT ?GetEventPart@CTOMonthView@CXTPCalendarThemeOffice2007@@UAEPAVCTOMonthViewEvent@CXTPCalendarTheme@@XZ
_TEXT	SEGMENT PARA USE32 PUBLIC 'CODE'
_TEXT	ENDS
;	COMDAT ?GetEventPartX@CTOMonthView@CXTPCalendarThemeOffice2007@@UAEPAVCTOMonthViewEvent@2@XZ
_TEXT	SEGMENT PARA USE32 PUBLIC 'CODE'
_TEXT	ENDS
;	COMDAT ?SetEventPart@CTOMonthView@CXTPCalendarThemeOffice2007@@UAEXPAVCTOMonthViewEvent@2@@Z
_TEXT	SEGMENT PARA USE32 PUBLIC 'CODE'
_TEXT	ENDS
;	COMDAT ?CreateMember2@CTOMonthView@CXTPCalendarThemeOffice2007@@MAEPAVCXTPCalendarThemePart@@XZ
_TEXT	SEGMENT PARA USE32 PUBLIC 'CODE'
_TEXT	ENDS
;	COMDAT ?GetWeekDayHeaderPart@CTOMonthView@CXTPCalendarThemeOffice2007@@UAEPAVCTOMonthViewWeekDayHeader@CXTPCalendarTheme@@XZ
_TEXT	SEGMENT PARA USE32 PUBLIC 'CODE'
_TEXT	ENDS
;	COMDAT ?GetWeekDayHeaderPartX@CTOMonthView@CXTPCalendarThemeOffice2007@@UAEPAVCTOMonthViewWeekDayHeader@2@XZ
_TEXT	SEGMENT PARA USE32 PUBLIC 'CODE'
_TEXT	ENDS
;	COMDAT ?SetWeekDayHeaderPart@CTOMonthView@CXTPCalendarThemeOffice2007@@UAEXPAVCTOMonthViewWeekDayHeader@2@@Z
_TEXT	SEGMENT PARA USE32 PUBLIC 'CODE'
_TEXT	ENDS
;	COMDAT ?CreateMember3@CTOMonthView@CXTPCalendarThemeOffice2007@@MAEPAVCXTPCalendarThemePart@@XZ
_TEXT	SEGMENT PARA USE32 PUBLIC 'CODE'
_TEXT	ENDS
;	COMDAT ?GetWeekHeaderPart@CTOMonthView@CXTPCalendarThemeOffice2007@@UAEPAVCTOHeader@2@XZ
_TEXT	SEGMENT PARA USE32 PUBLIC 'CODE'
_TEXT	ENDS
;	COMDAT ?GetWeekHeaderPartX@CTOMonthView@CXTPCalendarThemeOffice2007@@UAEPAVCTOMonthViewWeekHeader@2@XZ
_TEXT	SEGMENT PARA USE32 PUBLIC 'CODE'
_TEXT	ENDS
;	COMDAT ?SetWeekHeaderPart@CTOMonthView@CXTPCalendarThemeOffice2007@@UAEXPAVCTOMonthViewWeekHeader@2@@Z
_TEXT	SEGMENT PARA USE32 PUBLIC 'CODE'
_TEXT	ENDS
;	COMDAT ?CreateMember4@CTOMonthView@CXTPCalendarThemeOffice2007@@MAEPAVCXTPCalendarThemePart@@XZ
_TEXT	SEGMENT PARA USE32 PUBLIC 'CODE'
_TEXT	ENDS
;	COMDAT ?GetDayPart@CTOMonthView@CXTPCalendarThemeOffice2007@@UAEPAVCTOMonthViewDay@CXTPCalendarTheme@@XZ
_TEXT	SEGMENT PARA USE32 PUBLIC 'CODE'
_TEXT	ENDS
;	COMDAT ?GetDayPartX@CTOMonthView@CXTPCalendarThemeOffice2007@@UAEPAVCTOMonthViewDay@2@XZ
_TEXT	SEGMENT PARA USE32 PUBLIC 'CODE'
_TEXT	ENDS
;	COMDAT ?SetDayPart@CTOMonthView@CXTPCalendarThemeOffice2007@@UAEXPAVCTOMonthViewDay@2@@Z
_TEXT	SEGMENT PARA USE32 PUBLIC 'CODE'
_TEXT	ENDS
;	COMDAT ?CreateMember0@CTOWeekViewEvent@CXTPCalendarThemeOffice2007@@MAEPAVCXTPCalendarThemePart@@XZ
_TEXT	SEGMENT PARA USE32 PUBLIC 'CODE'
_TEXT	ENDS
;	COMDAT ?GetEventIconsToDrawPart@CTOWeekViewEvent@CXTPCalendarThemeOffice2007@@UAEPAVCTOEventIconsToDraw@CXTPCalendarTheme@@XZ
_TEXT	SEGMENT PARA USE32 PUBLIC 'CODE'
_TEXT	ENDS
;	COMDAT ?GetEventIconsToDrawPartX@CTOWeekViewEvent@CXTPCalendarThemeOffice2007@@UAEPAVCTOEventIconsToDraw@CXTPCalendarTheme@@XZ
_TEXT	SEGMENT PARA USE32 PUBLIC 'CODE'
_TEXT	ENDS
;	COMDAT ?SetEventIconsToDrawPart@CTOWeekViewEvent@CXTPCalendarThemeOffice2007@@UAEXPAVCTOEventIconsToDraw@CXTPCalendarTheme@@@Z
_TEXT	SEGMENT PARA USE32 PUBLIC 'CODE'
_TEXT	ENDS
;	COMDAT ?CreateMember1@CTOWeekViewEvent@CXTPCalendarThemeOffice2007@@MAEPAVCXTPCalendarThemePart@@XZ
_TEXT	SEGMENT PARA USE32 PUBLIC 'CODE'
_TEXT	ENDS
;	COMDAT ?GetHeightFormulaPart@CTOWeekViewEvent@CXTPCalendarThemeOffice2007@@UAEPAVCTOFormula_MulDivC@CXTPCalendarTheme@@XZ
_TEXT	SEGMENT PARA USE32 PUBLIC 'CODE'
_TEXT	ENDS
;	COMDAT ?GetHeightFormulaPartX@CTOWeekViewEvent@CXTPCalendarThemeOffice2007@@UAEPAVCTOFormula_MulDivC@CXTPCalendarTheme@@XZ
_TEXT	SEGMENT PARA USE32 PUBLIC 'CODE'
_TEXT	ENDS
;	COMDAT ?SetHeightFormulaPart@CTOWeekViewEvent@CXTPCalendarThemeOffice2007@@UAEXPAVCTOFormula_MulDivC@CXTPCalendarTheme@@@Z
_TEXT	SEGMENT PARA USE32 PUBLIC 'CODE'
_TEXT	ENDS
;	COMDAT ?CreateMember0@CTOWeekViewDay@CXTPCalendarThemeOffice2007@@MAEPAVCXTPCalendarThemePart@@XZ
_TEXT	SEGMENT PARA USE32 PUBLIC 'CODE'
_TEXT	ENDS
;	COMDAT ?GetHeaderPart@CTOWeekViewDay@CXTPCalendarThemeOffice2007@@UAEPAVCTOWeekViewDayHeader@CXTPCalendarTheme@@XZ
_TEXT	SEGMENT PARA USE32 PUBLIC 'CODE'
_TEXT	ENDS
;	COMDAT ?GetHeaderPartX@CTOWeekViewDay@CXTPCalendarThemeOffice2007@@UAEPAVCTOWeekViewDayHeader@2@XZ
_TEXT	SEGMENT PARA USE32 PUBLIC 'CODE'
_TEXT	ENDS
;	COMDAT ?SetHeaderPart@CTOWeekViewDay@CXTPCalendarThemeOffice2007@@UAEXPAVCTOWeekViewDayHeader@2@@Z
_TEXT	SEGMENT PARA USE32 PUBLIC 'CODE'
_TEXT	ENDS
;	COMDAT ?CreateMember1@CTOWeekViewDay@CXTPCalendarThemeOffice2007@@MAEPAVCXTPCalendarThemePart@@XZ
_TEXT	SEGMENT PARA USE32 PUBLIC 'CODE'
_TEXT	ENDS
;	COMDAT ?GetMultiDayEventPart@CTOWeekViewDay@CXTPCalendarThemeOffice2007@@UAEPAVCTOWeekViewEvent_MultiDay@CXTPCalendarTheme@@XZ
_TEXT	SEGMENT PARA USE32 PUBLIC 'CODE'
_TEXT	ENDS
;	COMDAT ?GetMultiDayEventPartX@CTOWeekViewDay@CXTPCalendarThemeOffice2007@@UAEPAVCTOWeekViewEvent_MultiDay@2@XZ
_TEXT	SEGMENT PARA USE32 PUBLIC 'CODE'
_TEXT	ENDS
;	COMDAT ?SetMultiDayEventPart@CTOWeekViewDay@CXTPCalendarThemeOffice2007@@UAEXPAVCTOWeekViewEvent_MultiDay@2@@Z
_TEXT	SEGMENT PARA USE32 PUBLIC 'CODE'
_TEXT	ENDS
;	COMDAT ?CreateMember2@CTOWeekViewDay@CXTPCalendarThemeOffice2007@@MAEPAVCXTPCalendarThemePart@@XZ
_TEXT	SEGMENT PARA USE32 PUBLIC 'CODE'
_TEXT	ENDS
;	COMDAT ?GetSingleDayEventPart@CTOWeekViewDay@CXTPCalendarThemeOffice2007@@UAEPAVCTOWeekViewEvent_SingleDay@CXTPCalendarTheme@@XZ
_TEXT	SEGMENT PARA USE32 PUBLIC 'CODE'
_TEXT	ENDS
;	COMDAT ?GetSingleDayEventPartX@CTOWeekViewDay@CXTPCalendarThemeOffice2007@@UAEPAVCTOWeekViewEvent_SingleDay@2@XZ
_TEXT	SEGMENT PARA USE32 PUBLIC 'CODE'
_TEXT	ENDS
;	COMDAT ?SetSingleDayEventPart@CTOWeekViewDay@CXTPCalendarThemeOffice2007@@UAEXPAVCTOWeekViewEvent_SingleDay@2@@Z
_TEXT	SEGMENT PARA USE32 PUBLIC 'CODE'
_TEXT	ENDS
;	COMDAT ?CreateMember0@CTOWeekView@CXTPCalendarThemeOffice2007@@MAEPAVCXTPCalendarThemePart@@XZ
_TEXT	SEGMENT PARA USE32 PUBLIC 'CODE'
_TEXT	ENDS
;	COMDAT ?GetEventPart@CTOWeekView@CXTPCalendarThemeOffice2007@@UAEPAVCTOWeekViewEvent@CXTPCalendarTheme@@XZ
_TEXT	SEGMENT PARA USE32 PUBLIC 'CODE'
_TEXT	ENDS
;	COMDAT ?GetEventPartX@CTOWeekView@CXTPCalendarThemeOffice2007@@UAEPAVCTOWeekViewEvent@2@XZ
_TEXT	SEGMENT PARA USE32 PUBLIC 'CODE'
_TEXT	ENDS
;	COMDAT ?SetEventPart@CTOWeekView@CXTPCalendarThemeOffice2007@@UAEXPAVCTOWeekViewEvent@2@@Z
_TEXT	SEGMENT PARA USE32 PUBLIC 'CODE'
_TEXT	ENDS
;	COMDAT ?CreateMember1@CTOWeekView@CXTPCalendarThemeOffice2007@@MAEPAVCXTPCalendarThemePart@@XZ
_TEXT	SEGMENT PARA USE32 PUBLIC 'CODE'
_TEXT	ENDS
;	COMDAT ?GetDayPart@CTOWeekView@CXTPCalendarThemeOffice2007@@UAEPAVCTOWeekViewDay@CXTPCalendarTheme@@XZ
_TEXT	SEGMENT PARA USE32 PUBLIC 'CODE'
_TEXT	ENDS
;	COMDAT ?GetDayPartX@CTOWeekView@CXTPCalendarThemeOffice2007@@UAEPAVCTOWeekViewDay@2@XZ
_TEXT	SEGMENT PARA USE32 PUBLIC 'CODE'
_TEXT	ENDS
;	COMDAT ?SetDayPart@CTOWeekView@CXTPCalendarThemeOffice2007@@UAEXPAVCTOWeekViewDay@2@@Z
_TEXT	SEGMENT PARA USE32 PUBLIC 'CODE'
_TEXT	ENDS
;	COMDAT ?GetPThis@C_m_Sink_Informator@CXTPCalendarThemeOffice2007@@SAPAV2@PAE@Z
_TEXT	SEGMENT PARA USE32 PUBLIC 'CODE'
_TEXT	ENDS
;	COMDAT ??_GCTOPrevNextEventButton@CXTPCalendarThemeOffice2007@@UAEPAXI@Z
_TEXT	SEGMENT PARA USE32 PUBLIC 'CODE'
_TEXT	ENDS
;	COMDAT ??0CTOPrevNextEventButton_Base@CXTPCalendarThemeOffice2007@@QAE@XZ
_TEXT	SEGMENT PARA USE32 PUBLIC 'CODE'
_TEXT	ENDS
;	COMDAT ??1CTOPrevNextEventButton_Base@CXTPCalendarThemeOffice2007@@UAE@XZ
_TEXT	SEGMENT PARA USE32 PUBLIC 'CODE'
_TEXT	ENDS
;	COMDAT ??0CTODayViewDayGroupHeader@CXTPCalendarThemeOffice2007@@QAE@XZ
_TEXT	SEGMENT PARA USE32 PUBLIC 'CODE'
_TEXT	ENDS
;	COMDAT ??0CTODayViewDayGroupAllDayEvents@CXTPCalendarThemeOffice2007@@QAE@XZ
_TEXT	SEGMENT PARA USE32 PUBLIC 'CODE'
_TEXT	ENDS
;	COMDAT ??0CTODayViewDayGroupCell@CXTPCalendarThemeOffice2007@@QAE@XZ
_TEXT	SEGMENT PARA USE32 PUBLIC 'CODE'
_TEXT	ENDS
;	COMDAT ??0CTODayViewEvent_MultiDay@CXTPCalendarThemeOffice2007@@QAE@XZ
_TEXT	SEGMENT PARA USE32 PUBLIC 'CODE'
_TEXT	ENDS
;	COMDAT ??0CTODayViewEvent_SingleDay@CXTPCalendarThemeOffice2007@@QAE@XZ
_TEXT	SEGMENT PARA USE32 PUBLIC 'CODE'
_TEXT	ENDS
;	COMDAT ??_GCTODayViewDayHeader@CXTPCalendarThemeOffice2007@@UAEPAXI@Z
_TEXT	SEGMENT PARA USE32 PUBLIC 'CODE'
_TEXT	ENDS
;	COMDAT ??0CTOHeader@CXTPCalendarTheme@@QAE@XZ
_TEXT	SEGMENT PARA USE32 PUBLIC 'CODE'
_TEXT	ENDS
;	COMDAT ??1CTOHeader@CXTPCalendarTheme@@UAE@XZ
_TEXT	SEGMENT PARA USE32 PUBLIC 'CODE'
_TEXT	ENDS
;	COMDAT ??0CTOHeader_Base@CXTPCalendarThemeOffice2007@@QAE@XZ
_TEXT	SEGMENT PARA USE32 PUBLIC 'CODE'
_TEXT	ENDS
;	COMDAT ??1CTOHeader_Base@CXTPCalendarThemeOffice2007@@UAE@XZ
_TEXT	SEGMENT PARA USE32 PUBLIC 'CODE'
_TEXT	ENDS
;	COMDAT ??0CTOHeader@CXTPCalendarThemeOffice2007@@QAE@XZ
_TEXT	SEGMENT PARA USE32 PUBLIC 'CODE'
_TEXT	ENDS
;	COMDAT ??1CTOHeader@CXTPCalendarThemeOffice2007@@UAE@XZ
_TEXT	SEGMENT PARA USE32 PUBLIC 'CODE'
_TEXT	ENDS
;	COMDAT ??0CTODayViewDayHeader_Base@CXTPCalendarThemeOffice2007@@QAE@XZ
_TEXT	SEGMENT PARA USE32 PUBLIC 'CODE'
_TEXT	ENDS
;	COMDAT ??1CTODayViewDayHeader_Base@CXTPCalendarThemeOffice2007@@UAE@XZ
_TEXT	SEGMENT PARA USE32 PUBLIC 'CODE'
_TEXT	ENDS
;	COMDAT ??0CTODayViewDayHeader@CXTPCalendarTheme@@QAE@XZ
_TEXT	SEGMENT PARA USE32 PUBLIC 'CODE'
_TEXT	ENDS
;	COMDAT ??1CTODayViewDayHeader@CXTPCalendarTheme@@UAE@XZ
_TEXT	SEGMENT PARA USE32 PUBLIC 'CODE'
_TEXT	ENDS
;	COMDAT ??0CTODayViewDayHeader_Base2@CXTPCalendarThemeOffice2007@@QAE@XZ
_TEXT	SEGMENT PARA USE32 PUBLIC 'CODE'
_TEXT	ENDS
;	COMDAT ??1CTODayViewDayHeader_Base2@CXTPCalendarThemeOffice2007@@UAE@XZ
_TEXT	SEGMENT PARA USE32 PUBLIC 'CODE'
_TEXT	ENDS
;	COMDAT ??0CTODayViewDayGroup@CXTPCalendarThemeOffice2007@@QAE@XZ
_TEXT	SEGMENT PARA USE32 PUBLIC 'CODE'
_TEXT	ENDS
;	COMDAT ??0CTODayViewHeader@CXTPCalendarThemeOffice2007@@QAE@XZ
_TEXT	SEGMENT PARA USE32 PUBLIC 'CODE'
_TEXT	ENDS
;	COMDAT ??0CTODayViewEvent@CXTPCalendarThemeOffice2007@@QAE@XZ
_TEXT	SEGMENT PARA USE32 PUBLIC 'CODE'
_TEXT	ENDS
;	COMDAT ??0CTODayViewTimeScale@CXTPCalendarThemeOffice2007@@QAE@XZ
_TEXT	SEGMENT PARA USE32 PUBLIC 'CODE'
_TEXT	ENDS
;	COMDAT ??0CTODayViewDay@CXTPCalendarThemeOffice2007@@QAE@XZ
_TEXT	SEGMENT PARA USE32 PUBLIC 'CODE'
_TEXT	ENDS
;	COMDAT ??0CTOMonthViewDayHeader@CXTPCalendarThemeOffice2007@@QAE@XZ
_TEXT	SEGMENT PARA USE32 PUBLIC 'CODE'
_TEXT	ENDS
;	COMDAT ??0CTOMonthViewEvent_MultiDay@CXTPCalendarThemeOffice2007@@QAE@XZ
_TEXT	SEGMENT PARA USE32 PUBLIC 'CODE'
_TEXT	ENDS
;	COMDAT ??0CTOMonthViewEvent_SingleDay@CXTPCalendarThemeOffice2007@@QAE@XZ
_TEXT	SEGMENT PARA USE32 PUBLIC 'CODE'
_TEXT	ENDS
;	COMDAT ??_GCTOMonthViewWeekDayHeader@CXTPCalendarThemeOffice2007@@UAEPAXI@Z
_TEXT	SEGMENT PARA USE32 PUBLIC 'CODE'
_TEXT	ENDS
;	COMDAT ??0CTOMonthViewWeekDayHeader_Base@CXTPCalendarThemeOffice2007@@QAE@XZ
_TEXT	SEGMENT PARA USE32 PUBLIC 'CODE'
_TEXT	ENDS
;	COMDAT ??1CTOMonthViewWeekDayHeader_Base@CXTPCalendarThemeOffice2007@@UAE@XZ
_TEXT	SEGMENT PARA USE32 PUBLIC 'CODE'
_TEXT	ENDS
;	COMDAT ??0CTOMonthViewWeekDayHeader@CXTPCalendarTheme@@QAE@XZ
_TEXT	SEGMENT PARA USE32 PUBLIC 'CODE'
_TEXT	ENDS
;	COMDAT ??1CTOMonthViewWeekDayHeader@CXTPCalendarTheme@@UAE@XZ
_TEXT	SEGMENT PARA USE32 PUBLIC 'CODE'
_TEXT	ENDS
;	COMDAT ??0CTOMonthViewWeekDayHeader_Base2@CXTPCalendarThemeOffice2007@@QAE@XZ
_TEXT	SEGMENT PARA USE32 PUBLIC 'CODE'
_TEXT	ENDS
;	COMDAT ??1CTOMonthViewWeekDayHeader_Base2@CXTPCalendarThemeOffice2007@@UAE@XZ
_TEXT	SEGMENT PARA USE32 PUBLIC 'CODE'
_TEXT	ENDS
;	COMDAT ??_GCTOMonthViewWeekHeader@CXTPCalendarThemeOffice2007@@UAEPAXI@Z
_TEXT	SEGMENT PARA USE32 PUBLIC 'CODE'
_TEXT	ENDS
;	COMDAT ??0CTOMonthViewWeekHeader_Base@CXTPCalendarThemeOffice2007@@QAE@XZ
_TEXT	SEGMENT PARA USE32 PUBLIC 'CODE'
_TEXT	ENDS
;	COMDAT ??1CTOMonthViewWeekHeader_Base@CXTPCalendarThemeOffice2007@@UAE@XZ
_TEXT	SEGMENT PARA USE32 PUBLIC 'CODE'
_TEXT	ENDS
;	COMDAT ??0CTOMonthViewEvent@CXTPCalendarThemeOffice2007@@QAE@XZ
_TEXT	SEGMENT PARA USE32 PUBLIC 'CODE'
_TEXT	ENDS
;	COMDAT ??0CTOMonthViewDay@CXTPCalendarThemeOffice2007@@QAE@XZ
_TEXT	SEGMENT PARA USE32 PUBLIC 'CODE'
_TEXT	ENDS
;	COMDAT ??0CTOWeekViewDayHeader@CXTPCalendarThemeOffice2007@@QAE@XZ
_TEXT	SEGMENT PARA USE32 PUBLIC 'CODE'
_TEXT	ENDS
;	COMDAT ??0CTOWeekViewEvent_MultiDay@CXTPCalendarThemeOffice2007@@QAE@XZ
_TEXT	SEGMENT PARA USE32 PUBLIC 'CODE'
_TEXT	ENDS
;	COMDAT ??0CTOWeekViewEvent_SingleDay@CXTPCalendarThemeOffice2007@@QAE@XZ
_TEXT	SEGMENT PARA USE32 PUBLIC 'CODE'
_TEXT	ENDS
;	COMDAT ??0CTOWeekViewEvent@CXTPCalendarThemeOffice2007@@QAE@XZ
_TEXT	SEGMENT PARA USE32 PUBLIC 'CODE'
_TEXT	ENDS
;	COMDAT ??0CTOWeekViewDay@CXTPCalendarThemeOffice2007@@QAE@XZ
_TEXT	SEGMENT PARA USE32 PUBLIC 'CODE'
_TEXT	ENDS
;	COMDAT ??0CTOEvent@CXTPCalendarThemeOffice2007@@QAE@XZ
_TEXT	SEGMENT PARA USE32 PUBLIC 'CODE'
_TEXT	ENDS
;	COMDAT ??0CTODayView@CXTPCalendarThemeOffice2007@@QAE@XZ
_TEXT	SEGMENT PARA USE32 PUBLIC 'CODE'
_TEXT	ENDS
;	COMDAT ??0CTOMonthView@CXTPCalendarThemeOffice2007@@QAE@XZ
_TEXT	SEGMENT PARA USE32 PUBLIC 'CODE'
_TEXT	ENDS
;	COMDAT ??0CTOWeekView@CXTPCalendarThemeOffice2007@@QAE@XZ
_TEXT	SEGMENT PARA USE32 PUBLIC 'CODE'
_TEXT	ENDS
;	COMDAT ??0CTOCellDynBackground@CXTPCalendarThemeOffice2007@@QAE@XZ
_TEXT	SEGMENT PARA USE32 PUBLIC 'CODE'
_TEXT	ENDS
;	COMDAT ??_DCTOPrevNextEventButton@CXTPCalendarThemeOffice2007@@QAEXXZ
_TEXT	SEGMENT PARA USE32 PUBLIC 'CODE'
_TEXT	ENDS
;	COMDAT ??_GCTOPrevNextEventButton_Base@CXTPCalendarThemeOffice2007@@UAEPAXI@Z
_TEXT	SEGMENT PARA USE32 PUBLIC 'CODE'
_TEXT	ENDS
;	COMDAT ??_GCTODayViewDayGroupHeader@CXTPCalendarThemeOffice2007@@UAEPAXI@Z
_TEXT	SEGMENT PARA USE32 PUBLIC 'CODE'
_TEXT	ENDS
;	COMDAT ??0CTODayViewDayGroupHeader_Base@CXTPCalendarThemeOffice2007@@QAE@XZ
_TEXT	SEGMENT PARA USE32 PUBLIC 'CODE'
_TEXT	ENDS
;	COMDAT ??1CTODayViewDayGroupHeader_Base@CXTPCalendarThemeOffice2007@@UAE@XZ
_TEXT	SEGMENT PARA USE32 PUBLIC 'CODE'
_TEXT	ENDS
;	COMDAT ??0CTODayViewDayGroupHeader@CXTPCalendarTheme@@QAE@XZ
_TEXT	SEGMENT PARA USE32 PUBLIC 'CODE'
_TEXT	ENDS
;	COMDAT ??1CTODayViewDayGroupHeader@CXTPCalendarTheme@@UAE@XZ
_TEXT	SEGMENT PARA USE32 PUBLIC 'CODE'
_TEXT	ENDS
;	COMDAT ??0CTODayViewDayGroupHeader_Base2@CXTPCalendarThemeOffice2007@@QAE@XZ
_TEXT	SEGMENT PARA USE32 PUBLIC 'CODE'
_TEXT	ENDS
;	COMDAT ??1CTODayViewDayGroupHeader_Base2@CXTPCalendarThemeOffice2007@@UAE@XZ
_TEXT	SEGMENT PARA USE32 PUBLIC 'CODE'
_TEXT	ENDS
;	COMDAT ??_GCTODayViewDayGroupAllDayEvents@CXTPCalendarThemeOffice2007@@UAEPAXI@Z
_TEXT	SEGMENT PARA USE32 PUBLIC 'CODE'
_TEXT	ENDS
;	COMDAT ??0CTODayViewDayGroupAllDayEvents@CXTPCalendarTheme@@QAE@XZ
_TEXT	SEGMENT PARA USE32 PUBLIC 'CODE'
_TEXT	ENDS
;	COMDAT ??1CTODayViewDayGroupAllDayEvents@CXTPCalendarTheme@@UAE@XZ
_TEXT	SEGMENT PARA USE32 PUBLIC 'CODE'
_TEXT	ENDS
;	COMDAT ??0CTODayViewDayGroupAllDayEvents_Base@CXTPCalendarThemeOffice2007@@QAE@XZ
_TEXT	SEGMENT PARA USE32 PUBLIC 'CODE'
_TEXT	ENDS
;	COMDAT ??1CTODayViewDayGroupAllDayEvents_Base@CXTPCalendarThemeOffice2007@@UAE@XZ
_TEXT	SEGMENT PARA USE32 PUBLIC 'CODE'
_TEXT	ENDS
;	COMDAT ??_GCTODayViewDayGroupCell@CXTPCalendarThemeOffice2007@@UAEPAXI@Z
_TEXT	SEGMENT PARA USE32 PUBLIC 'CODE'
_TEXT	ENDS
;	COMDAT ??0CTODayViewDayGroupCell@CXTPCalendarTheme@@QAE@XZ
_TEXT	SEGMENT PARA USE32 PUBLIC 'CODE'
_TEXT	ENDS
;	COMDAT ??1CTODayViewDayGroupCell@CXTPCalendarTheme@@UAE@XZ
_TEXT	SEGMENT PARA USE32 PUBLIC 'CODE'
_TEXT	ENDS
;	COMDAT ??0CTODayViewDayGroupCell_Base@CXTPCalendarThemeOffice2007@@QAE@XZ
_TEXT	SEGMENT PARA USE32 PUBLIC 'CODE'
_TEXT	ENDS
;	COMDAT ??1CTODayViewDayGroupCell_Base@CXTPCalendarThemeOffice2007@@UAE@XZ
_TEXT	SEGMENT PARA USE32 PUBLIC 'CODE'
_TEXT	ENDS
;	COMDAT ??_GCTODayViewEvent_MultiDay@CXTPCalendarThemeOffice2007@@UAEPAXI@Z
_TEXT	SEGMENT PARA USE32 PUBLIC 'CODE'
_TEXT	ENDS
;	COMDAT ??0CTOEvent@CXTPCalendarTheme@@QAE@XZ
_TEXT	SEGMENT PARA USE32 PUBLIC 'CODE'
_TEXT	ENDS
;	COMDAT ??1CTOEvent@CXTPCalendarTheme@@UAE@XZ
_TEXT	SEGMENT PARA USE32 PUBLIC 'CODE'
_TEXT	ENDS
;	COMDAT ??0CTOEvent_Base@CXTPCalendarThemeOffice2007@@QAE@XZ
_TEXT	SEGMENT PARA USE32 PUBLIC 'CODE'
_TEXT	ENDS
;	COMDAT ??1CTOEvent_Base@CXTPCalendarThemeOffice2007@@UAE@XZ
_TEXT	SEGMENT PARA USE32 PUBLIC 'CODE'
_TEXT	ENDS
;	COMDAT ??1CTOEvent@CXTPCalendarThemeOffice2007@@UAE@XZ
_TEXT	SEGMENT PARA USE32 PUBLIC 'CODE'
_TEXT	ENDS
;	COMDAT ??0CTODayViewEvent_Base@CXTPCalendarThemeOffice2007@@QAE@XZ
_TEXT	SEGMENT PARA USE32 PUBLIC 'CODE'
_TEXT	ENDS
;	COMDAT ??1CTODayViewEvent_Base@CXTPCalendarThemeOffice2007@@UAE@XZ
_TEXT	SEGMENT PARA USE32 PUBLIC 'CODE'
_TEXT	ENDS
;	COMDAT ??0CTODayViewEvent@CXTPCalendarTheme@@QAE@XZ
_TEXT	SEGMENT PARA USE32 PUBLIC 'CODE'
_TEXT	ENDS
;	COMDAT ??1CTODayViewEvent@CXTPCalendarTheme@@UAE@XZ
_TEXT	SEGMENT PARA USE32 PUBLIC 'CODE'
_TEXT	ENDS
;	COMDAT ??0CTODayViewEvent_Base2@CXTPCalendarThemeOffice2007@@QAE@XZ
_TEXT	SEGMENT PARA USE32 PUBLIC 'CODE'
_TEXT	ENDS
;	COMDAT ??1CTODayViewEvent_Base2@CXTPCalendarThemeOffice2007@@UAE@XZ
_TEXT	SEGMENT PARA USE32 PUBLIC 'CODE'
_TEXT	ENDS
;	COMDAT ??1CTODayViewEvent@CXTPCalendarThemeOffice2007@@UAE@XZ
_TEXT	SEGMENT PARA USE32 PUBLIC 'CODE'
_TEXT	ENDS
;	COMDAT ??0CTODayViewEvent_MultiDay_Base@CXTPCalendarThemeOffice2007@@QAE@XZ
_TEXT	SEGMENT PARA USE32 PUBLIC 'CODE'
_TEXT	ENDS
;	COMDAT ??1CTODayViewEvent_MultiDay_Base@CXTPCalendarThemeOffice2007@@UAE@XZ
_TEXT	SEGMENT PARA USE32 PUBLIC 'CODE'
_TEXT	ENDS
;	COMDAT ??0CTODayViewEvent_MultiDay@CXTPCalendarTheme@@QAE@XZ
_TEXT	SEGMENT PARA USE32 PUBLIC 'CODE'
_TEXT	ENDS
;	COMDAT ??1CTODayViewEvent_MultiDay@CXTPCalendarTheme@@UAE@XZ
_TEXT	SEGMENT PARA USE32 PUBLIC 'CODE'
_TEXT	ENDS
;	COMDAT ??0CTODayViewEvent_MultiDay_Base2@CXTPCalendarThemeOffice2007@@QAE@XZ
_TEXT	SEGMENT PARA USE32 PUBLIC 'CODE'
_TEXT	ENDS
;	COMDAT ??1CTODayViewEvent_MultiDay_Base2@CXTPCalendarThemeOffice2007@@UAE@XZ
_TEXT	SEGMENT PARA USE32 PUBLIC 'CODE'
_TEXT	ENDS
;	COMDAT ??_GCTODayViewEvent_SingleDay@CXTPCalendarThemeOffice2007@@UAEPAXI@Z
_TEXT	SEGMENT PARA USE32 PUBLIC 'CODE'
_TEXT	ENDS
;	COMDAT ??0CTODayViewEvent_SingleDay_Base@CXTPCalendarThemeOffice2007@@QAE@XZ
_TEXT	SEGMENT PARA USE32 PUBLIC 'CODE'
_TEXT	ENDS
;	COMDAT ??1CTODayViewEvent_SingleDay_Base@CXTPCalendarThemeOffice2007@@UAE@XZ
_TEXT	SEGMENT PARA USE32 PUBLIC 'CODE'
_TEXT	ENDS
;	COMDAT ??0CTODayViewEvent_SingleDay@CXTPCalendarTheme@@QAE@XZ
_TEXT	SEGMENT PARA USE32 PUBLIC 'CODE'
_TEXT	ENDS
;	COMDAT ??1CTODayViewEvent_SingleDay@CXTPCalendarTheme@@UAE@XZ
_TEXT	SEGMENT PARA USE32 PUBLIC 'CODE'
_TEXT	ENDS
;	COMDAT ??0CTODayViewEvent_SingleDay_Base2@CXTPCalendarThemeOffice2007@@QAE@XZ
_TEXT	SEGMENT PARA USE32 PUBLIC 'CODE'
_TEXT	ENDS
;	COMDAT ??1CTODayViewEvent_SingleDay_Base2@CXTPCalendarThemeOffice2007@@UAE@XZ
_TEXT	SEGMENT PARA USE32 PUBLIC 'CODE'
_TEXT	ENDS
;	COMDAT ??_DCTODayViewDayHeader@CXTPCalendarThemeOffice2007@@QAEXXZ
_TEXT	SEGMENT PARA USE32 PUBLIC 'CODE'
_TEXT	ENDS
;	COMDAT ??_GCTOHeader@CXTPCalendarTheme@@UAEPAXI@Z
_TEXT	SEGMENT PARA USE32 PUBLIC 'CODE'
_TEXT	ENDS
;	COMDAT ??0CHeaderBackground@CTOHeader@CXTPCalendarTheme@@QAE@XZ
_TEXT	SEGMENT PARA USE32 PUBLIC 'CODE'
_TEXT	ENDS
;	COMDAT ??1CHeaderBackground@CTOHeader@CXTPCalendarTheme@@QAE@XZ
_TEXT	SEGMENT PARA USE32 PUBLIC 'CODE'
_TEXT	ENDS
;	COMDAT ??0CHeaderText@CTOHeader@CXTPCalendarTheme@@QAE@XZ
_TEXT	SEGMENT PARA USE32 PUBLIC 'CODE'
_TEXT	ENDS
;	COMDAT ??1CHeaderText@CTOHeader@CXTPCalendarTheme@@QAE@XZ
_TEXT	SEGMENT PARA USE32 PUBLIC 'CODE'
_TEXT	ENDS
;	COMDAT ??_GCTOHeader_Base@CXTPCalendarThemeOffice2007@@UAEPAXI@Z
_TEXT	SEGMENT PARA USE32 PUBLIC 'CODE'
_TEXT	ENDS
;	COMDAT ??_GCTOHeader@CXTPCalendarThemeOffice2007@@UAEPAXI@Z
_TEXT	SEGMENT PARA USE32 PUBLIC 'CODE'
_TEXT	ENDS
;	COMDAT ??_GCTODayViewDayHeader_Base@CXTPCalendarThemeOffice2007@@UAEPAXI@Z
_TEXT	SEGMENT PARA USE32 PUBLIC 'CODE'
_TEXT	ENDS
;	COMDAT ??_GCTODayViewDayHeader@CXTPCalendarTheme@@UAEPAXI@Z
_TEXT	SEGMENT PARA USE32 PUBLIC 'CODE'
_TEXT	ENDS
;	COMDAT ??_GCTODayViewDayHeader_Base2@CXTPCalendarThemeOffice2007@@UAEPAXI@Z
_TEXT	SEGMENT PARA USE32 PUBLIC 'CODE'
_TEXT	ENDS
;	COMDAT ??_GCTODayViewDayGroup@CXTPCalendarThemeOffice2007@@UAEPAXI@Z
_TEXT	SEGMENT PARA USE32 PUBLIC 'CODE'
_TEXT	ENDS
;	COMDAT ??0CTODayViewDayGroup@CXTPCalendarTheme@@QAE@XZ
_TEXT	SEGMENT PARA USE32 PUBLIC 'CODE'
_TEXT	ENDS
;	COMDAT ??1CTODayViewDayGroup@CXTPCalendarTheme@@UAE@XZ
_TEXT	SEGMENT PARA USE32 PUBLIC 'CODE'
_TEXT	ENDS
;	COMDAT ??0CTODayViewDayGroup_Base@CXTPCalendarThemeOffice2007@@QAE@XZ
_TEXT	SEGMENT PARA USE32 PUBLIC 'CODE'
_TEXT	ENDS
;	COMDAT ??1CTODayViewDayGroup_Base@CXTPCalendarThemeOffice2007@@UAE@XZ
_TEXT	SEGMENT PARA USE32 PUBLIC 'CODE'
_TEXT	ENDS
;	COMDAT ??_GCTODayViewHeader@CXTPCalendarThemeOffice2007@@UAEPAXI@Z
_TEXT	SEGMENT PARA USE32 PUBLIC 'CODE'
_TEXT	ENDS
;	COMDAT ??0CTODayViewHeader_Base@CXTPCalendarThemeOffice2007@@QAE@XZ
_TEXT	SEGMENT PARA USE32 PUBLIC 'CODE'
_TEXT	ENDS
;	COMDAT ??1CTODayViewHeader_Base@CXTPCalendarThemeOffice2007@@UAE@XZ
_TEXT	SEGMENT PARA USE32 PUBLIC 'CODE'
_TEXT	ENDS
;	COMDAT ??_GCTODayViewEvent@CXTPCalendarThemeOffice2007@@UAEPAXI@Z
_TEXT	SEGMENT PARA USE32 PUBLIC 'CODE'
_TEXT	ENDS
;	COMDAT ??_GCTODayViewTimeScale@CXTPCalendarThemeOffice2007@@UAEPAXI@Z
_TEXT	SEGMENT PARA USE32 PUBLIC 'CODE'
_TEXT	ENDS
;	COMDAT ??0CTODayViewTimeScale_Base@CXTPCalendarThemeOffice2007@@QAE@XZ
_TEXT	SEGMENT PARA USE32 PUBLIC 'CODE'
_TEXT	ENDS
;	COMDAT ??1CTODayViewTimeScale_Base@CXTPCalendarThemeOffice2007@@UAE@XZ
_TEXT	SEGMENT PARA USE32 PUBLIC 'CODE'
_TEXT	ENDS
;	COMDAT ??_GCTODayViewDay@CXTPCalendarThemeOffice2007@@UAEPAXI@Z
_TEXT	SEGMENT PARA USE32 PUBLIC 'CODE'
_TEXT	ENDS
;	COMDAT ??0CTODayViewDay@CXTPCalendarTheme@@QAE@XZ
_TEXT	SEGMENT PARA USE32 PUBLIC 'CODE'
_TEXT	ENDS
;	COMDAT ??1CTODayViewDay@CXTPCalendarTheme@@UAE@XZ
_TEXT	SEGMENT PARA USE32 PUBLIC 'CODE'
_TEXT	ENDS
;	COMDAT ??0CTODayViewDay_Base@CXTPCalendarThemeOffice2007@@QAE@XZ
_TEXT	SEGMENT PARA USE32 PUBLIC 'CODE'
_TEXT	ENDS
;	COMDAT ??1CTODayViewDay_Base@CXTPCalendarThemeOffice2007@@UAE@XZ
_TEXT	SEGMENT PARA USE32 PUBLIC 'CODE'
_TEXT	ENDS
;	COMDAT ??_GCTOMonthViewDayHeader@CXTPCalendarThemeOffice2007@@UAEPAXI@Z
_TEXT	SEGMENT PARA USE32 PUBLIC 'CODE'
_TEXT	ENDS
;	COMDAT ??0CTOMonthViewDayHeader_Base@CXTPCalendarThemeOffice2007@@QAE@XZ
_TEXT	SEGMENT PARA USE32 PUBLIC 'CODE'
_TEXT	ENDS
;	COMDAT ??1CTOMonthViewDayHeader_Base@CXTPCalendarThemeOffice2007@@UAE@XZ
_TEXT	SEGMENT PARA USE32 PUBLIC 'CODE'
_TEXT	ENDS
;	COMDAT ??0CTOMonthViewDayHeader@CXTPCalendarTheme@@QAE@XZ
_TEXT	SEGMENT PARA USE32 PUBLIC 'CODE'
_TEXT	ENDS
;	COMDAT ??1CTOMonthViewDayHeader@CXTPCalendarTheme@@UAE@XZ
_TEXT	SEGMENT PARA USE32 PUBLIC 'CODE'
_TEXT	ENDS
;	COMDAT ??0CTOMonthViewDayHeader_Base2@CXTPCalendarThemeOffice2007@@QAE@XZ
_TEXT	SEGMENT PARA USE32 PUBLIC 'CODE'
_TEXT	ENDS
;	COMDAT ??1CTOMonthViewDayHeader_Base2@CXTPCalendarThemeOffice2007@@UAE@XZ
_TEXT	SEGMENT PARA USE32 PUBLIC 'CODE'
_TEXT	ENDS
;	COMDAT ??_GCTOMonthViewEvent_MultiDay@CXTPCalendarThemeOffice2007@@UAEPAXI@Z
_TEXT	SEGMENT PARA USE32 PUBLIC 'CODE'
_TEXT	ENDS
;	COMDAT ??0CTOMonthViewEvent_Base@CXTPCalendarThemeOffice2007@@QAE@XZ
_TEXT	SEGMENT PARA USE32 PUBLIC 'CODE'
_TEXT	ENDS
;	COMDAT ??1CTOMonthViewEvent_Base@CXTPCalendarThemeOffice2007@@UAE@XZ
_TEXT	SEGMENT PARA USE32 PUBLIC 'CODE'
_TEXT	ENDS
;	COMDAT ??0CTOMonthViewEvent@CXTPCalendarTheme@@QAE@XZ
_TEXT	SEGMENT PARA USE32 PUBLIC 'CODE'
_TEXT	ENDS
;	COMDAT ??1CTOMonthViewEvent@CXTPCalendarTheme@@UAE@XZ
_TEXT	SEGMENT PARA USE32 PUBLIC 'CODE'
_TEXT	ENDS
;	COMDAT ??0CTOMonthViewEvent_Base2@CXTPCalendarThemeOffice2007@@QAE@XZ
_TEXT	SEGMENT PARA USE32 PUBLIC 'CODE'
_TEXT	ENDS
;	COMDAT ??1CTOMonthViewEvent_Base2@CXTPCalendarThemeOffice2007@@UAE@XZ
_TEXT	SEGMENT PARA USE32 PUBLIC 'CODE'
_TEXT	ENDS
;	COMDAT ??1CTOMonthViewEvent@CXTPCalendarThemeOffice2007@@UAE@XZ
_TEXT	SEGMENT PARA USE32 PUBLIC 'CODE'
_TEXT	ENDS
;	COMDAT ??0CTOMonthViewEvent_MultiDay_Base@CXTPCalendarThemeOffice2007@@QAE@XZ
_TEXT	SEGMENT PARA USE32 PUBLIC 'CODE'
_TEXT	ENDS
;	COMDAT ??1CTOMonthViewEvent_MultiDay_Base@CXTPCalendarThemeOffice2007@@UAE@XZ
_TEXT	SEGMENT PARA USE32 PUBLIC 'CODE'
_TEXT	ENDS
;	COMDAT ??0CTOMonthViewEvent_MultiDay@CXTPCalendarTheme@@QAE@XZ
_TEXT	SEGMENT PARA USE32 PUBLIC 'CODE'
_TEXT	ENDS
;	COMDAT ??1CTOMonthViewEvent_MultiDay@CXTPCalendarTheme@@UAE@XZ
_TEXT	SEGMENT PARA USE32 PUBLIC 'CODE'
_TEXT	ENDS
;	COMDAT ??0CTOMonthViewEvent_MultiDay_Base2@CXTPCalendarThemeOffice2007@@QAE@XZ
_TEXT	SEGMENT PARA USE32 PUBLIC 'CODE'
_TEXT	ENDS
;	COMDAT ??1CTOMonthViewEvent_MultiDay_Base2@CXTPCalendarThemeOffice2007@@UAE@XZ
_TEXT	SEGMENT PARA USE32 PUBLIC 'CODE'
_TEXT	ENDS
;	COMDAT ??_GCTOMonthViewEvent_SingleDay@CXTPCalendarThemeOffice2007@@UAEPAXI@Z
_TEXT	SEGMENT PARA USE32 PUBLIC 'CODE'
_TEXT	ENDS
;	COMDAT ??0CTOMonthViewEvent_SingleDay_Base@CXTPCalendarThemeOffice2007@@QAE@XZ
_TEXT	SEGMENT PARA USE32 PUBLIC 'CODE'
_TEXT	ENDS
;	COMDAT ??1CTOMonthViewEvent_SingleDay_Base@CXTPCalendarThemeOffice2007@@UAE@XZ
_TEXT	SEGMENT PARA USE32 PUBLIC 'CODE'
_TEXT	ENDS
;	COMDAT ??0CTOMonthViewEvent_SingleDay@CXTPCalendarTheme@@QAE@XZ
_TEXT	SEGMENT PARA USE32 PUBLIC 'CODE'
_TEXT	ENDS
;	COMDAT ??1CTOMonthViewEvent_SingleDay@CXTPCalendarTheme@@UAE@XZ
_TEXT	SEGMENT PARA USE32 PUBLIC 'CODE'
_TEXT	ENDS
;	COMDAT ??0CTOMonthViewEvent_SingleDay_Base2@CXTPCalendarThemeOffice2007@@QAE@XZ
_TEXT	SEGMENT PARA USE32 PUBLIC 'CODE'
_TEXT	ENDS
;	COMDAT ??1CTOMonthViewEvent_SingleDay_Base2@CXTPCalendarThemeOffice2007@@UAE@XZ
_TEXT	SEGMENT PARA USE32 PUBLIC 'CODE'
_TEXT	ENDS
;	COMDAT ??_DCTOMonthViewWeekDayHeader@CXTPCalendarThemeOffice2007@@QAEXXZ
_TEXT	SEGMENT PARA USE32 PUBLIC 'CODE'
_TEXT	ENDS
;	COMDAT ??_GCTOMonthViewWeekDayHeader_Base@CXTPCalendarThemeOffice2007@@UAEPAXI@Z
_TEXT	SEGMENT PARA USE32 PUBLIC 'CODE'
_TEXT	ENDS
;	COMDAT ??_GCTOMonthViewWeekDayHeader@CXTPCalendarTheme@@UAEPAXI@Z
_TEXT	SEGMENT PARA USE32 PUBLIC 'CODE'
_TEXT	ENDS
;	COMDAT ??_GCTOMonthViewWeekDayHeader_Base2@CXTPCalendarThemeOffice2007@@UAEPAXI@Z
_TEXT	SEGMENT PARA USE32 PUBLIC 'CODE'
_TEXT	ENDS
;	COMDAT ??_DCTOMonthViewWeekHeader@CXTPCalendarThemeOffice2007@@QAEXXZ
_TEXT	SEGMENT PARA USE32 PUBLIC 'CODE'
_TEXT	ENDS
;	COMDAT ??_GCTOMonthViewWeekHeader_Base@CXTPCalendarThemeOffice2007@@UAEPAXI@Z
_TEXT	SEGMENT PARA USE32 PUBLIC 'CODE'
_TEXT	ENDS
;	COMDAT ??_GCTOMonthViewEvent@CXTPCalendarThemeOffice2007@@UAEPAXI@Z
_TEXT	SEGMENT PARA USE32 PUBLIC 'CODE'
_TEXT	ENDS
;	COMDAT ??_GCTOMonthViewDay@CXTPCalendarThemeOffice2007@@UAEPAXI@Z
_TEXT	SEGMENT PARA USE32 PUBLIC 'CODE'
_TEXT	ENDS
;	COMDAT ??0CTODay@CXTPCalendarTheme@@QAE@XZ
_TEXT	SEGMENT PARA USE32 PUBLIC 'CODE'
_TEXT	ENDS
;	COMDAT ??1CTODay@CXTPCalendarTheme@@UAE@XZ
_TEXT	SEGMENT PARA USE32 PUBLIC 'CODE'
_TEXT	ENDS
;	COMDAT ??0CTODay_Base@CXTPCalendarThemeOffice2007@@QAE@XZ
_TEXT	SEGMENT PARA USE32 PUBLIC 'CODE'
_TEXT	ENDS
;	COMDAT ??1CTODay_Base@CXTPCalendarThemeOffice2007@@UAE@XZ
_TEXT	SEGMENT PARA USE32 PUBLIC 'CODE'
_TEXT	ENDS
;	COMDAT ??0CTODay@CXTPCalendarThemeOffice2007@@QAE@XZ
_TEXT	SEGMENT PARA USE32 PUBLIC 'CODE'
_TEXT	ENDS
;	COMDAT ??1CTODay@CXTPCalendarThemeOffice2007@@UAE@XZ
_TEXT	SEGMENT PARA USE32 PUBLIC 'CODE'
_TEXT	ENDS
;	COMDAT ??0CTOMonthViewDay_Base@CXTPCalendarThemeOffice2007@@QAE@XZ
_TEXT	SEGMENT PARA USE32 PUBLIC 'CODE'
_TEXT	ENDS
;	COMDAT ??1CTOMonthViewDay_Base@CXTPCalendarThemeOffice2007@@UAE@XZ
_TEXT	SEGMENT PARA USE32 PUBLIC 'CODE'
_TEXT	ENDS
;	COMDAT ??0CTOMonthViewDay@CXTPCalendarTheme@@QAE@XZ
_TEXT	SEGMENT PARA USE32 PUBLIC 'CODE'
_TEXT	ENDS
;	COMDAT ??1CTOMonthViewDay@CXTPCalendarTheme@@UAE@XZ
_TEXT	SEGMENT PARA USE32 PUBLIC 'CODE'
_TEXT	ENDS
;	COMDAT ??0CTOMonthViewDay_Base2@CXTPCalendarThemeOffice2007@@QAE@XZ
_TEXT	SEGMENT PARA USE32 PUBLIC 'CODE'
_TEXT	ENDS
;	COMDAT ??1CTOMonthViewDay_Base2@CXTPCalendarThemeOffice2007@@UAE@XZ
_TEXT	SEGMENT PARA USE32 PUBLIC 'CODE'
_TEXT	ENDS
;	COMDAT ??_GCTOWeekViewDayHeader@CXTPCalendarThemeOffice2007@@UAEPAXI@Z
_TEXT	SEGMENT PARA USE32 PUBLIC 'CODE'
_TEXT	ENDS
;	COMDAT ??0CTOWeekViewDayHeader_Base@CXTPCalendarThemeOffice2007@@QAE@XZ
_TEXT	SEGMENT PARA USE32 PUBLIC 'CODE'
_TEXT	ENDS
;	COMDAT ??1CTOWeekViewDayHeader_Base@CXTPCalendarThemeOffice2007@@UAE@XZ
_TEXT	SEGMENT PARA USE32 PUBLIC 'CODE'
_TEXT	ENDS
;	COMDAT ??0CTOWeekViewDayHeader@CXTPCalendarTheme@@QAE@XZ
_TEXT	SEGMENT PARA USE32 PUBLIC 'CODE'
_TEXT	ENDS
;	COMDAT ??1CTOWeekViewDayHeader@CXTPCalendarTheme@@UAE@XZ
_TEXT	SEGMENT PARA USE32 PUBLIC 'CODE'
_TEXT	ENDS
;	COMDAT ??0CTOWeekViewDayHeader_Base2@CXTPCalendarThemeOffice2007@@QAE@XZ
_TEXT	SEGMENT PARA USE32 PUBLIC 'CODE'
_TEXT	ENDS
;	COMDAT ??1CTOWeekViewDayHeader_Base2@CXTPCalendarThemeOffice2007@@UAE@XZ
_TEXT	SEGMENT PARA USE32 PUBLIC 'CODE'
_TEXT	ENDS
;	COMDAT ??_GCTOWeekViewEvent_MultiDay@CXTPCalendarThemeOffice2007@@UAEPAXI@Z
_TEXT	SEGMENT PARA USE32 PUBLIC 'CODE'
_TEXT	ENDS
;	COMDAT ??0CTOWeekViewEvent_Base@CXTPCalendarThemeOffice2007@@QAE@XZ
_TEXT	SEGMENT PARA USE32 PUBLIC 'CODE'
_TEXT	ENDS
;	COMDAT ??1CTOWeekViewEvent_Base@CXTPCalendarThemeOffice2007@@UAE@XZ
_TEXT	SEGMENT PARA USE32 PUBLIC 'CODE'
_TEXT	ENDS
;	COMDAT ??0CTOWeekViewEvent@CXTPCalendarTheme@@QAE@XZ
_TEXT	SEGMENT PARA USE32 PUBLIC 'CODE'
_TEXT	ENDS
;	COMDAT ??1CTOWeekViewEvent@CXTPCalendarTheme@@UAE@XZ
_TEXT	SEGMENT PARA USE32 PUBLIC 'CODE'
_TEXT	ENDS
;	COMDAT ??0CTOWeekViewEvent_Base2@CXTPCalendarThemeOffice2007@@QAE@XZ
_TEXT	SEGMENT PARA USE32 PUBLIC 'CODE'
_TEXT	ENDS
;	COMDAT ??1CTOWeekViewEvent_Base2@CXTPCalendarThemeOffice2007@@UAE@XZ
_TEXT	SEGMENT PARA USE32 PUBLIC 'CODE'
_TEXT	ENDS
;	COMDAT ??1CTOWeekViewEvent@CXTPCalendarThemeOffice2007@@UAE@XZ
_TEXT	SEGMENT PARA USE32 PUBLIC 'CODE'
_TEXT	ENDS
;	COMDAT ??0CTOWeekViewEvent_MultiDay_Base@CXTPCalendarThemeOffice2007@@QAE@XZ
_TEXT	SEGMENT PARA USE32 PUBLIC 'CODE'
_TEXT	ENDS
;	COMDAT ??1CTOWeekViewEvent_MultiDay_Base@CXTPCalendarThemeOffice2007@@UAE@XZ
_TEXT	SEGMENT PARA USE32 PUBLIC 'CODE'
_TEXT	ENDS
;	COMDAT ??0CTOWeekViewEvent_MultiDay@CXTPCalendarTheme@@QAE@XZ
_TEXT	SEGMENT PARA USE32 PUBLIC 'CODE'
_TEXT	ENDS
;	COMDAT ??1CTOWeekViewEvent_MultiDay@CXTPCalendarTheme@@UAE@XZ
_TEXT	SEGMENT PARA USE32 PUBLIC 'CODE'
_TEXT	ENDS
;	COMDAT ??0CTOWeekViewEvent_MultiDay_Base2@CXTPCalendarThemeOffice2007@@QAE@XZ
_TEXT	SEGMENT PARA USE32 PUBLIC 'CODE'
_TEXT	ENDS
;	COMDAT ??1CTOWeekViewEvent_MultiDay_Base2@CXTPCalendarThemeOffice2007@@UAE@XZ
_TEXT	SEGMENT PARA USE32 PUBLIC 'CODE'
_TEXT	ENDS
;	COMDAT ??_GCTOWeekViewEvent_SingleDay@CXTPCalendarThemeOffice2007@@UAEPAXI@Z
_TEXT	SEGMENT PARA USE32 PUBLIC 'CODE'
_TEXT	ENDS
;	COMDAT ??0CTOWeekViewEvent_SingleDay_Base@CXTPCalendarThemeOffice2007@@QAE@XZ
_TEXT	SEGMENT PARA USE32 PUBLIC 'CODE'
_TEXT	ENDS
;	COMDAT ??1CTOWeekViewEvent_SingleDay_Base@CXTPCalendarThemeOffice2007@@UAE@XZ
_TEXT	SEGMENT PARA USE32 PUBLIC 'CODE'
_TEXT	ENDS
;	COMDAT ??0CTOWeekViewEvent_SingleDay@CXTPCalendarTheme@@QAE@XZ
_TEXT	SEGMENT PARA USE32 PUBLIC 'CODE'
_TEXT	ENDS
;	COMDAT ??1CTOWeekViewEvent_SingleDay@CXTPCalendarTheme@@UAE@XZ
_TEXT	SEGMENT PARA USE32 PUBLIC 'CODE'
_TEXT	ENDS
;	COMDAT ??0CTOWeekViewEvent_SingleDay_Base2@CXTPCalendarThemeOffice2007@@QAE@XZ
_TEXT	SEGMENT PARA USE32 PUBLIC 'CODE'
_TEXT	ENDS
;	COMDAT ??1CTOWeekViewEvent_SingleDay_Base2@CXTPCalendarThemeOffice2007@@UAE@XZ
_TEXT	SEGMENT PARA USE32 PUBLIC 'CODE'
_TEXT	ENDS
;	COMDAT ??_GCTOWeekViewEvent@CXTPCalendarThemeOffice2007@@UAEPAXI@Z
_TEXT	SEGMENT PARA USE32 PUBLIC 'CODE'
_TEXT	ENDS
;	COMDAT ??_GCTOWeekViewDay@CXTPCalendarThemeOffice2007@@UAEPAXI@Z
_TEXT	SEGMENT PARA USE32 PUBLIC 'CODE'
_TEXT	ENDS
;	COMDAT ??0CTOWeekViewDay_Base@CXTPCalendarThemeOffice2007@@QAE@XZ
_TEXT	SEGMENT PARA USE32 PUBLIC 'CODE'
_TEXT	ENDS
;	COMDAT ??1CTOWeekViewDay_Base@CXTPCalendarThemeOffice2007@@UAE@XZ
_TEXT	SEGMENT PARA USE32 PUBLIC 'CODE'
_TEXT	ENDS
;	COMDAT ??0CTOWeekViewDay@CXTPCalendarTheme@@QAE@XZ
_TEXT	SEGMENT PARA USE32 PUBLIC 'CODE'
_TEXT	ENDS
;	COMDAT ??1CTOWeekViewDay@CXTPCalendarTheme@@UAE@XZ
_TEXT	SEGMENT PARA USE32 PUBLIC 'CODE'
_TEXT	ENDS
;	COMDAT ??0CTOWeekViewDay_Base2@CXTPCalendarThemeOffice2007@@QAE@XZ
_TEXT	SEGMENT PARA USE32 PUBLIC 'CODE'
_TEXT	ENDS
;	COMDAT ??1CTOWeekViewDay_Base2@CXTPCalendarThemeOffice2007@@UAE@XZ
_TEXT	SEGMENT PARA USE32 PUBLIC 'CODE'
_TEXT	ENDS
;	COMDAT ??_GCTOEvent@CXTPCalendarThemeOffice2007@@UAEPAXI@Z
_TEXT	SEGMENT PARA USE32 PUBLIC 'CODE'
_TEXT	ENDS
;	COMDAT ??0CEventFontsColorsSet@CTOEvent@CXTPCalendarThemeOffice2007@@QAE@XZ
_TEXT	SEGMENT PARA USE32 PUBLIC 'CODE'
_TEXT	ENDS
;	COMDAT ??1CEventFontsColorsSet@CTOEvent@CXTPCalendarThemeOffice2007@@QAE@XZ
_TEXT	SEGMENT PARA USE32 PUBLIC 'CODE'
_TEXT	ENDS
;	COMDAT ??_GCTODayView@CXTPCalendarThemeOffice2007@@UAEPAXI@Z
_TEXT	SEGMENT PARA USE32 PUBLIC 'CODE'
_TEXT	ENDS
;	COMDAT ??0CTODayView@CXTPCalendarTheme@@QAE@XZ
_TEXT	SEGMENT PARA USE32 PUBLIC 'CODE'
_TEXT	ENDS
;	COMDAT ??1CTODayView@CXTPCalendarTheme@@UAE@XZ
_TEXT	SEGMENT PARA USE32 PUBLIC 'CODE'
_TEXT	ENDS
;	COMDAT ??0CTODayView_Base@CXTPCalendarThemeOffice2007@@QAE@XZ
_TEXT	SEGMENT PARA USE32 PUBLIC 'CODE'
_TEXT	ENDS
;	COMDAT ??1CTODayView_Base@CXTPCalendarThemeOffice2007@@UAE@XZ
_TEXT	SEGMENT PARA USE32 PUBLIC 'CODE'
_TEXT	ENDS
;	COMDAT ??_GCTOMonthView@CXTPCalendarThemeOffice2007@@UAEPAXI@Z
_TEXT	SEGMENT PARA USE32 PUBLIC 'CODE'
_TEXT	ENDS
;	COMDAT ??0CTOMonthView@CXTPCalendarTheme@@QAE@XZ
_TEXT	SEGMENT PARA USE32 PUBLIC 'CODE'
_TEXT	ENDS
;	COMDAT ??1CTOMonthView@CXTPCalendarTheme@@UAE@XZ
_TEXT	SEGMENT PARA USE32 PUBLIC 'CODE'
_TEXT	ENDS
;	COMDAT ??0CTOMonthView_Base@CXTPCalendarThemeOffice2007@@QAE@XZ
_TEXT	SEGMENT PARA USE32 PUBLIC 'CODE'
_TEXT	ENDS
;	COMDAT ??1CTOMonthView_Base@CXTPCalendarThemeOffice2007@@UAE@XZ
_TEXT	SEGMENT PARA USE32 PUBLIC 'CODE'
_TEXT	ENDS
;	COMDAT ??_GCTOWeekView@CXTPCalendarThemeOffice2007@@UAEPAXI@Z
_TEXT	SEGMENT PARA USE32 PUBLIC 'CODE'
_TEXT	ENDS
;	COMDAT ??0CTOWeekView@CXTPCalendarTheme@@QAE@XZ
_TEXT	SEGMENT PARA USE32 PUBLIC 'CODE'
_TEXT	ENDS
;	COMDAT ??1CTOWeekView@CXTPCalendarTheme@@UAE@XZ
_TEXT	SEGMENT PARA USE32 PUBLIC 'CODE'
_TEXT	ENDS
;	COMDAT ??0CTOWeekView_Base@CXTPCalendarThemeOffice2007@@QAE@XZ
_TEXT	SEGMENT PARA USE32 PUBLIC 'CODE'
_TEXT	ENDS
;	COMDAT ??1CTOWeekView_Base@CXTPCalendarThemeOffice2007@@UAE@XZ
_TEXT	SEGMENT PARA USE32 PUBLIC 'CODE'
_TEXT	ENDS
;	COMDAT ??_GCTOCellDynBackground@CXTPCalendarThemeOffice2007@@UAEPAXI@Z
_TEXT	SEGMENT PARA USE32 PUBLIC 'CODE'
_TEXT	ENDS
;	COMDAT ??0CTOCellDynBackground_Base@CXTPCalendarThemeOffice2007@@QAE@XZ
_TEXT	SEGMENT PARA USE32 PUBLIC 'CODE'
_TEXT	ENDS
;	COMDAT ??1CTOCellDynBackground_Base@CXTPCalendarThemeOffice2007@@UAE@XZ
_TEXT	SEGMENT PARA USE32 PUBLIC 'CODE'
_TEXT	ENDS
;	COMDAT ??1CTOPrevNextEventButton@CXTPCalendarThemeOffice2007@@UAE@XZ
_TEXT	SEGMENT PARA USE32 PUBLIC 'CODE'
_TEXT	ENDS
;	COMDAT ??_DCTOPrevNextEventButton_Base@CXTPCalendarThemeOffice2007@@QAEXXZ
_TEXT	SEGMENT PARA USE32 PUBLIC 'CODE'
_TEXT	ENDS
;	COMDAT ??_DCTODayViewDayGroupHeader@CXTPCalendarThemeOffice2007@@QAEXXZ
_TEXT	SEGMENT PARA USE32 PUBLIC 'CODE'
_TEXT	ENDS
;	COMDAT ??_GCTODayViewDayGroupHeader_Base@CXTPCalendarThemeOffice2007@@UAEPAXI@Z
_TEXT	SEGMENT PARA USE32 PUBLIC 'CODE'
_TEXT	ENDS
;	COMDAT ??_GCTODayViewDayGroupHeader@CXTPCalendarTheme@@UAEPAXI@Z
_TEXT	SEGMENT PARA USE32 PUBLIC 'CODE'
_TEXT	ENDS
;	COMDAT ??_GCTODayViewDayGroupHeader_Base2@CXTPCalendarThemeOffice2007@@UAEPAXI@Z
_TEXT	SEGMENT PARA USE32 PUBLIC 'CODE'
_TEXT	ENDS
;	COMDAT ??_DCTODayViewDayGroupAllDayEvents@CXTPCalendarThemeOffice2007@@QAEXXZ
_TEXT	SEGMENT PARA USE32 PUBLIC 'CODE'
_TEXT	ENDS
;	COMDAT ??_GCTODayViewDayGroupAllDayEvents@CXTPCalendarTheme@@UAEPAXI@Z
_TEXT	SEGMENT PARA USE32 PUBLIC 'CODE'
_TEXT	ENDS
;	COMDAT ??_GCTODayViewDayGroupAllDayEvents_Base@CXTPCalendarThemeOffice2007@@UAEPAXI@Z
_TEXT	SEGMENT PARA USE32 PUBLIC 'CODE'
_TEXT	ENDS
;	COMDAT ??_DCTODayViewDayGroupCell@CXTPCalendarThemeOffice2007@@QAEXXZ
_TEXT	SEGMENT PARA USE32 PUBLIC 'CODE'
_TEXT	ENDS
;	COMDAT ??_GCTODayViewDayGroupCell@CXTPCalendarTheme@@UAEPAXI@Z
_TEXT	SEGMENT PARA USE32 PUBLIC 'CODE'
_TEXT	ENDS
;	COMDAT ??0XTP_GROUP_CELL_COLOR_SET@CTODayViewDayGroupCell@CXTPCalendarTheme@@QAE@XZ
_TEXT	SEGMENT PARA USE32 PUBLIC 'CODE'
_TEXT	ENDS
;	COMDAT ??_GCTODayViewDayGroupCell_Base@CXTPCalendarThemeOffice2007@@UAEPAXI@Z
_TEXT	SEGMENT PARA USE32 PUBLIC 'CODE'
_TEXT	ENDS
;	COMDAT ??_DCTODayViewEvent_MultiDay@CXTPCalendarThemeOffice2007@@QAEXXZ
_TEXT	SEGMENT PARA USE32 PUBLIC 'CODE'
_TEXT	ENDS
;	COMDAT ??_GCTOEvent@CXTPCalendarTheme@@UAEPAXI@Z
_TEXT	SEGMENT PARA USE32 PUBLIC 'CODE'
_TEXT	ENDS
;	COMDAT ??_GCTOEvent_Base@CXTPCalendarThemeOffice2007@@UAEPAXI@Z
_TEXT	SEGMENT PARA USE32 PUBLIC 'CODE'
_TEXT	ENDS
;	COMDAT ??_GCTODayViewEvent_Base@CXTPCalendarThemeOffice2007@@UAEPAXI@Z
_TEXT	SEGMENT PARA USE32 PUBLIC 'CODE'
_TEXT	ENDS
;	COMDAT ??_GCTODayViewEvent@CXTPCalendarTheme@@UAEPAXI@Z
_TEXT	SEGMENT PARA USE32 PUBLIC 'CODE'
_TEXT	ENDS
;	COMDAT ??_GCTODayViewEvent_Base2@CXTPCalendarThemeOffice2007@@UAEPAXI@Z
_TEXT	SEGMENT PARA USE32 PUBLIC 'CODE'
_TEXT	ENDS
;	COMDAT ??_GCTODayViewEvent_MultiDay_Base@CXTPCalendarThemeOffice2007@@UAEPAXI@Z
_TEXT	SEGMENT PARA USE32 PUBLIC 'CODE'
_TEXT	ENDS
;	COMDAT ??_GCTODayViewEvent_MultiDay@CXTPCalendarTheme@@UAEPAXI@Z
_TEXT	SEGMENT PARA USE32 PUBLIC 'CODE'
_TEXT	ENDS
;	COMDAT ??_GCTODayViewEvent_MultiDay_Base2@CXTPCalendarThemeOffice2007@@UAEPAXI@Z
_TEXT	SEGMENT PARA USE32 PUBLIC 'CODE'
_TEXT	ENDS
;	COMDAT ??_DCTODayViewEvent_SingleDay@CXTPCalendarThemeOffice2007@@QAEXXZ
_TEXT	SEGMENT PARA USE32 PUBLIC 'CODE'
_TEXT	ENDS
;	COMDAT ??_GCTODayViewEvent_SingleDay_Base@CXTPCalendarThemeOffice2007@@UAEPAXI@Z
_TEXT	SEGMENT PARA USE32 PUBLIC 'CODE'
_TEXT	ENDS
;	COMDAT ??_GCTODayViewEvent_SingleDay@CXTPCalendarTheme@@UAEPAXI@Z
_TEXT	SEGMENT PARA USE32 PUBLIC 'CODE'
_TEXT	ENDS
;	COMDAT ??0?$CXTPCalendarTypedPtrAutoDeleteMap@HPAVCXTPCalendarViewPartBrushValue@@@@QAE@XZ
_TEXT	SEGMENT PARA USE32 PUBLIC 'CODE'
_TEXT	ENDS
;	COMDAT ??_GCTODayViewEvent_SingleDay_Base2@CXTPCalendarThemeOffice2007@@UAEPAXI@Z
_TEXT	SEGMENT PARA USE32 PUBLIC 'CODE'
_TEXT	ENDS
;	COMDAT ??1CTODayViewDayHeader@CXTPCalendarThemeOffice2007@@UAE@XZ
_TEXT	SEGMENT PARA USE32 PUBLIC 'CODE'
_TEXT	ENDS
;	COMDAT ??_DCTOHeader@CXTPCalendarTheme@@QAEXXZ
_TEXT	SEGMENT PARA USE32 PUBLIC 'CODE'
_TEXT	ENDS
;	COMDAT ??_DCTOHeader_Base@CXTPCalendarThemeOffice2007@@QAEXXZ
_TEXT	SEGMENT PARA USE32 PUBLIC 'CODE'
_TEXT	ENDS
;	COMDAT ??_DCTOHeader@CXTPCalendarThemeOffice2007@@QAEXXZ
_TEXT	SEGMENT PARA USE32 PUBLIC 'CODE'
_TEXT	ENDS
;	COMDAT ??_DCTODayViewDayHeader_Base@CXTPCalendarThemeOffice2007@@QAEXXZ
_TEXT	SEGMENT PARA USE32 PUBLIC 'CODE'
_TEXT	ENDS
;	COMDAT ??_DCTODayViewDayHeader@CXTPCalendarTheme@@QAEXXZ
_TEXT	SEGMENT PARA USE32 PUBLIC 'CODE'
_TEXT	ENDS
;	COMDAT ??_DCTODayViewDayHeader_Base2@CXTPCalendarThemeOffice2007@@QAEXXZ
_TEXT	SEGMENT PARA USE32 PUBLIC 'CODE'
_TEXT	ENDS
;	COMDAT ??_DCTODayViewDayGroup@CXTPCalendarThemeOffice2007@@QAEXXZ
_TEXT	SEGMENT PARA USE32 PUBLIC 'CODE'
_TEXT	ENDS
;	COMDAT ??_GCTODayViewDayGroup@CXTPCalendarTheme@@UAEPAXI@Z
_TEXT	SEGMENT PARA USE32 PUBLIC 'CODE'
_TEXT	ENDS
;	COMDAT ??_GCTODayViewDayGroup_Base@CXTPCalendarThemeOffice2007@@UAEPAXI@Z
_TEXT	SEGMENT PARA USE32 PUBLIC 'CODE'
_TEXT	ENDS
;	COMDAT ??_DCTODayViewHeader@CXTPCalendarThemeOffice2007@@QAEXXZ
_TEXT	SEGMENT PARA USE32 PUBLIC 'CODE'
_TEXT	ENDS
;	COMDAT ??_GCTODayViewHeader_Base@CXTPCalendarThemeOffice2007@@UAEPAXI@Z
_TEXT	SEGMENT PARA USE32 PUBLIC 'CODE'
_TEXT	ENDS
;	COMDAT ??_DCTODayViewEvent@CXTPCalendarThemeOffice2007@@QAEXXZ
_TEXT	SEGMENT PARA USE32 PUBLIC 'CODE'
_TEXT	ENDS
;	COMDAT ??_DCTODayViewTimeScale@CXTPCalendarThemeOffice2007@@QAEXXZ
_TEXT	SEGMENT PARA USE32 PUBLIC 'CODE'
_TEXT	ENDS
;	COMDAT ??_GCTODayViewTimeScale_Base@CXTPCalendarThemeOffice2007@@UAEPAXI@Z
_TEXT	SEGMENT PARA USE32 PUBLIC 'CODE'
_TEXT	ENDS
;	COMDAT ??_DCTODayViewDay@CXTPCalendarThemeOffice2007@@QAEXXZ
_TEXT	SEGMENT PARA USE32 PUBLIC 'CODE'
_TEXT	ENDS
;	COMDAT ??_GCTODayViewDay@CXTPCalendarTheme@@UAEPAXI@Z
_TEXT	SEGMENT PARA USE32 PUBLIC 'CODE'
_TEXT	ENDS
;	COMDAT ??_GCTODayViewDay_Base@CXTPCalendarThemeOffice2007@@UAEPAXI@Z
_TEXT	SEGMENT PARA USE32 PUBLIC 'CODE'
_TEXT	ENDS
;	COMDAT ??_DCTOMonthViewDayHeader@CXTPCalendarThemeOffice2007@@QAEXXZ
_TEXT	SEGMENT PARA USE32 PUBLIC 'CODE'
_TEXT	ENDS
;	COMDAT ??_GCTOMonthViewDayHeader_Base@CXTPCalendarThemeOffice2007@@UAEPAXI@Z
_TEXT	SEGMENT PARA USE32 PUBLIC 'CODE'
_TEXT	ENDS
;	COMDAT ??_GCTOMonthViewDayHeader@CXTPCalendarTheme@@UAEPAXI@Z
_TEXT	SEGMENT PARA USE32 PUBLIC 'CODE'
_TEXT	ENDS
;	COMDAT ??_GCTOMonthViewDayHeader_Base2@CXTPCalendarThemeOffice2007@@UAEPAXI@Z
_TEXT	SEGMENT PARA USE32 PUBLIC 'CODE'
_TEXT	ENDS
;	COMDAT ??_DCTOMonthViewEvent_MultiDay@CXTPCalendarThemeOffice2007@@QAEXXZ
_TEXT	SEGMENT PARA USE32 PUBLIC 'CODE'
_TEXT	ENDS
;	COMDAT ??_GCTOMonthViewEvent_Base@CXTPCalendarThemeOffice2007@@UAEPAXI@Z
_TEXT	SEGMENT PARA USE32 PUBLIC 'CODE'
_TEXT	ENDS
;	COMDAT ??_GCTOMonthViewEvent@CXTPCalendarTheme@@UAEPAXI@Z
_TEXT	SEGMENT PARA USE32 PUBLIC 'CODE'
_TEXT	ENDS
;	COMDAT ??_GCTOMonthViewEvent_Base2@CXTPCalendarThemeOffice2007@@UAEPAXI@Z
_TEXT	SEGMENT PARA USE32 PUBLIC 'CODE'
_TEXT	ENDS
;	COMDAT ??_GCTOMonthViewEvent_MultiDay_Base@CXTPCalendarThemeOffice2007@@UAEPAXI@Z
_TEXT	SEGMENT PARA USE32 PUBLIC 'CODE'
_TEXT	ENDS
;	COMDAT ??_GCTOMonthViewEvent_MultiDay@CXTPCalendarTheme@@UAEPAXI@Z
_TEXT	SEGMENT PARA USE32 PUBLIC 'CODE'
_TEXT	ENDS
;	COMDAT ??_GCTOMonthViewEvent_MultiDay_Base2@CXTPCalendarThemeOffice2007@@UAEPAXI@Z
_TEXT	SEGMENT PARA USE32 PUBLIC 'CODE'
_TEXT	ENDS
;	COMDAT ??_DCTOMonthViewEvent_SingleDay@CXTPCalendarThemeOffice2007@@QAEXXZ
_TEXT	SEGMENT PARA USE32 PUBLIC 'CODE'
_TEXT	ENDS
;	COMDAT ??_GCTOMonthViewEvent_SingleDay_Base@CXTPCalendarThemeOffice2007@@UAEPAXI@Z
_TEXT	SEGMENT PARA USE32 PUBLIC 'CODE'
_TEXT	ENDS
;	COMDAT ??_GCTOMonthViewEvent_SingleDay@CXTPCalendarTheme@@UAEPAXI@Z
_TEXT	SEGMENT PARA USE32 PUBLIC 'CODE'
_TEXT	ENDS
;	COMDAT ??_GCTOMonthViewEvent_SingleDay_Base2@CXTPCalendarThemeOffice2007@@UAEPAXI@Z
_TEXT	SEGMENT PARA USE32 PUBLIC 'CODE'
_TEXT	ENDS
;	COMDAT ??1CTOMonthViewWeekDayHeader@CXTPCalendarThemeOffice2007@@UAE@XZ
_TEXT	SEGMENT PARA USE32 PUBLIC 'CODE'
_TEXT	ENDS
;	COMDAT ??_DCTOMonthViewWeekDayHeader_Base@CXTPCalendarThemeOffice2007@@QAEXXZ
_TEXT	SEGMENT PARA USE32 PUBLIC 'CODE'
_TEXT	ENDS
;	COMDAT ??_DCTOMonthViewWeekDayHeader@CXTPCalendarTheme@@QAEXXZ
_TEXT	SEGMENT PARA USE32 PUBLIC 'CODE'
_TEXT	ENDS
;	COMDAT ??_DCTOMonthViewWeekDayHeader_Base2@CXTPCalendarThemeOffice2007@@QAEXXZ
_TEXT	SEGMENT PARA USE32 PUBLIC 'CODE'
_TEXT	ENDS
;	COMDAT ??1CTOMonthViewWeekHeader@CXTPCalendarThemeOffice2007@@UAE@XZ
_TEXT	SEGMENT PARA USE32 PUBLIC 'CODE'
_TEXT	ENDS
;	COMDAT ??_DCTOMonthViewWeekHeader_Base@CXTPCalendarThemeOffice2007@@QAEXXZ
_TEXT	SEGMENT PARA USE32 PUBLIC 'CODE'
_TEXT	ENDS
;	COMDAT ??_DCTOMonthViewEvent@CXTPCalendarThemeOffice2007@@QAEXXZ
_TEXT	SEGMENT PARA USE32 PUBLIC 'CODE'
_TEXT	ENDS
;	COMDAT ??_DCTOMonthViewDay@CXTPCalendarThemeOffice2007@@QAEXXZ
_TEXT	SEGMENT PARA USE32 PUBLIC 'CODE'
_TEXT	ENDS
;	COMDAT ??_GCTODay@CXTPCalendarTheme@@UAEPAXI@Z
_TEXT	SEGMENT PARA USE32 PUBLIC 'CODE'
_TEXT	ENDS
;	COMDAT ??_GCTODay_Base@CXTPCalendarThemeOffice2007@@UAEPAXI@Z
_TEXT	SEGMENT PARA USE32 PUBLIC 'CODE'
_TEXT	ENDS
;	COMDAT ??_GCTODay@CXTPCalendarThemeOffice2007@@UAEPAXI@Z
_TEXT	SEGMENT PARA USE32 PUBLIC 'CODE'
_TEXT	ENDS
;	COMDAT ??_GCTOMonthViewDay_Base@CXTPCalendarThemeOffice2007@@UAEPAXI@Z
_TEXT	SEGMENT PARA USE32 PUBLIC 'CODE'
_TEXT	ENDS
;	COMDAT ??_GCTOMonthViewDay@CXTPCalendarTheme@@UAEPAXI@Z
_TEXT	SEGMENT PARA USE32 PUBLIC 'CODE'
_TEXT	ENDS
;	COMDAT ??_GCTOMonthViewDay_Base2@CXTPCalendarThemeOffice2007@@UAEPAXI@Z
_TEXT	SEGMENT PARA USE32 PUBLIC 'CODE'
_TEXT	ENDS
;	COMDAT ??_DCTOWeekViewDayHeader@CXTPCalendarThemeOffice2007@@QAEXXZ
_TEXT	SEGMENT PARA USE32 PUBLIC 'CODE'
_TEXT	ENDS
;	COMDAT ??_GCTOWeekViewDayHeader_Base@CXTPCalendarThemeOffice2007@@UAEPAXI@Z
_TEXT	SEGMENT PARA USE32 PUBLIC 'CODE'
_TEXT	ENDS
;	COMDAT ??_GCTOWeekViewDayHeader@CXTPCalendarTheme@@UAEPAXI@Z
_TEXT	SEGMENT PARA USE32 PUBLIC 'CODE'
_TEXT	ENDS
;	COMDAT ??_GCTOWeekViewDayHeader_Base2@CXTPCalendarThemeOffice2007@@UAEPAXI@Z
_TEXT	SEGMENT PARA USE32 PUBLIC 'CODE'
_TEXT	ENDS
;	COMDAT ??_DCTOWeekViewEvent_MultiDay@CXTPCalendarThemeOffice2007@@QAEXXZ
_TEXT	SEGMENT PARA USE32 PUBLIC 'CODE'
_TEXT	ENDS
;	COMDAT ??_GCTOWeekViewEvent_Base@CXTPCalendarThemeOffice2007@@UAEPAXI@Z
_TEXT	SEGMENT PARA USE32 PUBLIC 'CODE'
_TEXT	ENDS
;	COMDAT ??_GCTOWeekViewEvent@CXTPCalendarTheme@@UAEPAXI@Z
_TEXT	SEGMENT PARA USE32 PUBLIC 'CODE'
_TEXT	ENDS
;	COMDAT ??_GCTOWeekViewEvent_Base2@CXTPCalendarThemeOffice2007@@UAEPAXI@Z
_TEXT	SEGMENT PARA USE32 PUBLIC 'CODE'
_TEXT	ENDS
;	COMDAT ??_GCTOWeekViewEvent_MultiDay_Base@CXTPCalendarThemeOffice2007@@UAEPAXI@Z
_TEXT	SEGMENT PARA USE32 PUBLIC 'CODE'
_TEXT	ENDS
;	COMDAT ??_GCTOWeekViewEvent_MultiDay@CXTPCalendarTheme@@UAEPAXI@Z
_TEXT	SEGMENT PARA USE32 PUBLIC 'CODE'
_TEXT	ENDS
;	COMDAT ??_GCTOWeekViewEvent_MultiDay_Base2@CXTPCalendarThemeOffice2007@@UAEPAXI@Z
_TEXT	SEGMENT PARA USE32 PUBLIC 'CODE'
_TEXT	ENDS
;	COMDAT ??_DCTOWeekViewEvent_SingleDay@CXTPCalendarThemeOffice2007@@QAEXXZ
_TEXT	SEGMENT PARA USE32 PUBLIC 'CODE'
_TEXT	ENDS
;	COMDAT ??_GCTOWeekViewEvent_SingleDay_Base@CXTPCalendarThemeOffice2007@@UAEPAXI@Z
_TEXT	SEGMENT PARA USE32 PUBLIC 'CODE'
_TEXT	ENDS
;	COMDAT ??_GCTOWeekViewEvent_SingleDay@CXTPCalendarTheme@@UAEPAXI@Z
_TEXT	SEGMENT PARA USE32 PUBLIC 'CODE'
_TEXT	ENDS
;	COMDAT ??_GCTOWeekViewEvent_SingleDay_Base2@CXTPCalendarThemeOffice2007@@UAEPAXI@Z
_TEXT	SEGMENT PARA USE32 PUBLIC 'CODE'
_TEXT	ENDS
;	COMDAT ??_DCTOWeekViewEvent@CXTPCalendarThemeOffice2007@@QAEXXZ
_TEXT	SEGMENT PARA USE32 PUBLIC 'CODE'
_TEXT	ENDS
;	COMDAT ??_DCTOWeekViewDay@CXTPCalendarThemeOffice2007@@QAEXXZ
_TEXT	SEGMENT PARA USE32 PUBLIC 'CODE'
_TEXT	ENDS
;	COMDAT ??_GCTOWeekViewDay_Base@CXTPCalendarThemeOffice2007@@UAEPAXI@Z
_TEXT	SEGMENT PARA USE32 PUBLIC 'CODE'
_TEXT	ENDS
;	COMDAT ??_GCTOWeekViewDay@CXTPCalendarTheme@@UAEPAXI@Z
_TEXT	SEGMENT PARA USE32 PUBLIC 'CODE'
_TEXT	ENDS
;	COMDAT ??_GCTOWeekViewDay_Base2@CXTPCalendarThemeOffice2007@@UAEPAXI@Z
_TEXT	SEGMENT PARA USE32 PUBLIC 'CODE'
_TEXT	ENDS
;	COMDAT ??_DCTOEvent@CXTPCalendarThemeOffice2007@@QAEXXZ
_TEXT	SEGMENT PARA USE32 PUBLIC 'CODE'
_TEXT	ENDS
;	COMDAT ??_DCTODayView@CXTPCalendarThemeOffice2007@@QAEXXZ
_TEXT	SEGMENT PARA USE32 PUBLIC 'CODE'
_TEXT	ENDS
;	COMDAT ??_GCTODayView@CXTPCalendarTheme@@UAEPAXI@Z
_TEXT	SEGMENT PARA USE32 PUBLIC 'CODE'
_TEXT	ENDS
;	COMDAT ??_GCTODayView_Base@CXTPCalendarThemeOffice2007@@UAEPAXI@Z
_TEXT	SEGMENT PARA USE32 PUBLIC 'CODE'
_TEXT	ENDS
;	COMDAT ??_DCTOMonthView@CXTPCalendarThemeOffice2007@@QAEXXZ
_TEXT	SEGMENT PARA USE32 PUBLIC 'CODE'
_TEXT	ENDS
;	COMDAT ??_GCTOMonthView@CXTPCalendarTheme@@UAEPAXI@Z
_TEXT	SEGMENT PARA USE32 PUBLIC 'CODE'
_TEXT	ENDS
;	COMDAT ??_GCTOMonthView_Base@CXTPCalendarThemeOffice2007@@UAEPAXI@Z
_TEXT	SEGMENT PARA USE32 PUBLIC 'CODE'
_TEXT	ENDS
;	COMDAT ??_DCTOWeekView@CXTPCalendarThemeOffice2007@@QAEXXZ
_TEXT	SEGMENT PARA USE32 PUBLIC 'CODE'
_TEXT	ENDS
;	COMDAT ??_GCTOWeekView@CXTPCalendarTheme@@UAEPAXI@Z
_TEXT	SEGMENT PARA USE32 PUBLIC 'CODE'
_TEXT	ENDS
;	COMDAT ??_GCTOWeekView_Base@CXTPCalendarThemeOffice2007@@UAEPAXI@Z
_TEXT	SEGMENT PARA USE32 PUBLIC 'CODE'
_TEXT	ENDS
;	COMDAT ??_DCTOCellDynBackground@CXTPCalendarThemeOffice2007@@QAEXXZ
_TEXT	SEGMENT PARA USE32 PUBLIC 'CODE'
_TEXT	ENDS
;	COMDAT ??_GCTOCellDynBackground_Base@CXTPCalendarThemeOffice2007@@UAEPAXI@Z
_TEXT	SEGMENT PARA USE32 PUBLIC 'CODE'
_TEXT	ENDS
;	COMDAT ??1CTODayViewDayGroupHeader@CXTPCalendarThemeOffice2007@@UAE@XZ
_TEXT	SEGMENT PARA USE32 PUBLIC 'CODE'
_TEXT	ENDS
;	COMDAT ??_DCTODayViewDayGroupHeader_Base@CXTPCalendarThemeOffice2007@@QAEXXZ
_TEXT	SEGMENT PARA USE32 PUBLIC 'CODE'
_TEXT	ENDS
;	COMDAT ??_DCTODayViewDayGroupHeader@CXTPCalendarTheme@@QAEXXZ
_TEXT	SEGMENT PARA USE32 PUBLIC 'CODE'
_TEXT	ENDS
;	COMDAT ??_DCTODayViewDayGroupHeader_Base2@CXTPCalendarThemeOffice2007@@QAEXXZ
_TEXT	SEGMENT PARA USE32 PUBLIC 'CODE'
_TEXT	ENDS
;	COMDAT ??1CTODayViewDayGroupAllDayEvents@CXTPCalendarThemeOffice2007@@UAE@XZ
_TEXT	SEGMENT PARA USE32 PUBLIC 'CODE'
_TEXT	ENDS
;	COMDAT ??_DCTODayViewDayGroupAllDayEvents@CXTPCalendarTheme@@QAEXXZ
_TEXT	SEGMENT PARA USE32 PUBLIC 'CODE'
_TEXT	ENDS
;	COMDAT ??_DCTODayViewDayGroupAllDayEvents_Base@CXTPCalendarThemeOffice2007@@QAEXXZ
_TEXT	SEGMENT PARA USE32 PUBLIC 'CODE'
_TEXT	ENDS
;	COMDAT ??1CTODayViewDayGroupCell@CXTPCalendarThemeOffice2007@@UAE@XZ
_TEXT	SEGMENT PARA USE32 PUBLIC 'CODE'
_TEXT	ENDS
;	COMDAT ??_DCTODayViewDayGroupCell@CXTPCalendarTheme@@QAEXXZ
_TEXT	SEGMENT PARA USE32 PUBLIC 'CODE'
_TEXT	ENDS
;	COMDAT ??_DCTODayViewDayGroupCell_Base@CXTPCalendarThemeOffice2007@@QAEXXZ
_TEXT	SEGMENT PARA USE32 PUBLIC 'CODE'
_TEXT	ENDS
;	COMDAT ??1CTODayViewEvent_MultiDay@CXTPCalendarThemeOffice2007@@UAE@XZ
_TEXT	SEGMENT PARA USE32 PUBLIC 'CODE'
_TEXT	ENDS
;	COMDAT ??_DCTOEvent@CXTPCalendarTheme@@QAEXXZ
_TEXT	SEGMENT PARA USE32 PUBLIC 'CODE'
_TEXT	ENDS
;	COMDAT ??_DCTOEvent_Base@CXTPCalendarThemeOffice2007@@QAEXXZ
_TEXT	SEGMENT PARA USE32 PUBLIC 'CODE'
_TEXT	ENDS
;	COMDAT ??_DCTODayViewEvent_Base@CXTPCalendarThemeOffice2007@@QAEXXZ
_TEXT	SEGMENT PARA USE32 PUBLIC 'CODE'
_TEXT	ENDS
;	COMDAT ??_DCTODayViewEvent@CXTPCalendarTheme@@QAEXXZ
_TEXT	SEGMENT PARA USE32 PUBLIC 'CODE'
_TEXT	ENDS
;	COMDAT ??_DCTODayViewEvent_Base2@CXTPCalendarThemeOffice2007@@QAEXXZ
_TEXT	SEGMENT PARA USE32 PUBLIC 'CODE'
_TEXT	ENDS
;	COMDAT ??_DCTODayViewEvent_MultiDay_Base@CXTPCalendarThemeOffice2007@@QAEXXZ
_TEXT	SEGMENT PARA USE32 PUBLIC 'CODE'
_TEXT	ENDS
;	COMDAT ??_DCTODayViewEvent_MultiDay@CXTPCalendarTheme@@QAEXXZ
_TEXT	SEGMENT PARA USE32 PUBLIC 'CODE'
_TEXT	ENDS
;	COMDAT ??_DCTODayViewEvent_MultiDay_Base2@CXTPCalendarThemeOffice2007@@QAEXXZ
_TEXT	SEGMENT PARA USE32 PUBLIC 'CODE'
_TEXT	ENDS
;	COMDAT ??1CTODayViewEvent_SingleDay@CXTPCalendarThemeOffice2007@@UAE@XZ
_TEXT	SEGMENT PARA USE32 PUBLIC 'CODE'
_TEXT	ENDS
;	COMDAT ??_DCTODayViewEvent_SingleDay_Base@CXTPCalendarThemeOffice2007@@QAEXXZ
_TEXT	SEGMENT PARA USE32 PUBLIC 'CODE'
_TEXT	ENDS
;	COMDAT ??_DCTODayViewEvent_SingleDay@CXTPCalendarTheme@@QAEXXZ
_TEXT	SEGMENT PARA USE32 PUBLIC 'CODE'
_TEXT	ENDS
;	COMDAT ??_G?$CXTPCalendarTypedPtrAutoDeleteMap@HPAVCXTPCalendarViewPartBrushValue@@@@UAEPAXI@Z
_TEXT	SEGMENT PARA USE32 PUBLIC 'CODE'
_TEXT	ENDS
;	COMDAT ??_DCTODayViewEvent_SingleDay_Base2@CXTPCalendarThemeOffice2007@@QAEXXZ
_TEXT	SEGMENT PARA USE32 PUBLIC 'CODE'
_TEXT	ENDS
;	COMDAT ??1CTODayViewDayGroup@CXTPCalendarThemeOffice2007@@UAE@XZ
_TEXT	SEGMENT PARA USE32 PUBLIC 'CODE'
_TEXT	ENDS
;	COMDAT ??_DCTODayViewDayGroup@CXTPCalendarTheme@@QAEXXZ
_TEXT	SEGMENT PARA USE32 PUBLIC 'CODE'
_TEXT	ENDS
;	COMDAT ??_DCTODayViewDayGroup_Base@CXTPCalendarThemeOffice2007@@QAEXXZ
_TEXT	SEGMENT PARA USE32 PUBLIC 'CODE'
_TEXT	ENDS
;	COMDAT ??1CTODayViewHeader@CXTPCalendarThemeOffice2007@@UAE@XZ
_TEXT	SEGMENT PARA USE32 PUBLIC 'CODE'
_TEXT	ENDS
;	COMDAT ??_DCTODayViewHeader_Base@CXTPCalendarThemeOffice2007@@QAEXXZ
_TEXT	SEGMENT PARA USE32 PUBLIC 'CODE'
_TEXT	ENDS
;	COMDAT ??1CTODayViewTimeScale@CXTPCalendarThemeOffice2007@@UAE@XZ
_TEXT	SEGMENT PARA USE32 PUBLIC 'CODE'
_TEXT	ENDS
;	COMDAT ??_DCTODayViewTimeScale_Base@CXTPCalendarThemeOffice2007@@QAEXXZ
_TEXT	SEGMENT PARA USE32 PUBLIC 'CODE'
_TEXT	ENDS
;	COMDAT ??1CTODayViewDay@CXTPCalendarThemeOffice2007@@UAE@XZ
_TEXT	SEGMENT PARA USE32 PUBLIC 'CODE'
_TEXT	ENDS
;	COMDAT ??_DCTODayViewDay@CXTPCalendarTheme@@QAEXXZ
_TEXT	SEGMENT PARA USE32 PUBLIC 'CODE'
_TEXT	ENDS
;	COMDAT ??_DCTODayViewDay_Base@CXTPCalendarThemeOffice2007@@QAEXXZ
_TEXT	SEGMENT PARA USE32 PUBLIC 'CODE'
_TEXT	ENDS
;	COMDAT ??1CTOMonthViewDayHeader@CXTPCalendarThemeOffice2007@@UAE@XZ
_TEXT	SEGMENT PARA USE32 PUBLIC 'CODE'
_TEXT	ENDS
;	COMDAT ??_DCTOMonthViewDayHeader_Base@CXTPCalendarThemeOffice2007@@QAEXXZ
_TEXT	SEGMENT PARA USE32 PUBLIC 'CODE'
_TEXT	ENDS
;	COMDAT ??_DCTOMonthViewDayHeader@CXTPCalendarTheme@@QAEXXZ
_TEXT	SEGMENT PARA USE32 PUBLIC 'CODE'
_TEXT	ENDS
;	COMDAT ??_DCTOMonthViewDayHeader_Base2@CXTPCalendarThemeOffice2007@@QAEXXZ
_TEXT	SEGMENT PARA USE32 PUBLIC 'CODE'
_TEXT	ENDS
;	COMDAT ??1CTOMonthViewEvent_MultiDay@CXTPCalendarThemeOffice2007@@UAE@XZ
_TEXT	SEGMENT PARA USE32 PUBLIC 'CODE'
_TEXT	ENDS
;	COMDAT ??_DCTOMonthViewEvent_Base@CXTPCalendarThemeOffice2007@@QAEXXZ
_TEXT	SEGMENT PARA USE32 PUBLIC 'CODE'
_TEXT	ENDS
;	COMDAT ??_DCTOMonthViewEvent@CXTPCalendarTheme@@QAEXXZ
_TEXT	SEGMENT PARA USE32 PUBLIC 'CODE'
_TEXT	ENDS
;	COMDAT ??_DCTOMonthViewEvent_Base2@CXTPCalendarThemeOffice2007@@QAEXXZ
_TEXT	SEGMENT PARA USE32 PUBLIC 'CODE'
_TEXT	ENDS
;	COMDAT ??_DCTOMonthViewEvent_MultiDay_Base@CXTPCalendarThemeOffice2007@@QAEXXZ
_TEXT	SEGMENT PARA USE32 PUBLIC 'CODE'
_TEXT	ENDS
;	COMDAT ??_DCTOMonthViewEvent_MultiDay@CXTPCalendarTheme@@QAEXXZ
_TEXT	SEGMENT PARA USE32 PUBLIC 'CODE'
_TEXT	ENDS
;	COMDAT ??_DCTOMonthViewEvent_MultiDay_Base2@CXTPCalendarThemeOffice2007@@QAEXXZ
_TEXT	SEGMENT PARA USE32 PUBLIC 'CODE'
_TEXT	ENDS
;	COMDAT ??1CTOMonthViewEvent_SingleDay@CXTPCalendarThemeOffice2007@@UAE@XZ
_TEXT	SEGMENT PARA USE32 PUBLIC 'CODE'
_TEXT	ENDS
;	COMDAT ??_DCTOMonthViewEvent_SingleDay_Base@CXTPCalendarThemeOffice2007@@QAEXXZ
_TEXT	SEGMENT PARA USE32 PUBLIC 'CODE'
_TEXT	ENDS
;	COMDAT ??_DCTOMonthViewEvent_SingleDay@CXTPCalendarTheme@@QAEXXZ
_TEXT	SEGMENT PARA USE32 PUBLIC 'CODE'
_TEXT	ENDS
;	COMDAT ??_DCTOMonthViewEvent_SingleDay_Base2@CXTPCalendarThemeOffice2007@@QAEXXZ
_TEXT	SEGMENT PARA USE32 PUBLIC 'CODE'
_TEXT	ENDS
;	COMDAT ??1CTOMonthViewDay@CXTPCalendarThemeOffice2007@@UAE@XZ
_TEXT	SEGMENT PARA USE32 PUBLIC 'CODE'
_TEXT	ENDS
;	COMDAT ??_DCTODay@CXTPCalendarTheme@@QAEXXZ
_TEXT	SEGMENT PARA USE32 PUBLIC 'CODE'
_TEXT	ENDS
;	COMDAT ??_DCTODay_Base@CXTPCalendarThemeOffice2007@@QAEXXZ
_TEXT	SEGMENT PARA USE32 PUBLIC 'CODE'
_TEXT	ENDS
;	COMDAT ??_DCTODay@CXTPCalendarThemeOffice2007@@QAEXXZ
_TEXT	SEGMENT PARA USE32 PUBLIC 'CODE'
_TEXT	ENDS
;	COMDAT ??_DCTOMonthViewDay_Base@CXTPCalendarThemeOffice2007@@QAEXXZ
_TEXT	SEGMENT PARA USE32 PUBLIC 'CODE'
_TEXT	ENDS
;	COMDAT ??_DCTOMonthViewDay@CXTPCalendarTheme@@QAEXXZ
_TEXT	SEGMENT PARA USE32 PUBLIC 'CODE'
_TEXT	ENDS
;	COMDAT ??_DCTOMonthViewDay_Base2@CXTPCalendarThemeOffice2007@@QAEXXZ
_TEXT	SEGMENT PARA USE32 PUBLIC 'CODE'
_TEXT	ENDS
;	COMDAT ??1CTOWeekViewDayHeader@CXTPCalendarThemeOffice2007@@UAE@XZ
_TEXT	SEGMENT PARA USE32 PUBLIC 'CODE'
_TEXT	ENDS
;	COMDAT ??_DCTOWeekViewDayHeader_Base@CXTPCalendarThemeOffice2007@@QAEXXZ
_TEXT	SEGMENT PARA USE32 PUBLIC 'CODE'
_TEXT	ENDS
;	COMDAT ??_DCTOWeekViewDayHeader@CXTPCalendarTheme@@QAEXXZ
_TEXT	SEGMENT PARA USE32 PUBLIC 'CODE'
_TEXT	ENDS
;	COMDAT ??_DCTOWeekViewDayHeader_Base2@CXTPCalendarThemeOffice2007@@QAEXXZ
_TEXT	SEGMENT PARA USE32 PUBLIC 'CODE'
_TEXT	ENDS
;	COMDAT ??1CTOWeekViewEvent_MultiDay@CXTPCalendarThemeOffice2007@@UAE@XZ
_TEXT	SEGMENT PARA USE32 PUBLIC 'CODE'
_TEXT	ENDS
;	COMDAT ??_DCTOWeekViewEvent_Base@CXTPCalendarThemeOffice2007@@QAEXXZ
_TEXT	SEGMENT PARA USE32 PUBLIC 'CODE'
_TEXT	ENDS
;	COMDAT ??_DCTOWeekViewEvent@CXTPCalendarTheme@@QAEXXZ
_TEXT	SEGMENT PARA USE32 PUBLIC 'CODE'
_TEXT	ENDS
;	COMDAT ??_DCTOWeekViewEvent_Base2@CXTPCalendarThemeOffice2007@@QAEXXZ
_TEXT	SEGMENT PARA USE32 PUBLIC 'CODE'
_TEXT	ENDS
;	COMDAT ??_DCTOWeekViewEvent_MultiDay_Base@CXTPCalendarThemeOffice2007@@QAEXXZ
_TEXT	SEGMENT PARA USE32 PUBLIC 'CODE'
_TEXT	ENDS
;	COMDAT ??_DCTOWeekViewEvent_MultiDay@CXTPCalendarTheme@@QAEXXZ
_TEXT	SEGMENT PARA USE32 PUBLIC 'CODE'
_TEXT	ENDS
;	COMDAT ??_DCTOWeekViewEvent_MultiDay_Base2@CXTPCalendarThemeOffice2007@@QAEXXZ
_TEXT	SEGMENT PARA USE32 PUBLIC 'CODE'
_TEXT	ENDS
;	COMDAT ??1CTOWeekViewEvent_SingleDay@CXTPCalendarThemeOffice2007@@UAE@XZ
_TEXT	SEGMENT PARA USE32 PUBLIC 'CODE'
_TEXT	ENDS
;	COMDAT ??_DCTOWeekViewEvent_SingleDay_Base@CXTPCalendarThemeOffice2007@@QAEXXZ
_TEXT	SEGMENT PARA USE32 PUBLIC 'CODE'
_TEXT	ENDS
;	COMDAT ??_DCTOWeekViewEvent_SingleDay@CXTPCalendarTheme@@QAEXXZ
_TEXT	SEGMENT PARA USE32 PUBLIC 'CODE'
_TEXT	ENDS
;	COMDAT ??_DCTOWeekViewEvent_SingleDay_Base2@CXTPCalendarThemeOffice2007@@QAEXXZ
_TEXT	SEGMENT PARA USE32 PUBLIC 'CODE'
_TEXT	ENDS
;	COMDAT ??1CTOWeekViewDay@CXTPCalendarThemeOffice2007@@UAE@XZ
_TEXT	SEGMENT PARA USE32 PUBLIC 'CODE'
_TEXT	ENDS
;	COMDAT ??_DCTOWeekViewDay_Base@CXTPCalendarThemeOffice2007@@QAEXXZ
_TEXT	SEGMENT PARA USE32 PUBLIC 'CODE'
_TEXT	ENDS
;	COMDAT ??_DCTOWeekViewDay@CXTPCalendarTheme@@QAEXXZ
_TEXT	SEGMENT PARA USE32 PUBLIC 'CODE'
_TEXT	ENDS
;	COMDAT ??_DCTOWeekViewDay_Base2@CXTPCalendarThemeOffice2007@@QAEXXZ
_TEXT	SEGMENT PARA USE32 PUBLIC 'CODE'
_TEXT	ENDS
;	COMDAT ??1CTODayView@CXTPCalendarThemeOffice2007@@UAE@XZ
_TEXT	SEGMENT PARA USE32 PUBLIC 'CODE'
_TEXT	ENDS
;	COMDAT ??_DCTODayView@CXTPCalendarTheme@@QAEXXZ
_TEXT	SEGMENT PARA USE32 PUBLIC 'CODE'
_TEXT	ENDS
;	COMDAT ??_DCTODayView_Base@CXTPCalendarThemeOffice2007@@QAEXXZ
_TEXT	SEGMENT PARA USE32 PUBLIC 'CODE'
_TEXT	ENDS
;	COMDAT ??1CTOMonthView@CXTPCalendarThemeOffice2007@@UAE@XZ
_TEXT	SEGMENT PARA USE32 PUBLIC 'CODE'
_TEXT	ENDS
;	COMDAT ??_DCTOMonthView@CXTPCalendarTheme@@QAEXXZ
_TEXT	SEGMENT PARA USE32 PUBLIC 'CODE'
_TEXT	ENDS
;	COMDAT ??_DCTOMonthView_Base@CXTPCalendarThemeOffice2007@@QAEXXZ
_TEXT	SEGMENT PARA USE32 PUBLIC 'CODE'
_TEXT	ENDS
;	COMDAT ??1CTOWeekView@CXTPCalendarThemeOffice2007@@UAE@XZ
_TEXT	SEGMENT PARA USE32 PUBLIC 'CODE'
_TEXT	ENDS
;	COMDAT ??_DCTOWeekView@CXTPCalendarTheme@@QAEXXZ
_TEXT	SEGMENT PARA USE32 PUBLIC 'CODE'
_TEXT	ENDS
;	COMDAT ??_DCTOWeekView_Base@CXTPCalendarThemeOffice2007@@QAEXXZ
_TEXT	SEGMENT PARA USE32 PUBLIC 'CODE'
_TEXT	ENDS
;	COMDAT ??1CTOCellDynBackground@CXTPCalendarThemeOffice2007@@UAE@XZ
_TEXT	SEGMENT PARA USE32 PUBLIC 'CODE'
_TEXT	ENDS
;	COMDAT ??_DCTOCellDynBackground_Base@CXTPCalendarThemeOffice2007@@QAEXXZ
_TEXT	SEGMENT PARA USE32 PUBLIC 'CODE'
_TEXT	ENDS
;	COMDAT ??1CXTPCalendarEventPropertiesDlg@@UAE@XZ
_TEXT	SEGMENT PARA USE32 PUBLIC 'CODE'
_TEXT	ENDS
;	COMDAT ??_GCXTPCalendarEventPropertiesDlg@@UAEPAXI@Z
_TEXT	SEGMENT PARA USE32 PUBLIC 'CODE'
_TEXT	ENDS
;	COMDAT ?LoadStringA@CXTPCalendarEventPropertiesDlg@@MAE?AVCString@@I@Z
_TEXT	SEGMENT PARA USE32 PUBLIC 'CODE'
_TEXT	ENDS
;	COMDAT ?GetPThis@C_m_Sink_Informator@CXTPCalendarRemindersManager@@SAPAV2@PAE@Z
_TEXT	SEGMENT PARA USE32 PUBLIC 'CODE'
_TEXT	ENDS
;	COMDAT ?GetPThis@C_m_Sink_Informator@CXTPCalendarRemindersDialog@@SAPAV2@PAE@Z
_TEXT	SEGMENT PARA USE32 PUBLIC 'CODE'
_TEXT	ENDS
;	COMDAT ?CreateObject@CXTPSkinObjectClassInfoActiveX@@UAEPAVCXTPSkinObject@@PBDPAUtagCREATESTRUCTA@@@Z
_TEXT	SEGMENT PARA USE32 PUBLIC 'CODE'
_TEXT	ENDS
;	COMDAT ??_GCXTPSkinObjectClassInfoActiveX@@UAEPAXI@Z
_TEXT	SEGMENT PARA USE32 PUBLIC 'CODE'
_TEXT	ENDS
;	COMDAT ??1CXTPSkinObjectClassInfo@@UAE@XZ
_TEXT	SEGMENT PARA USE32 PUBLIC 'CODE'
_TEXT	ENDS
;	COMDAT ??1CXTPSkinObjectClassInfoActiveX@@UAE@XZ
_TEXT	SEGMENT PARA USE32 PUBLIC 'CODE'
_TEXT	ENDS
;	COMDAT ?GetCount@CXTPRibbonGroup@@QBEHXZ
_TEXT	SEGMENT PARA USE32 PUBLIC 'CODE'
_TEXT	ENDS
;	COMDAT ??1XTP_EDIT_ROWSBLOCK@@UAE@XZ
_TEXT	SEGMENT PARA USE32 PUBLIC 'CODE'
_TEXT	ENDS
;	COMDAT ??_GXTP_EDIT_ROWSBLOCK@@UAEPAXI@Z
_TEXT	SEGMENT PARA USE32 PUBLIC 'CODE'
_TEXT	ENDS
;	COMDAT ??1XTP_EDIT_COLLAPSEDBLOCK@@UAE@XZ
_TEXT	SEGMENT PARA USE32 PUBLIC 'CODE'
_TEXT	ENDS
;	COMDAT ??_GXTP_EDIT_COLLAPSEDBLOCK@@UAEPAXI@Z
_TEXT	SEGMENT PARA USE32 PUBLIC 'CODE'
_TEXT	ENDS
;	COMDAT ??_GCXTPRowInfo@CXTPSyntaxEditDrawTextProcessor@@UAEPAXI@Z
_TEXT	SEGMENT PARA USE32 PUBLIC 'CODE'
_TEXT	ENDS
;	COMDAT ??1?$CXTPReserveArray@HH@@UAE@XZ
_TEXT	SEGMENT PARA USE32 PUBLIC 'CODE'
_TEXT	ENDS
;	COMDAT ??1?$CXTPReserveArray@EE@@UAE@XZ
_TEXT	SEGMENT PARA USE32 PUBLIC 'CODE'
_TEXT	ENDS
;	COMDAT ??1CXTPRowInfo@CXTPSyntaxEditDrawTextProcessor@@UAE@XZ
_TEXT	SEGMENT PARA USE32 PUBLIC 'CODE'
_TEXT	ENDS
;	COMDAT ?GetPThis@C_m_Sink_Informator@CXTPSyntaxEditCtrl@@SAPAV2@PAE@Z
_TEXT	SEGMENT PARA USE32 PUBLIC 'CODE'
_TEXT	ENDS
;	COMDAT ?GetEditBuffer@CXTPSyntaxEditCtrl@@QAEPAVCXTPSyntaxEditBufferManager@@XZ
_TEXT	SEGMENT PARA USE32 PUBLIC 'CODE'
_TEXT	ENDS
;	COMDAT ?IsEnabledVirtualSpace@CXTPSyntaxEditCtrl@@QBEHXZ
_TEXT	SEGMENT PARA USE32 PUBLIC 'CODE'
_TEXT	ENDS
;	COMDAT ??BCXTPMarkupInt@@QBEHXZ
_TEXT	SEGMENT PARA USE32 PUBLIC 'CODE'
_TEXT	ENDS
;	COMDAT ??BCXTPMarkupEnum@@QBEHXZ
_TEXT	SEGMENT PARA USE32 PUBLIC 'CODE'
_TEXT	ENDS
;	COMDAT ??BCXTPMarkupBool@@QBEHXZ
_TEXT	SEGMENT PARA USE32 PUBLIC 'CODE'
_TEXT	ENDS
;	COMDAT ?GetCount@CXTPMarkupCollection@@QBEHXZ
_TEXT	SEGMENT PARA USE32 PUBLIC 'CODE'
_TEXT	ENDS
;	COMDAT ?GetHashKey@CXTPMarkupObject@@UBEIXZ
_TEXT	SEGMENT PARA USE32 PUBLIC 'CODE'
_TEXT	ENDS
;	COMDAT ?IsEqual@CXTPMarkupObject@@UBEHPBV1@@Z
_TEXT	SEGMENT PARA USE32 PUBLIC 'CODE'
_TEXT	ENDS
;	COMDAT ??0CXTPMarkupDelegate@@QAE@XZ
_TEXT	SEGMENT PARA USE32 PUBLIC 'CODE'
_TEXT	ENDS
;	COMDAT ?Execute@CXTPMarkupDelegate@@UAEXPAVCXTPMarkupObject@@PAVCXTPMarkupRoutedEventArgs@@@Z
_TEXT	SEGMENT PARA USE32 PUBLIC 'CODE'
_TEXT	ENDS
;	COMDAT ??_GCXTPMarkupDelegate@@UAEPAXI@Z
_TEXT	SEGMENT PARA USE32 PUBLIC 'CODE'
_TEXT	ENDS
;	COMDAT ??1CXTPMarkupDelegate@@UAE@XZ
_TEXT	SEGMENT PARA USE32 PUBLIC 'CODE'
_TEXT	ENDS
;	COMDAT ?Execute@CXTPMarkupFunctionDelegate@@UAEXPAVCXTPMarkupObject@@PAVCXTPMarkupRoutedEventArgs@@@Z
_TEXT	SEGMENT PARA USE32 PUBLIC 'CODE'
_TEXT	ENDS
;	COMDAT ??_GCXTPMarkupFunctionDelegate@@UAEPAXI@Z
_TEXT	SEGMENT PARA USE32 PUBLIC 'CODE'
_TEXT	ENDS
;	COMDAT ??1CXTPMarkupFunctionDelegate@@UAE@XZ
_TEXT	SEGMENT PARA USE32 PUBLIC 'CODE'
_TEXT	ENDS
;	COMDAT ?GetVisibility@CXTPMarkupUIElement@@QBE?AW4XTPMarkupVisibility@@XZ
_TEXT	SEGMENT PARA USE32 PUBLIC 'CODE'
_TEXT	ENDS
;	COMDAT ?GetItem@CXTPMarkupUIElementCollection@@QBEPAVCXTPMarkupUIElement@@H@Z
_TEXT	SEGMENT PARA USE32 PUBLIC 'CODE'
_TEXT	ENDS
;	COMDAT ??0CXTPChartSizeF@@QAE@XZ
_TEXT	SEGMENT PARA USE32 PUBLIC 'CODE'
_TEXT	ENDS
;	COMDAT ??0CXTPChartSizeF@@QAE@ABV0@@Z
_TEXT	SEGMENT PARA USE32 PUBLIC 'CODE'
_TEXT	ENDS
;	COMDAT ??0CXTPChartSizeF@@QAE@MM@Z
_TEXT	SEGMENT PARA USE32 PUBLIC 'CODE'
_TEXT	ENDS
;	COMDAT ??0CXTPChartPointF@@QAE@XZ
_TEXT	SEGMENT PARA USE32 PUBLIC 'CODE'
_TEXT	ENDS
;	COMDAT ??0CXTPChartPointF@@QAE@ABV0@@Z
_TEXT	SEGMENT PARA USE32 PUBLIC 'CODE'
_TEXT	ENDS
;	COMDAT ??0CXTPChartPointF@@QAE@NN@Z
_TEXT	SEGMENT PARA USE32 PUBLIC 'CODE'
_TEXT	ENDS
;	COMDAT ??0CXTPChartRectF@@QAE@XZ
_TEXT	SEGMENT PARA USE32 PUBLIC 'CODE'
_TEXT	ENDS
;	COMDAT ?Normalize@CXTPChartRectF@@QAEXXZ
_TEXT	SEGMENT PARA USE32 PUBLIC 'CODE'
_TEXT	ENDS
;	COMDAT ?GetLeft@CXTPChartRectF@@QBEMXZ
_TEXT	SEGMENT PARA USE32 PUBLIC 'CODE'
_TEXT	ENDS
;	COMDAT ?GetTop@CXTPChartRectF@@QBEMXZ
_TEXT	SEGMENT PARA USE32 PUBLIC 'CODE'
_TEXT	ENDS
;	COMDAT ?GetRight@CXTPChartRectF@@QBEMXZ
_TEXT	SEGMENT PARA USE32 PUBLIC 'CODE'
_TEXT	ENDS
;	COMDAT ?GetBottom@CXTPChartRectF@@QBEMXZ
_TEXT	SEGMENT PARA USE32 PUBLIC 'CODE'
_TEXT	ENDS
;	COMDAT ?IsEmptyArea@CXTPChartRectF@@QBEHXZ
_TEXT	SEGMENT PARA USE32 PUBLIC 'CODE'
_TEXT	ENDS
;	COMDAT ?Contains@CXTPChartRectF@@QBEHMM@Z
_TEXT	SEGMENT PARA USE32 PUBLIC 'CODE'
_TEXT	ENDS
;	COMDAT ?Inflate@CXTPChartRectF@@QAEXMM@Z
_TEXT	SEGMENT PARA USE32 PUBLIC 'CODE'
_TEXT	ENDS
;	COMDAT ?Intersect@CXTPChartRectF@@SAHAAV1@ABV1@1@Z
_TEXT	SEGMENT PARA USE32 PUBLIC 'CODE'
_TEXT	ENDS
;	COMDAT ?Offset@CXTPChartRectF@@QAEXMM@Z
_TEXT	SEGMENT PARA USE32 PUBLIC 'CODE'
_TEXT	ENDS
;	COMDAT ??0CXTPChartColor@@QAE@XZ
_TEXT	SEGMENT PARA USE32 PUBLIC 'CODE'
_TEXT	ENDS
;	COMDAT ?GetAlpha@CXTPChartColor@@QBEEXZ
_TEXT	SEGMENT PARA USE32 PUBLIC 'CODE'
_TEXT	ENDS
;	COMDAT ?GetRed@CXTPChartColor@@QBEEXZ
_TEXT	SEGMENT PARA USE32 PUBLIC 'CODE'
_TEXT	ENDS
;	COMDAT ?GetGreen@CXTPChartColor@@QBEEXZ
_TEXT	SEGMENT PARA USE32 PUBLIC 'CODE'
_TEXT	ENDS
;	COMDAT ?GetBlue@CXTPChartColor@@QBEEXZ
_TEXT	SEGMENT PARA USE32 PUBLIC 'CODE'
_TEXT	ENDS
;	COMDAT ?MakeARGB@CXTPChartColor@@SAKEEEE@Z
_TEXT	SEGMENT PARA USE32 PUBLIC 'CODE'
_TEXT	ENDS
;	COMDAT ?GetParentView@CXTPChartElementView@@QBEPAV1@XZ
_TEXT	SEGMENT PARA USE32 PUBLIC 'CODE'
_TEXT	ENDS
;	COMDAT ??1CHtmlCtrl@@UAE@XZ
_TEXT	SEGMENT PARA USE32 PUBLIC 'CODE'
_TEXT	ENDS
;	COMDAT ?PostNcDestroy@CHtmlCtrl@@UAEXXZ
_TEXT	SEGMENT PARA USE32 PUBLIC 'CODE'
_TEXT	ENDS
;	COMDAT ??_GCHtmlCtrl@@UAEPAXI@Z
_TEXT	SEGMENT PARA USE32 PUBLIC 'CODE'
_TEXT	ENDS
;	COMDAT ??0CInputDialog@@QAE@XZ
_TEXT	SEGMENT PARA USE32 PUBLIC 'CODE'
_TEXT	ENDS
;	COMDAT ??1CInputDialog@@UAE@XZ
_TEXT	SEGMENT PARA USE32 PUBLIC 'CODE'
_TEXT	ENDS
;	COMDAT ?DoDataExchange@CInputDialog@@MAEXPAVCDataExchange@@@Z
_TEXT	SEGMENT PARA USE32 PUBLIC 'CODE'
_TEXT	ENDS
;	COMDAT ??_GCInputDialog@@UAEPAXI@Z
_TEXT	SEGMENT PARA USE32 PUBLIC 'CODE'
_TEXT	ENDS
;	COMDAT ??_GCPcView@@MAEPAXI@Z
_TEXT	SEGMENT PARA USE32 PUBLIC 'CODE'
_TEXT	ENDS
;	COMDAT ??1CChangeGroupDlg@@UAE@XZ
_TEXT	SEGMENT PARA USE32 PUBLIC 'CODE'
_TEXT	ENDS
;	COMDAT ??1CSetColor@@UAE@XZ
_TEXT	SEGMENT PARA USE32 PUBLIC 'CODE'
_TEXT	ENDS
;	COMDAT ??1CLocalUpload@@UAE@XZ
_TEXT	SEGMENT PARA USE32 PUBLIC 'CODE'
_TEXT	ENDS
;	COMDAT ??1CMsgBoxDlg@@UAE@XZ
_TEXT	SEGMENT PARA USE32 PUBLIC 'CODE'
_TEXT	ENDS
;	COMDAT ??1CFileDialog@@UAE@XZ
_TEXT	SEGMENT PARA USE32 PUBLIC 'CODE'
_TEXT	ENDS
;	COMDAT ??1COpenProxy@@UAE@XZ
_TEXT	SEGMENT PARA USE32 PUBLIC 'CODE'
_TEXT	ENDS
;	COMDAT ??1CPrankDlg@@UAE@XZ
_TEXT	SEGMENT PARA USE32 PUBLIC 'CODE'
_TEXT	ENDS
;	COMDAT ??1CStart@@UAE@XZ
_TEXT	SEGMENT PARA USE32 PUBLIC 'CODE'
_TEXT	ENDS
;	COMDAT ??0?$_CTypedPtrList@VCObList@@PAV1@@@QAE@H@Z
_TEXT	SEGMENT PARA USE32 PUBLIC 'CODE'
_TEXT	ENDS
;	COMDAT ??0?$_CTypedPtrList@VCPtrList@@PAV1@@@QAE@H@Z
_TEXT	SEGMENT PARA USE32 PUBLIC 'CODE'
_TEXT	ENDS
;	COMDAT ??0?$_CIP@UIUnknown@@$1?IID_IUnknown@@3U_GUID@@B@@QAE@ABV0@@Z
_TEXT	SEGMENT PARA USE32 PUBLIC 'CODE'
_TEXT	ENDS
;	COMDAT ??0?$_CIP@UIUnknown@@$1?IID_IUnknown@@3U_GUID@@B@@QAE@PAUIUnknown@@@Z
_TEXT	SEGMENT PARA USE32 PUBLIC 'CODE'
_TEXT	ENDS
;	COMDAT ??0?$_CIP@UIUnknown@@$1?IID_IUnknown@@3U_GUID@@B@@QAE@PAUIUnknown@@H@Z
_TEXT	SEGMENT PARA USE32 PUBLIC 'CODE'
_TEXT	ENDS
;	COMDAT ??0?$_CIP@UIUnknown@@$1?IID_IUnknown@@3U_GUID@@B@@QAE@ABU_GUID@@K@Z
_TEXT	SEGMENT PARA USE32 PUBLIC 'CODE'
_TEXT	ENDS
;	COMDAT ??0?$_CIP@UIUnknown@@$1?IID_IUnknown@@3U_GUID@@B@@QAE@PAGK@Z
_TEXT	SEGMENT PARA USE32 PUBLIC 'CODE'
_TEXT	ENDS
;	COMDAT ??4?$_CIP@UIUnknown@@$1?IID_IUnknown@@3U_GUID@@B@@QAEAAV0@PAUIUnknown@@@Z
_TEXT	SEGMENT PARA USE32 PUBLIC 'CODE'
_TEXT	ENDS
;	COMDAT ??4?$_CIP@UIUnknown@@$1?IID_IUnknown@@3U_GUID@@B@@QAEAAV0@ABV0@@Z
_TEXT	SEGMENT PARA USE32 PUBLIC 'CODE'
_TEXT	ENDS
;	COMDAT ??4?$_CIP@UIUnknown@@$1?IID_IUnknown@@3U_GUID@@B@@QAEAAV0@ABU_GUID@@@Z
_TEXT	SEGMENT PARA USE32 PUBLIC 'CODE'
_TEXT	ENDS
;	COMDAT ??4?$_CIP@UIUnknown@@$1?IID_IUnknown@@3U_GUID@@B@@QAEAAV0@PAG@Z
_TEXT	SEGMENT PARA USE32 PUBLIC 'CODE'
_TEXT	ENDS
;	COMDAT ?GetInterfacePtr@?$_CIP@UIUnknown@@$1?IID_IUnknown@@3U_GUID@@B@@QBEPAUIUnknown@@XZ
_TEXT	SEGMENT PARA USE32 PUBLIC 'CODE'
_TEXT	ENDS
;	COMDAT ??0?$CIP@UIMoniker@@$1?IID_IMoniker@@3U_GUID@@B@@QAE@XZ
_TEXT	SEGMENT PARA USE32 PUBLIC 'CODE'
_TEXT	ENDS
;	COMDAT ??B?$_CIP@UIMoniker@@$1?IID_IMoniker@@3U_GUID@@B@@QBEPAUIMoniker@@XZ
_TEXT	SEGMENT PARA USE32 PUBLIC 'CODE'
_TEXT	ENDS
;	COMDAT ??4?$CIP@UIBinding@@$1?IID_IBinding@@3U_GUID@@B@@QAEAAV0@PAUIBinding@@@Z
_TEXT	SEGMENT PARA USE32 PUBLIC 'CODE'
_TEXT	ENDS
;	COMDAT ??B?$_CIP@UIBinding@@$1?IID_IBinding@@3U_GUID@@B@@QBEPAUIBinding@@XZ
_TEXT	SEGMENT PARA USE32 PUBLIC 'CODE'
_TEXT	ENDS
;	COMDAT ??0?$_com_ptr_t@V?$_com_IIID@UIXMLDOMNode@XTPXML@@$1?_GUID_2933bf80_7b36_11d2_b20e_00c04f983e60@@3U__s_GUID@@A@@@@QAE@ABV0@@Z
_TEXT	SEGMENT PARA USE32 PUBLIC 'CODE'
_TEXT	ENDS
;	COMDAT ??1?$_com_ptr_t@V?$_com_IIID@UIXMLDOMNode@XTPXML@@$1?_GUID_2933bf80_7b36_11d2_b20e_00c04f983e60@@3U__s_GUID@@A@@@@QAE@XZ
_TEXT	SEGMENT PARA USE32 PUBLIC 'CODE'
_TEXT	ENDS
;	COMDAT ??0?$_com_ptr_t@V?$_com_IIID@UIXMLDOMDocument@XTPXML@@$1?_GUID_2933bf81_7b36_11d2_b20e_00c04f983e60@@3U__s_GUID@@A@@@@QAE@ABV0@@Z
_TEXT	SEGMENT PARA USE32 PUBLIC 'CODE'
_TEXT	ENDS
;	COMDAT ??1?$_com_ptr_t@V?$_com_IIID@UIXMLDOMDocument@XTPXML@@$1?_GUID_2933bf81_7b36_11d2_b20e_00c04f983e60@@3U__s_GUID@@A@@@@QAE@XZ
_TEXT	SEGMENT PARA USE32 PUBLIC 'CODE'
_TEXT	ENDS
;	COMDAT ??1?$CXTPFrameWndBase@VCMDIFrameWnd@@@@UAE@XZ
_TEXT	SEGMENT PARA USE32 PUBLIC 'CODE'
_TEXT	ENDS
;	COMDAT ?LoadFrame@?$CXTPFrameWndBase@VCMDIFrameWnd@@@@UAEHIKPAVCWnd@@PAUCCreateContext@@@Z
_TEXT	SEGMENT PARA USE32 PUBLIC 'CODE'
_TEXT	ENDS
;	COMDAT ?OnSetPreviewMode@?$CXTPFrameWndBase@VCMDIFrameWnd@@@@UAEXHPAUCPrintPreviewState@@@Z
_TEXT	SEGMENT PARA USE32 PUBLIC 'CODE'
_TEXT	ENDS
;	COMDAT ??1?$CXTPCommandBarsSiteBase@VCMDIFrameWnd@@@@UAE@XZ
_TEXT	SEGMENT PARA USE32 PUBLIC 'CODE'
_TEXT	ENDS
;	COMDAT ?InitCommandBars@?$CXTPCommandBarsSiteBase@VCMDIFrameWnd@@@@UAEHPAUCRuntimeClass@@@Z
_TEXT	SEGMENT PARA USE32 PUBLIC 'CODE'
_TEXT	ENDS
;	COMDAT ?SaveCommandBars@?$CXTPCommandBarsSiteBase@VCMDIFrameWnd@@@@UAEXPBD@Z
_TEXT	SEGMENT PARA USE32 PUBLIC 'CODE'
_TEXT	ENDS
;	COMDAT ?LoadCommandBars@?$CXTPCommandBarsSiteBase@VCMDIFrameWnd@@@@UAEXPBDH@Z
_TEXT	SEGMENT PARA USE32 PUBLIC 'CODE'
_TEXT	ENDS
;	COMDAT ?PreTranslateMessage@?$CXTPCommandBarsSiteBase@VCMDIFrameWnd@@@@MAEHPAUtagMSG@@@Z
_TEXT	SEGMENT PARA USE32 PUBLIC 'CODE'
_TEXT	ENDS
;	COMDAT ?OnWndMsg@?$CXTPCommandBarsSiteBase@VCMDIFrameWnd@@@@MAEHIIJPAJ@Z
_TEXT	SEGMENT PARA USE32 PUBLIC 'CODE'
_TEXT	ENDS
;	COMDAT ??1?$CXTPFrameWndBase@VCFrameWnd@@@@UAE@XZ
_TEXT	SEGMENT PARA USE32 PUBLIC 'CODE'
_TEXT	ENDS
;	COMDAT ?LoadFrame@?$CXTPFrameWndBase@VCFrameWnd@@@@UAEHIKPAVCWnd@@PAUCCreateContext@@@Z
_TEXT	SEGMENT PARA USE32 PUBLIC 'CODE'
_TEXT	ENDS
;	COMDAT ?OnSetPreviewMode@?$CXTPFrameWndBase@VCFrameWnd@@@@UAEXHPAUCPrintPreviewState@@@Z
_TEXT	SEGMENT PARA USE32 PUBLIC 'CODE'
_TEXT	ENDS
;	COMDAT ??1?$CXTPCommandBarsSiteBase@VCFrameWnd@@@@UAE@XZ
_TEXT	SEGMENT PARA USE32 PUBLIC 'CODE'
_TEXT	ENDS
;	COMDAT ?InitCommandBars@?$CXTPCommandBarsSiteBase@VCFrameWnd@@@@UAEHPAUCRuntimeClass@@@Z
_TEXT	SEGMENT PARA USE32 PUBLIC 'CODE'
_TEXT	ENDS
;	COMDAT ?SaveCommandBars@?$CXTPCommandBarsSiteBase@VCFrameWnd@@@@UAEXPBD@Z
_TEXT	SEGMENT PARA USE32 PUBLIC 'CODE'
_TEXT	ENDS
;	COMDAT ?LoadCommandBars@?$CXTPCommandBarsSiteBase@VCFrameWnd@@@@UAEXPBDH@Z
_TEXT	SEGMENT PARA USE32 PUBLIC 'CODE'
_TEXT	ENDS
;	COMDAT ?PreTranslateMessage@?$CXTPCommandBarsSiteBase@VCFrameWnd@@@@MAEHPAUtagMSG@@@Z
_TEXT	SEGMENT PARA USE32 PUBLIC 'CODE'
_TEXT	ENDS
;	COMDAT ?OnWndMsg@?$CXTPCommandBarsSiteBase@VCFrameWnd@@@@MAEHIIJPAJ@Z
_TEXT	SEGMENT PARA USE32 PUBLIC 'CODE'
_TEXT	ENDS
;	COMDAT ?GetData@?$CThreadLocal@VCXTPKeyboardManager@@@@QAEPAVCXTPKeyboardManager@@XZ
_TEXT	SEGMENT PARA USE32 PUBLIC 'CODE'
_TEXT	ENDS
;	COMDAT ?GetData@?$CThreadLocal@VCXTPMouseManager@@@@QAEPAVCXTPMouseManager@@XZ
_TEXT	SEGMENT PARA USE32 PUBLIC 'CODE'
_TEXT	ENDS
;	COMDAT ??0?$CXTPDialogBase@VCDialog@@@@QAE@XZ
_TEXT	SEGMENT PARA USE32 PUBLIC 'CODE'
_TEXT	ENDS
;	COMDAT ??0?$CXTPDialogBase@VCDialog@@@@QAE@IPAVCWnd@@@Z
_TEXT	SEGMENT PARA USE32 PUBLIC 'CODE'
_TEXT	ENDS
;	COMDAT ??0?$CXTPDialogBase@VCDialog@@@@QAE@PBDPAVCWnd@@@Z
_TEXT	SEGMENT PARA USE32 PUBLIC 'CODE'
_TEXT	ENDS
;	COMDAT ??1?$CXTPDialogBase@VCDialog@@@@UAE@XZ
_TEXT	SEGMENT PARA USE32 PUBLIC 'CODE'
_TEXT	ENDS
;	COMDAT ?InitCommandBars@?$CXTPDialogBase@VCDialog@@@@UAEHPAUCRuntimeClass@@@Z
_TEXT	SEGMENT PARA USE32 PUBLIC 'CODE'
_TEXT	ENDS
;	COMDAT ?SaveCommandBars@?$CXTPDialogBase@VCDialog@@@@UAEXPBD@Z
_TEXT	SEGMENT PARA USE32 PUBLIC 'CODE'
_TEXT	ENDS
;	COMDAT ?LoadCommandBars@?$CXTPDialogBase@VCDialog@@@@UAEXPBDH@Z
_TEXT	SEGMENT PARA USE32 PUBLIC 'CODE'
_TEXT	ENDS
;	COMDAT ?PreTranslateMessage@?$CXTPDialogBase@VCDialog@@@@MAEHPAUtagMSG@@@Z
_TEXT	SEGMENT PARA USE32 PUBLIC 'CODE'
_TEXT	ENDS
;	COMDAT ?OnWndMsg@?$CXTPDialogBase@VCDialog@@@@MAEHIIJPAJ@Z
_TEXT	SEGMENT PARA USE32 PUBLIC 'CODE'
_TEXT	ENDS
;	COMDAT ??1?$CXTPNotifySinkImpl@VCXTPOffice2007FrameHook@@VC_m_Sink_Informator@1@@@UAE@XZ
_TEXT	SEGMENT PARA USE32 PUBLIC 'CODE'
_TEXT	ENDS
;	COMDAT ?OnEvent@?$CXTPNotifySinkImpl@VCXTPOffice2007FrameHook@@VC_m_Sink_Informator@1@@@UAEXKIJK@Z
_TEXT	SEGMENT PARA USE32 PUBLIC 'CODE'
_TEXT	ENDS
;	COMDAT ??1?$CXTPHeapAllocatorT@UCXTPReportDataAllocatorData@@@@UAE@XZ
_TEXT	SEGMENT PARA USE32 PUBLIC 'CODE'
_TEXT	ENDS
;	COMDAT ??1?$CXTPHeapAllocatorT@UCXTPReportRowAllocatorData@@@@UAE@XZ
_TEXT	SEGMENT PARA USE32 PUBLIC 'CODE'
_TEXT	ENDS
;	COMDAT ??1?$CXTPHeapAllocatorT@UCXTPReportAllocatorDefaultData@@@@UAE@XZ
_TEXT	SEGMENT PARA USE32 PUBLIC 'CODE'
_TEXT	ENDS
;	COMDAT ??0?$_com_ptr_t@V?$_com_IIID@UIUnknown@@$1?_GUID_00000000_0000_0000_c000_000000000046@@3U__s_GUID@@A@@@@QAE@PAUIUnknown@@_N@Z
_TEXT	SEGMENT PARA USE32 PUBLIC 'CODE'
_TEXT	ENDS
;	COMDAT ??1?$_com_ptr_t@V?$_com_IIID@UIUnknown@@$1?_GUID_00000000_0000_0000_c000_000000000046@@3U__s_GUID@@A@@@@QAE@XZ
_TEXT	SEGMENT PARA USE32 PUBLIC 'CODE'
_TEXT	ENDS
;	COMDAT ??0?$_com_ptr_t@V?$_com_IIID@UProperties@XTPREPORTADODB@@$1?_GUID_00000504_0000_0010_8000_00aa006d2ea4@@3U__s_GUID@@A@@@@QAE@PAUProperties@XTPREPORTADODB@@_N@Z
_TEXT	SEGMENT PARA USE32 PUBLIC 'CODE'
_TEXT	ENDS
;	COMDAT ??1?$_com_ptr_t@V?$_com_IIID@UProperties@XTPREPORTADODB@@$1?_GUID_00000504_0000_0010_8000_00aa006d2ea4@@3U__s_GUID@@A@@@@QAE@XZ
_TEXT	SEGMENT PARA USE32 PUBLIC 'CODE'
_TEXT	ENDS
;	COMDAT ??0?$_com_ptr_t@V?$_com_IIID@UProperty@XTPREPORTADODB@@$1?_GUID_00000503_0000_0010_8000_00aa006d2ea4@@3U__s_GUID@@A@@@@QAE@PAUProperty@XTPREPORTADODB@@_N@Z
_TEXT	SEGMENT PARA USE32 PUBLIC 'CODE'
_TEXT	ENDS
;	COMDAT ??1?$_com_ptr_t@V?$_com_IIID@UProperty@XTPREPORTADODB@@$1?_GUID_00000503_0000_0010_8000_00aa006d2ea4@@3U__s_GUID@@A@@@@QAE@XZ
_TEXT	SEGMENT PARA USE32 PUBLIC 'CODE'
_TEXT	ENDS
;	COMDAT ??0?$_com_ptr_t@V?$_com_IIID@UError@XTPREPORTADODB@@$1?_GUID_00000500_0000_0010_8000_00aa006d2ea4@@3U__s_GUID@@A@@@@QAE@PAUError@XTPREPORTADODB@@_N@Z
_TEXT	SEGMENT PARA USE32 PUBLIC 'CODE'
_TEXT	ENDS
;	COMDAT ??1?$_com_ptr_t@V?$_com_IIID@UError@XTPREPORTADODB@@$1?_GUID_00000500_0000_0010_8000_00aa006d2ea4@@3U__s_GUID@@A@@@@QAE@XZ
_TEXT	SEGMENT PARA USE32 PUBLIC 'CODE'
_TEXT	ENDS
;	COMDAT ??0?$_com_ptr_t@V?$_com_IIID@U_Connection@XTPREPORTADODB@@$1?_GUID_00000550_0000_0010_8000_00aa006d2ea4@@3U__s_GUID@@A@@@@QAE@PAU_Connection@XTPREPORTADODB@@_N@Z
_TEXT	SEGMENT PARA USE32 PUBLIC 'CODE'
_TEXT	ENDS
;	COMDAT ??1?$_com_ptr_t@V?$_com_IIID@U_Connection@XTPREPORTADODB@@$1?_GUID_00000550_0000_0010_8000_00aa006d2ea4@@3U__s_GUID@@A@@@@QAE@XZ
_TEXT	SEGMENT PARA USE32 PUBLIC 'CODE'
_TEXT	ENDS
;	COMDAT ??0?$_com_ptr_t@V?$_com_IIID@U_Recordset@XTPREPORTADODB@@$1?_GUID_00000556_0000_0010_8000_00aa006d2ea4@@3U__s_GUID@@A@@@@QAE@ABV0@@Z
_TEXT	SEGMENT PARA USE32 PUBLIC 'CODE'
_TEXT	ENDS
;	COMDAT ??0?$_com_ptr_t@V?$_com_IIID@U_Recordset@XTPREPORTADODB@@$1?_GUID_00000556_0000_0010_8000_00aa006d2ea4@@3U__s_GUID@@A@@@@QAE@PAU_Recordset@XTPREPORTADODB@@_N@Z
_TEXT	SEGMENT PARA USE32 PUBLIC 'CODE'
_TEXT	ENDS
;	COMDAT ??1?$_com_ptr_t@V?$_com_IIID@U_Recordset@XTPREPORTADODB@@$1?_GUID_00000556_0000_0010_8000_00aa006d2ea4@@3U__s_GUID@@A@@@@QAE@XZ
_TEXT	SEGMENT PARA USE32 PUBLIC 'CODE'
_TEXT	ENDS
;	COMDAT ??0?$_com_ptr_t@V?$_com_IIID@U_Parameter@XTPREPORTADODB@@$1?_GUID_0000050c_0000_0010_8000_00aa006d2ea4@@3U__s_GUID@@A@@@@QAE@PAU_Parameter@XTPREPORTADODB@@_N@Z
_TEXT	SEGMENT PARA USE32 PUBLIC 'CODE'
_TEXT	ENDS
;	COMDAT ??1?$_com_ptr_t@V?$_com_IIID@U_Parameter@XTPREPORTADODB@@$1?_GUID_0000050c_0000_0010_8000_00aa006d2ea4@@3U__s_GUID@@A@@@@QAE@XZ
_TEXT	SEGMENT PARA USE32 PUBLIC 'CODE'
_TEXT	ENDS
;	COMDAT ??0?$_com_ptr_t@V?$_com_IIID@UParameters@XTPREPORTADODB@@$1?_GUID_0000050d_0000_0010_8000_00aa006d2ea4@@3U__s_GUID@@A@@@@QAE@PAUParameters@XTPREPORTADODB@@_N@Z
_TEXT	SEGMENT PARA USE32 PUBLIC 'CODE'
_TEXT	ENDS
;	COMDAT ??1?$_com_ptr_t@V?$_com_IIID@UParameters@XTPREPORTADODB@@$1?_GUID_0000050d_0000_0010_8000_00aa006d2ea4@@3U__s_GUID@@A@@@@QAE@XZ
_TEXT	SEGMENT PARA USE32 PUBLIC 'CODE'
_TEXT	ENDS
;	COMDAT ??0?$_com_ptr_t@V?$_com_IIID@UErrors@XTPREPORTADODB@@$1?_GUID_00000501_0000_0010_8000_00aa006d2ea4@@3U__s_GUID@@A@@@@QAE@PAUErrors@XTPREPORTADODB@@_N@Z
_TEXT	SEGMENT PARA USE32 PUBLIC 'CODE'
_TEXT	ENDS
;	COMDAT ??1?$_com_ptr_t@V?$_com_IIID@UErrors@XTPREPORTADODB@@$1?_GUID_00000501_0000_0010_8000_00aa006d2ea4@@3U__s_GUID@@A@@@@QAE@XZ
_TEXT	SEGMENT PARA USE32 PUBLIC 'CODE'
_TEXT	ENDS
;	COMDAT ??0?$_com_ptr_t@V?$_com_IIID@UFields@XTPREPORTADODB@@$1?_GUID_00000564_0000_0010_8000_00aa006d2ea4@@3U__s_GUID@@A@@@@QAE@PAUFields@XTPREPORTADODB@@_N@Z
_TEXT	SEGMENT PARA USE32 PUBLIC 'CODE'
_TEXT	ENDS
;	COMDAT ??1?$_com_ptr_t@V?$_com_IIID@UFields@XTPREPORTADODB@@$1?_GUID_00000564_0000_0010_8000_00aa006d2ea4@@3U__s_GUID@@A@@@@QAE@XZ
_TEXT	SEGMENT PARA USE32 PUBLIC 'CODE'
_TEXT	ENDS
;	COMDAT ??0?$_com_ptr_t@V?$_com_IIID@UIDispatch@@$1?_GUID_00020400_0000_0000_c000_000000000046@@3U__s_GUID@@A@@@@QAE@PAUIDispatch@@_N@Z
_TEXT	SEGMENT PARA USE32 PUBLIC 'CODE'
_TEXT	ENDS
;	COMDAT ??1?$_com_ptr_t@V?$_com_IIID@UIDispatch@@$1?_GUID_00020400_0000_0000_c000_000000000046@@3U__s_GUID@@A@@@@QAE@XZ
_TEXT	SEGMENT PARA USE32 PUBLIC 'CODE'
_TEXT	ENDS
;	COMDAT ??0?$_com_ptr_t@V?$_com_IIID@UField@XTPREPORTADODB@@$1?_GUID_00000569_0000_0010_8000_00aa006d2ea4@@3U__s_GUID@@A@@@@QAE@PAUField@XTPREPORTADODB@@_N@Z
_TEXT	SEGMENT PARA USE32 PUBLIC 'CODE'
_TEXT	ENDS
;	COMDAT ??1?$_com_ptr_t@V?$_com_IIID@UField@XTPREPORTADODB@@$1?_GUID_00000569_0000_0010_8000_00aa006d2ea4@@3U__s_GUID@@A@@@@QAE@XZ
_TEXT	SEGMENT PARA USE32 PUBLIC 'CODE'
_TEXT	ENDS
;	COMDAT ??0?$_com_ptr_t@V?$_com_IIID@UTables@XTPREPORTADOX@@$1?_GUID_00000611_0000_0010_8000_00aa006d2ea4@@3U__s_GUID@@A@@@@QAE@PAUTables@XTPREPORTADOX@@_N@Z
_TEXT	SEGMENT PARA USE32 PUBLIC 'CODE'
_TEXT	ENDS
;	COMDAT ??1?$_com_ptr_t@V?$_com_IIID@UTables@XTPREPORTADOX@@$1?_GUID_00000611_0000_0010_8000_00aa006d2ea4@@3U__s_GUID@@A@@@@QAE@XZ
_TEXT	SEGMENT PARA USE32 PUBLIC 'CODE'
_TEXT	ENDS
;	COMDAT ??0?$_com_ptr_t@V?$_com_IIID@UProcedures@XTPREPORTADOX@@$1?_GUID_00000626_0000_0010_8000_00aa006d2ea4@@3U__s_GUID@@A@@@@QAE@PAUProcedures@XTPREPORTADOX@@_N@Z
_TEXT	SEGMENT PARA USE32 PUBLIC 'CODE'
_TEXT	ENDS
;	COMDAT ??1?$_com_ptr_t@V?$_com_IIID@UProcedures@XTPREPORTADOX@@$1?_GUID_00000626_0000_0010_8000_00aa006d2ea4@@3U__s_GUID@@A@@@@QAE@XZ
_TEXT	SEGMENT PARA USE32 PUBLIC 'CODE'
_TEXT	ENDS
;	COMDAT ??0?$_com_ptr_t@V?$_com_IIID@UViews@XTPREPORTADOX@@$1?_GUID_00000614_0000_0010_8000_00aa006d2ea4@@3U__s_GUID@@A@@@@QAE@PAUViews@XTPREPORTADOX@@_N@Z
_TEXT	SEGMENT PARA USE32 PUBLIC 'CODE'
_TEXT	ENDS
;	COMDAT ??1?$_com_ptr_t@V?$_com_IIID@UViews@XTPREPORTADOX@@$1?_GUID_00000614_0000_0010_8000_00aa006d2ea4@@3U__s_GUID@@A@@@@QAE@XZ
_TEXT	SEGMENT PARA USE32 PUBLIC 'CODE'
_TEXT	ENDS
;	COMDAT ??0?$_com_ptr_t@V?$_com_IIID@UGroups@XTPREPORTADOX@@$1?_GUID_00000617_0000_0010_8000_00aa006d2ea4@@3U__s_GUID@@A@@@@QAE@PAUGroups@XTPREPORTADOX@@_N@Z
_TEXT	SEGMENT PARA USE32 PUBLIC 'CODE'
_TEXT	ENDS
;	COMDAT ??1?$_com_ptr_t@V?$_com_IIID@UGroups@XTPREPORTADOX@@$1?_GUID_00000617_0000_0010_8000_00aa006d2ea4@@3U__s_GUID@@A@@@@QAE@XZ
_TEXT	SEGMENT PARA USE32 PUBLIC 'CODE'
_TEXT	ENDS
;	COMDAT ??0?$_com_ptr_t@V?$_com_IIID@UUsers@XTPREPORTADOX@@$1?_GUID_0000061a_0000_0010_8000_00aa006d2ea4@@3U__s_GUID@@A@@@@QAE@PAUUsers@XTPREPORTADOX@@_N@Z
_TEXT	SEGMENT PARA USE32 PUBLIC 'CODE'
_TEXT	ENDS
;	COMDAT ??1?$_com_ptr_t@V?$_com_IIID@UUsers@XTPREPORTADOX@@$1?_GUID_0000061a_0000_0010_8000_00aa006d2ea4@@3U__s_GUID@@A@@@@QAE@XZ
_TEXT	SEGMENT PARA USE32 PUBLIC 'CODE'
_TEXT	ENDS
;	COMDAT ??0?$_com_ptr_t@V?$_com_IIID@U_Table@XTPREPORTADOX@@$1?_GUID_00000610_0000_0010_8000_00aa006d2ea4@@3U__s_GUID@@A@@@@QAE@PAU_Table@XTPREPORTADOX@@_N@Z
_TEXT	SEGMENT PARA USE32 PUBLIC 'CODE'
_TEXT	ENDS
;	COMDAT ??1?$_com_ptr_t@V?$_com_IIID@U_Table@XTPREPORTADOX@@$1?_GUID_00000610_0000_0010_8000_00aa006d2ea4@@3U__s_GUID@@A@@@@QAE@XZ
_TEXT	SEGMENT PARA USE32 PUBLIC 'CODE'
_TEXT	ENDS
;	COMDAT ??0?$_com_ptr_t@V?$_com_IIID@UColumns@XTPREPORTADOX@@$1?_GUID_0000061d_0000_0010_8000_00aa006d2ea4@@3U__s_GUID@@A@@@@QAE@PAUColumns@XTPREPORTADOX@@_N@Z
_TEXT	SEGMENT PARA USE32 PUBLIC 'CODE'
_TEXT	ENDS
;	COMDAT ??1?$_com_ptr_t@V?$_com_IIID@UColumns@XTPREPORTADOX@@$1?_GUID_0000061d_0000_0010_8000_00aa006d2ea4@@3U__s_GUID@@A@@@@QAE@XZ
_TEXT	SEGMENT PARA USE32 PUBLIC 'CODE'
_TEXT	ENDS
;	COMDAT ??0?$_com_ptr_t@V?$_com_IIID@UIndexes@XTPREPORTADOX@@$1?_GUID_00000620_0000_0010_8000_00aa006d2ea4@@3U__s_GUID@@A@@@@QAE@PAUIndexes@XTPREPORTADOX@@_N@Z
_TEXT	SEGMENT PARA USE32 PUBLIC 'CODE'
_TEXT	ENDS
;	COMDAT ??1?$_com_ptr_t@V?$_com_IIID@UIndexes@XTPREPORTADOX@@$1?_GUID_00000620_0000_0010_8000_00aa006d2ea4@@3U__s_GUID@@A@@@@QAE@XZ
_TEXT	SEGMENT PARA USE32 PUBLIC 'CODE'
_TEXT	ENDS
;	COMDAT ??0?$_com_ptr_t@V?$_com_IIID@UKeys@XTPREPORTADOX@@$1?_GUID_00000623_0000_0010_8000_00aa006d2ea4@@3U__s_GUID@@A@@@@QAE@PAUKeys@XTPREPORTADOX@@_N@Z
_TEXT	SEGMENT PARA USE32 PUBLIC 'CODE'
_TEXT	ENDS
;	COMDAT ??1?$_com_ptr_t@V?$_com_IIID@UKeys@XTPREPORTADOX@@$1?_GUID_00000623_0000_0010_8000_00aa006d2ea4@@3U__s_GUID@@A@@@@QAE@XZ
_TEXT	SEGMENT PARA USE32 PUBLIC 'CODE'
_TEXT	ENDS
;	COMDAT ??0?$_com_ptr_t@V?$_com_IIID@UProperties@XTPREPORTADOX@@$1?_GUID_00000504_0000_0010_8000_00aa006d2ea4@@3U__s_GUID@@A@@@@QAE@PAUProperties@XTPREPORTADOX@@_N@Z
_TEXT	SEGMENT PARA USE32 PUBLIC 'CODE'
_TEXT	ENDS
;	COMDAT ??1?$_com_ptr_t@V?$_com_IIID@UProperties@XTPREPORTADOX@@$1?_GUID_00000504_0000_0010_8000_00aa006d2ea4@@3U__s_GUID@@A@@@@QAE@XZ
_TEXT	SEGMENT PARA USE32 PUBLIC 'CODE'
_TEXT	ENDS
;	COMDAT ??0?$_com_ptr_t@V?$_com_IIID@U_Catalog@XTPREPORTADOX@@$1?_GUID_00000603_0000_0010_8000_00aa006d2ea4@@3U__s_GUID@@A@@@@QAE@PAU_Catalog@XTPREPORTADOX@@_N@Z
_TEXT	SEGMENT PARA USE32 PUBLIC 'CODE'
_TEXT	ENDS
;	COMDAT ??1?$_com_ptr_t@V?$_com_IIID@U_Catalog@XTPREPORTADOX@@$1?_GUID_00000603_0000_0010_8000_00aa006d2ea4@@3U__s_GUID@@A@@@@QAE@XZ
_TEXT	SEGMENT PARA USE32 PUBLIC 'CODE'
_TEXT	ENDS
;	COMDAT ??0?$_com_ptr_t@V?$_com_IIID@U_Column@XTPREPORTADOX@@$1?_GUID_0000061c_0000_0010_8000_00aa006d2ea4@@3U__s_GUID@@A@@@@QAE@PAU_Column@XTPREPORTADOX@@_N@Z
_TEXT	SEGMENT PARA USE32 PUBLIC 'CODE'
_TEXT	ENDS
;	COMDAT ??1?$_com_ptr_t@V?$_com_IIID@U_Column@XTPREPORTADOX@@$1?_GUID_0000061c_0000_0010_8000_00aa006d2ea4@@3U__s_GUID@@A@@@@QAE@XZ
_TEXT	SEGMENT PARA USE32 PUBLIC 'CODE'
_TEXT	ENDS
;	COMDAT ??0?$_com_ptr_t@V?$_com_IIID@UProperty@XTPREPORTADOX@@$1?_GUID_00000503_0000_0010_8000_00aa006d2ea4@@3U__s_GUID@@A@@@@QAE@PAUProperty@XTPREPORTADOX@@_N@Z
_TEXT	SEGMENT PARA USE32 PUBLIC 'CODE'
_TEXT	ENDS
;	COMDAT ??1?$_com_ptr_t@V?$_com_IIID@UProperty@XTPREPORTADOX@@$1?_GUID_00000503_0000_0010_8000_00aa006d2ea4@@3U__s_GUID@@A@@@@QAE@XZ
_TEXT	SEGMENT PARA USE32 PUBLIC 'CODE'
_TEXT	ENDS
;	COMDAT ??0?$_com_ptr_t@V?$_com_IIID@U_Index@XTPREPORTADOX@@$1?_GUID_0000061f_0000_0010_8000_00aa006d2ea4@@3U__s_GUID@@A@@@@QAE@PAU_Index@XTPREPORTADOX@@_N@Z
_TEXT	SEGMENT PARA USE32 PUBLIC 'CODE'
_TEXT	ENDS
;	COMDAT ??1?$_com_ptr_t@V?$_com_IIID@U_Index@XTPREPORTADOX@@$1?_GUID_0000061f_0000_0010_8000_00aa006d2ea4@@3U__s_GUID@@A@@@@QAE@XZ
_TEXT	SEGMENT PARA USE32 PUBLIC 'CODE'
_TEXT	ENDS
;	COMDAT ??0?$_com_ptr_t@V?$_com_IIID@U_Key@XTPREPORTADOX@@$1?_GUID_00000622_0000_0010_8000_00aa006d2ea4@@3U__s_GUID@@A@@@@QAE@PAU_Key@XTPREPORTADOX@@_N@Z
_TEXT	SEGMENT PARA USE32 PUBLIC 'CODE'
_TEXT	ENDS
;	COMDAT ??1?$_com_ptr_t@V?$_com_IIID@U_Key@XTPREPORTADOX@@$1?_GUID_00000622_0000_0010_8000_00aa006d2ea4@@3U__s_GUID@@A@@@@QAE@XZ
_TEXT	SEGMENT PARA USE32 PUBLIC 'CODE'
_TEXT	ENDS
;	COMDAT ??0?$_com_ptr_t@V?$_com_IIID@UProcedure@XTPREPORTADOX@@$1?_GUID_00000625_0000_0010_8000_00aa006d2ea4@@3U__s_GUID@@A@@@@QAE@PAUProcedure@XTPREPORTADOX@@_N@Z
_TEXT	SEGMENT PARA USE32 PUBLIC 'CODE'
_TEXT	ENDS
;	COMDAT ??1?$_com_ptr_t@V?$_com_IIID@UProcedure@XTPREPORTADOX@@$1?_GUID_00000625_0000_0010_8000_00aa006d2ea4@@3U__s_GUID@@A@@@@QAE@XZ
_TEXT	SEGMENT PARA USE32 PUBLIC 'CODE'
_TEXT	ENDS
;	COMDAT ??0?$_com_ptr_t@V?$_com_IIID@UView@XTPREPORTADOX@@$1?_GUID_00000613_0000_0010_8000_00aa006d2ea4@@3U__s_GUID@@A@@@@QAE@PAUView@XTPREPORTADOX@@_N@Z
_TEXT	SEGMENT PARA USE32 PUBLIC 'CODE'
_TEXT	ENDS
;	COMDAT ??1?$_com_ptr_t@V?$_com_IIID@UView@XTPREPORTADOX@@$1?_GUID_00000613_0000_0010_8000_00aa006d2ea4@@3U__s_GUID@@A@@@@QAE@XZ
_TEXT	SEGMENT PARA USE32 PUBLIC 'CODE'
_TEXT	ENDS
;	COMDAT ??0?$_com_ptr_t@V?$_com_IIID@U_Group@XTPREPORTADOX@@$1?_GUID_00000628_0000_0010_8000_00aa006d2ea4@@3U__s_GUID@@A@@@@QAE@PAU_Group@XTPREPORTADOX@@_N@Z
_TEXT	SEGMENT PARA USE32 PUBLIC 'CODE'
_TEXT	ENDS
;	COMDAT ??1?$_com_ptr_t@V?$_com_IIID@U_Group@XTPREPORTADOX@@$1?_GUID_00000628_0000_0010_8000_00aa006d2ea4@@3U__s_GUID@@A@@@@QAE@XZ
_TEXT	SEGMENT PARA USE32 PUBLIC 'CODE'
_TEXT	ENDS
;	COMDAT ??0?$_com_ptr_t@V?$_com_IIID@U_User@XTPREPORTADOX@@$1?_GUID_00000627_0000_0010_8000_00aa006d2ea4@@3U__s_GUID@@A@@@@QAE@PAU_User@XTPREPORTADOX@@_N@Z
_TEXT	SEGMENT PARA USE32 PUBLIC 'CODE'
_TEXT	ENDS
;	COMDAT ??1?$_com_ptr_t@V?$_com_IIID@U_User@XTPREPORTADOX@@$1?_GUID_00000627_0000_0010_8000_00aa006d2ea4@@3U__s_GUID@@A@@@@QAE@XZ
_TEXT	SEGMENT PARA USE32 PUBLIC 'CODE'
_TEXT	ENDS
;	COMDAT ??1?$CXTPNotifySinkImpl@VCXTPCalendarController@@VC_m_Sink_Informator@1@@@UAE@XZ
_TEXT	SEGMENT PARA USE32 PUBLIC 'CODE'
_TEXT	ENDS
;	COMDAT ?OnEvent@?$CXTPNotifySinkImpl@VCXTPCalendarController@@VC_m_Sink_Informator@1@@@UAEXKIJK@Z
_TEXT	SEGMENT PARA USE32 PUBLIC 'CODE'
_TEXT	ENDS
;	COMDAT ??1?$CXTPCalendarViewPartCustomizableValueT@VCBrush@@@@UAE@XZ
_TEXT	SEGMENT PARA USE32 PUBLIC 'CODE'
_TEXT	ENDS
;	COMDAT ?IsDefaultValue@?$CXTPCalendarViewPartCustomizableValueT@VCBrush@@@@UBEHXZ
_TEXT	SEGMENT PARA USE32 PUBLIC 'CODE'
_TEXT	ENDS
;	COMDAT ?IsStandardValue@?$CXTPCalendarViewPartCustomizableValueT@VCBrush@@@@UBEHXZ
_TEXT	SEGMENT PARA USE32 PUBLIC 'CODE'
_TEXT	ENDS
;	COMDAT ?IsCustomValue@?$CXTPCalendarViewPartCustomizableValueT@VCBrush@@@@UBEHXZ
_TEXT	SEGMENT PARA USE32 PUBLIC 'CODE'
_TEXT	ENDS
;	COMDAT ?SetStandardValue@?$CXTPCalendarViewPartCustomizableValueT@VCBrush@@@@UAEXPAVCBrush@@H@Z
_TEXT	SEGMENT PARA USE32 PUBLIC 'CODE'
_TEXT	ENDS
;	COMDAT ?SetCustomValue@?$CXTPCalendarViewPartCustomizableValueT@VCBrush@@@@UAEXPAVCBrush@@H@Z
_TEXT	SEGMENT PARA USE32 PUBLIC 'CODE'
_TEXT	ENDS
;	COMDAT ?SetDefaultValue@?$CXTPCalendarViewPartCustomizableValueT@VCBrush@@@@UAEXXZ
_TEXT	SEGMENT PARA USE32 PUBLIC 'CODE'
_TEXT	ENDS
;	COMDAT ?GetValue@?$CXTPCalendarViewPartCustomizableValueT@VCBrush@@@@UBEPAVCBrush@@XZ
_TEXT	SEGMENT PARA USE32 PUBLIC 'CODE'
_TEXT	ENDS
;	COMDAT ?GetStandardValue@?$CXTPCalendarViewPartCustomizableValueT@VCBrush@@@@UBEPAVCBrush@@XZ
_TEXT	SEGMENT PARA USE32 PUBLIC 'CODE'
_TEXT	ENDS
;	COMDAT ??0?$CXTPCalendarViewPartCustomizableValueT@VCFont@@@@QAE@XZ
_TEXT	SEGMENT PARA USE32 PUBLIC 'CODE'
_TEXT	ENDS
;	COMDAT ??1?$CXTPCalendarViewPartCustomizableValueT@VCFont@@@@UAE@XZ
_TEXT	SEGMENT PARA USE32 PUBLIC 'CODE'
_TEXT	ENDS
;	COMDAT ?IsDefaultValue@?$CXTPCalendarViewPartCustomizableValueT@VCFont@@@@UBEHXZ
_TEXT	SEGMENT PARA USE32 PUBLIC 'CODE'
_TEXT	ENDS
;	COMDAT ?IsStandardValue@?$CXTPCalendarViewPartCustomizableValueT@VCFont@@@@UBEHXZ
_TEXT	SEGMENT PARA USE32 PUBLIC 'CODE'
_TEXT	ENDS
;	COMDAT ?IsCustomValue@?$CXTPCalendarViewPartCustomizableValueT@VCFont@@@@UBEHXZ
_TEXT	SEGMENT PARA USE32 PUBLIC 'CODE'
_TEXT	ENDS
;	COMDAT ?SetStandardValue@?$CXTPCalendarViewPartCustomizableValueT@VCFont@@@@UAEXPAVCFont@@H@Z
_TEXT	SEGMENT PARA USE32 PUBLIC 'CODE'
_TEXT	ENDS
;	COMDAT ?SetCustomValue@?$CXTPCalendarViewPartCustomizableValueT@VCFont@@@@UAEXPAVCFont@@H@Z
_TEXT	SEGMENT PARA USE32 PUBLIC 'CODE'
_TEXT	ENDS
;	COMDAT ?SetDefaultValue@?$CXTPCalendarViewPartCustomizableValueT@VCFont@@@@UAEXXZ
_TEXT	SEGMENT PARA USE32 PUBLIC 'CODE'
_TEXT	ENDS
;	COMDAT ?GetValue@?$CXTPCalendarViewPartCustomizableValueT@VCFont@@@@UBEPAVCFont@@XZ
_TEXT	SEGMENT PARA USE32 PUBLIC 'CODE'
_TEXT	ENDS
;	COMDAT ?GetStandardValue@?$CXTPCalendarViewPartCustomizableValueT@VCFont@@@@UBEPAVCFont@@XZ
_TEXT	SEGMENT PARA USE32 PUBLIC 'CODE'
_TEXT	ENDS
;	COMDAT ??B?$CXTPCalendarViewPartCustomizableValueT@VCFont@@@@QBEPAVCFont@@XZ
_TEXT	SEGMENT PARA USE32 PUBLIC 'CODE'
_TEXT	ENDS
;	COMDAT ??0?$CXTPCalendarThemeCustomizableXValueT@VCString@@PBD@@QAE@XZ
_TEXT	SEGMENT PARA USE32 PUBLIC 'CODE'
_TEXT	ENDS
;	COMDAT ??1?$CXTPCalendarThemeCustomizableXValueT@VCString@@PBD@@UAE@XZ
_TEXT	SEGMENT PARA USE32 PUBLIC 'CODE'
_TEXT	ENDS
;	COMDAT ?DoDestroy@?$CXTPCalendarThemeCustomizableXValueT@VCString@@PBD@@UAEXAAVCString@@@Z
_TEXT	SEGMENT PARA USE32 PUBLIC 'CODE'
_TEXT	ENDS
;	COMDAT ?IsDefaultValue@?$CXTPCalendarThemeCustomizableXValueT@VCString@@PBD@@UBEHXZ
_TEXT	SEGMENT PARA USE32 PUBLIC 'CODE'
_TEXT	ENDS
;	COMDAT ?IsStandardValue@?$CXTPCalendarThemeCustomizableXValueT@VCString@@PBD@@UBEHXZ
_TEXT	SEGMENT PARA USE32 PUBLIC 'CODE'
_TEXT	ENDS
;	COMDAT ?IsCustomValue@?$CXTPCalendarThemeCustomizableXValueT@VCString@@PBD@@UBEHXZ
_TEXT	SEGMENT PARA USE32 PUBLIC 'CODE'
_TEXT	ENDS
;	COMDAT ?SetStandardValue@?$CXTPCalendarThemeCustomizableXValueT@VCString@@PBD@@UAEXPBDH@Z
_TEXT	SEGMENT PARA USE32 PUBLIC 'CODE'
_TEXT	ENDS
;	COMDAT ?SetStandardValue@?$CXTPCalendarThemeCustomizableXValueT@VCString@@PBD@@UAEXPBD@Z
_TEXT	SEGMENT PARA USE32 PUBLIC 'CODE'
_TEXT	ENDS
;	COMDAT ?SetCustomValue@?$CXTPCalendarThemeCustomizableXValueT@VCString@@PBD@@UAEXPBDH@Z
_TEXT	SEGMENT PARA USE32 PUBLIC 'CODE'
_TEXT	ENDS
;	COMDAT ?SetCustomValue@?$CXTPCalendarThemeCustomizableXValueT@VCString@@PBD@@UAEXPBD@Z
_TEXT	SEGMENT PARA USE32 PUBLIC 'CODE'
_TEXT	ENDS
;	COMDAT ?SetDefaultValue@?$CXTPCalendarThemeCustomizableXValueT@VCString@@PBD@@UAEXXZ
_TEXT	SEGMENT PARA USE32 PUBLIC 'CODE'
_TEXT	ENDS
;	COMDAT ?GetValue@?$CXTPCalendarThemeCustomizableXValueT@VCString@@PBD@@UBEPBDXZ
_TEXT	SEGMENT PARA USE32 PUBLIC 'CODE'
_TEXT	ENDS
;	COMDAT ?GetValueX@?$CXTPCalendarThemeCustomizableXValueT@VCString@@PBD@@UBEABVCString@@XZ
_TEXT	SEGMENT PARA USE32 PUBLIC 'CODE'
_TEXT	ENDS
;	COMDAT ?GetStandardValue@?$CXTPCalendarThemeCustomizableXValueT@VCString@@PBD@@UBEPBDXZ
_TEXT	SEGMENT PARA USE32 PUBLIC 'CODE'
_TEXT	ENDS
;	COMDAT ?Serialize@?$CXTPCalendarThemeCustomizableXValueT@VCString@@PBD@@UAEXAAVCArchive@@@Z
_TEXT	SEGMENT PARA USE32 PUBLIC 'CODE'
_TEXT	ENDS
;	COMDAT ?DoPropExchange@?$CXTPCalendarThemeCustomizableXValueT@VCString@@PBD@@UAEXPAVCXTPPropExchange@@PBD@Z
_TEXT	SEGMENT PARA USE32 PUBLIC 'CODE'
_TEXT	ENDS
;	COMDAT ?DoPX_Value@?$CXTPCalendarThemeCustomizableXValueT@VCString@@PBD@@MAEXPAVCXTPPropExchange@@PBDAAVCString@@H@Z
_TEXT	SEGMENT PARA USE32 PUBLIC 'CODE'
_TEXT	ENDS
;	COMDAT ??0?$CXTPCalendarThemeCustomizableXValueT@HH@@QAE@XZ
_TEXT	SEGMENT PARA USE32 PUBLIC 'CODE'
_TEXT	ENDS
;	COMDAT ??1?$CXTPCalendarThemeCustomizableXValueT@HH@@UAE@XZ
_TEXT	SEGMENT PARA USE32 PUBLIC 'CODE'
_TEXT	ENDS
;	COMDAT ?DoDestroy@?$CXTPCalendarThemeCustomizableXValueT@HH@@UAEXAAH@Z
_TEXT	SEGMENT PARA USE32 PUBLIC 'CODE'
_TEXT	ENDS
;	COMDAT ?IsDefaultValue@?$CXTPCalendarThemeCustomizableXValueT@HH@@UBEHXZ
_TEXT	SEGMENT PARA USE32 PUBLIC 'CODE'
_TEXT	ENDS
;	COMDAT ?IsStandardValue@?$CXTPCalendarThemeCustomizableXValueT@HH@@UBEHXZ
_TEXT	SEGMENT PARA USE32 PUBLIC 'CODE'
_TEXT	ENDS
;	COMDAT ?IsCustomValue@?$CXTPCalendarThemeCustomizableXValueT@HH@@UBEHXZ
_TEXT	SEGMENT PARA USE32 PUBLIC 'CODE'
_TEXT	ENDS
;	COMDAT ?SetStandardValue@?$CXTPCalendarThemeCustomizableXValueT@HH@@UAEXHH@Z
_TEXT	SEGMENT PARA USE32 PUBLIC 'CODE'
_TEXT	ENDS
;	COMDAT ?SetStandardValue@?$CXTPCalendarThemeCustomizableXValueT@HH@@UAEXH@Z
_TEXT	SEGMENT PARA USE32 PUBLIC 'CODE'
_TEXT	ENDS
;	COMDAT ?SetCustomValue@?$CXTPCalendarThemeCustomizableXValueT@HH@@UAEXHH@Z
_TEXT	SEGMENT PARA USE32 PUBLIC 'CODE'
_TEXT	ENDS
;	COMDAT ?SetCustomValue@?$CXTPCalendarThemeCustomizableXValueT@HH@@UAEXH@Z
_TEXT	SEGMENT PARA USE32 PUBLIC 'CODE'
_TEXT	ENDS
;	COMDAT ?SetDefaultValue@?$CXTPCalendarThemeCustomizableXValueT@HH@@UAEXXZ
_TEXT	SEGMENT PARA USE32 PUBLIC 'CODE'
_TEXT	ENDS
;	COMDAT ?GetValue@?$CXTPCalendarThemeCustomizableXValueT@HH@@UBEHXZ
_TEXT	SEGMENT PARA USE32 PUBLIC 'CODE'
_TEXT	ENDS
;	COMDAT ?GetValueX@?$CXTPCalendarThemeCustomizableXValueT@HH@@UBEABHXZ
_TEXT	SEGMENT PARA USE32 PUBLIC 'CODE'
_TEXT	ENDS
;	COMDAT ?GetStandardValue@?$CXTPCalendarThemeCustomizableXValueT@HH@@UBEHXZ
_TEXT	SEGMENT PARA USE32 PUBLIC 'CODE'
_TEXT	ENDS
;	COMDAT ?CopySettings@?$CXTPCalendarThemeCustomizableXValueT@HH@@QAEXABV1@@Z
_TEXT	SEGMENT PARA USE32 PUBLIC 'CODE'
_TEXT	ENDS
;	COMDAT ?Serialize@?$CXTPCalendarThemeCustomizableXValueT@HH@@UAEXAAVCArchive@@@Z
_TEXT	SEGMENT PARA USE32 PUBLIC 'CODE'
_TEXT	ENDS
;	COMDAT ?DoPropExchange@?$CXTPCalendarThemeCustomizableXValueT@HH@@UAEXPAVCXTPPropExchange@@PBD@Z
_TEXT	SEGMENT PARA USE32 PUBLIC 'CODE'
_TEXT	ENDS
;	COMDAT ?DoPX_Value@?$CXTPCalendarThemeCustomizableXValueT@HH@@MAEXPAVCXTPPropExchange@@PBDAAHH@Z
_TEXT	SEGMENT PARA USE32 PUBLIC 'CODE'
_TEXT	ENDS
;	COMDAT ??0?$CXTPCalendarThemeCustomizableXValueT@VCRect@@V1@@@QAE@XZ
_TEXT	SEGMENT PARA USE32 PUBLIC 'CODE'
_TEXT	ENDS
;	COMDAT ??1?$CXTPCalendarThemeCustomizableXValueT@VCRect@@V1@@@UAE@XZ
_TEXT	SEGMENT PARA USE32 PUBLIC 'CODE'
_TEXT	ENDS
;	COMDAT ?DoDestroy@?$CXTPCalendarThemeCustomizableXValueT@VCRect@@V1@@@UAEXAAVCRect@@@Z
_TEXT	SEGMENT PARA USE32 PUBLIC 'CODE'
_TEXT	ENDS
;	COMDAT ?IsDefaultValue@?$CXTPCalendarThemeCustomizableXValueT@VCRect@@V1@@@UBEHXZ
_TEXT	SEGMENT PARA USE32 PUBLIC 'CODE'
_TEXT	ENDS
;	COMDAT ?IsStandardValue@?$CXTPCalendarThemeCustomizableXValueT@VCRect@@V1@@@UBEHXZ
_TEXT	SEGMENT PARA USE32 PUBLIC 'CODE'
_TEXT	ENDS
;	COMDAT ?IsCustomValue@?$CXTPCalendarThemeCustomizableXValueT@VCRect@@V1@@@UBEHXZ
_TEXT	SEGMENT PARA USE32 PUBLIC 'CODE'
_TEXT	ENDS
;	COMDAT ?SetStandardValue@?$CXTPCalendarThemeCustomizableXValueT@VCRect@@V1@@@UAEXVCRect@@H@Z
_TEXT	SEGMENT PARA USE32 PUBLIC 'CODE'
_TEXT	ENDS
;	COMDAT ?SetStandardValue@?$CXTPCalendarThemeCustomizableXValueT@VCRect@@V1@@@UAEXVCRect@@@Z
_TEXT	SEGMENT PARA USE32 PUBLIC 'CODE'
_TEXT	ENDS
;	COMDAT ?SetCustomValue@?$CXTPCalendarThemeCustomizableXValueT@VCRect@@V1@@@UAEXVCRect@@H@Z
_TEXT	SEGMENT PARA USE32 PUBLIC 'CODE'
_TEXT	ENDS
;	COMDAT ?SetCustomValue@?$CXTPCalendarThemeCustomizableXValueT@VCRect@@V1@@@UAEXVCRect@@@Z
_TEXT	SEGMENT PARA USE32 PUBLIC 'CODE'
_TEXT	ENDS
;	COMDAT ?SetDefaultValue@?$CXTPCalendarThemeCustomizableXValueT@VCRect@@V1@@@UAEXXZ
_TEXT	SEGMENT PARA USE32 PUBLIC 'CODE'
_TEXT	ENDS
;	COMDAT ?GetValue@?$CXTPCalendarThemeCustomizableXValueT@VCRect@@V1@@@UBE?AVCRect@@XZ
_TEXT	SEGMENT PARA USE32 PUBLIC 'CODE'
_TEXT	ENDS
;	COMDAT ?GetValueX@?$CXTPCalendarThemeCustomizableXValueT@VCRect@@V1@@@UBEABVCRect@@XZ
_TEXT	SEGMENT PARA USE32 PUBLIC 'CODE'
_TEXT	ENDS
;	COMDAT ?GetStandardValue@?$CXTPCalendarThemeCustomizableXValueT@VCRect@@V1@@@UBE?AVCRect@@XZ
_TEXT	SEGMENT PARA USE32 PUBLIC 'CODE'
_TEXT	ENDS
;	COMDAT ?CopySettings@?$CXTPCalendarThemeCustomizableXValueT@VCRect@@V1@@@QAEXABV1@@Z
_TEXT	SEGMENT PARA USE32 PUBLIC 'CODE'
_TEXT	ENDS
;	COMDAT ?Serialize@?$CXTPCalendarThemeCustomizableXValueT@VCRect@@V1@@@UAEXAAVCArchive@@@Z
_TEXT	SEGMENT PARA USE32 PUBLIC 'CODE'
_TEXT	ENDS
;	COMDAT ?DoPropExchange@?$CXTPCalendarThemeCustomizableXValueT@VCRect@@V1@@@UAEXPAVCXTPPropExchange@@PBD@Z
_TEXT	SEGMENT PARA USE32 PUBLIC 'CODE'
_TEXT	ENDS
;	COMDAT ?DoPX_Value@?$CXTPCalendarThemeCustomizableXValueT@VCRect@@V1@@@MAEXPAVCXTPPropExchange@@PBDAAVCRect@@H@Z
_TEXT	SEGMENT PARA USE32 PUBLIC 'CODE'
_TEXT	ENDS
;	COMDAT ??0?$CXTPNotifySinkImpl@VCXTPDatePickerTheme@@VC_m_Sink_Informator@1@@@QAE@XZ
_TEXT	SEGMENT PARA USE32 PUBLIC 'CODE'
_TEXT	ENDS
;	COMDAT ??1?$CXTPNotifySinkImpl@VCXTPDatePickerTheme@@VC_m_Sink_Informator@1@@@UAE@XZ
_TEXT	SEGMENT PARA USE32 PUBLIC 'CODE'
_TEXT	ENDS
;	COMDAT ?OnEvent@?$CXTPNotifySinkImpl@VCXTPDatePickerTheme@@VC_m_Sink_Informator@1@@@UAEXKIJK@Z
_TEXT	SEGMENT PARA USE32 PUBLIC 'CODE'
_TEXT	ENDS
;	COMDAT ??1?$CXTPNotifySinkImpl@VCXTPCalendarControl@@VC_m_Sink_DP_Informator@1@@@UAE@XZ
_TEXT	SEGMENT PARA USE32 PUBLIC 'CODE'
_TEXT	ENDS
;	COMDAT ?OnEvent@?$CXTPNotifySinkImpl@VCXTPCalendarControl@@VC_m_Sink_DP_Informator@1@@@UAEXKIJK@Z
_TEXT	SEGMENT PARA USE32 PUBLIC 'CODE'
_TEXT	ENDS
;	COMDAT ??1?$CXTPSmartPtrInternalT@VCXTPCalendarRecurrencePattern@@@@UAE@XZ
_TEXT	SEGMENT PARA USE32 PUBLIC 'CODE'
_TEXT	ENDS
;	COMDAT ??0?$CXTPSmartPtrInternalT@VCXTPCalendarEvent@@@@QAE@PAVCXTPCalendarEvent@@H@Z
_TEXT	SEGMENT PARA USE32 PUBLIC 'CODE'
_TEXT	ENDS
;	COMDAT ??0?$CXTPSmartPtrInternalT@VCXTPCalendarEvent@@@@QAE@ABV0@@Z
_TEXT	SEGMENT PARA USE32 PUBLIC 'CODE'
_TEXT	ENDS
;	COMDAT ??1?$CXTPSmartPtrInternalT@VCXTPCalendarEvent@@@@UAE@XZ
_TEXT	SEGMENT PARA USE32 PUBLIC 'CODE'
_TEXT	ENDS
;	COMDAT ??4?$CXTPSmartPtrInternalT@VCXTPCalendarEvent@@@@QAEABV0@ABV0@@Z
_TEXT	SEGMENT PARA USE32 PUBLIC 'CODE'
_TEXT	ENDS
;	COMDAT ??C?$CXTPSmartPtrInternalT@VCXTPCalendarEvent@@@@QBEPAVCXTPCalendarEvent@@XZ
_TEXT	SEGMENT PARA USE32 PUBLIC 'CODE'
_TEXT	ENDS
;	COMDAT ??B?$CXTPSmartPtrInternalT@VCXTPCalendarEvent@@@@QBEPAVCXTPCalendarEvent@@XZ
_TEXT	SEGMENT PARA USE32 PUBLIC 'CODE'
_TEXT	ENDS
;	COMDAT ??1?$CXTPSmartPtrInternalT@VCXTPCalendarViewEvent@@@@UAE@XZ
_TEXT	SEGMENT PARA USE32 PUBLIC 'CODE'
_TEXT	ENDS
;	COMDAT ??B?$CXTPSmartPtrInternalT@VCXTPCalendarViewEvent@@@@QBEPAVCXTPCalendarViewEvent@@XZ
_TEXT	SEGMENT PARA USE32 PUBLIC 'CODE'
_TEXT	ENDS
;	COMDAT ??1?$CXTPCalendarTypedPtrAutoDeleteArray@VCPtrArray@@PAVCXTPCalendarViewPartBrushValue@@@@UAE@XZ
_TEXT	SEGMENT PARA USE32 PUBLIC 'CODE'
_TEXT	ENDS
;	COMDAT ?RemoveAll@?$CXTPCalendarTypedPtrAutoDeleteArray@VCPtrArray@@PAVCXTPCalendarViewPartBrushValue@@@@UAEXXZ
_TEXT	SEGMENT PARA USE32 PUBLIC 'CODE'
_TEXT	ENDS
;	COMDAT ??1?$CXTPCalendarViewEventT@VCXTPCalendarDayViewGroup@@UXTP_CALENDAR_HITTESTINFO_DAY_VIEW@@@@UAE@XZ
_TEXT	SEGMENT PARA USE32 PUBLIC 'CODE'
_TEXT	ENDS
;	COMDAT ?HitTest@?$CXTPCalendarViewEventT@VCXTPCalendarDayViewGroup@@UXTP_CALENDAR_HITTESTINFO_DAY_VIEW@@@@UAEHVCPoint@@PAUXTP_CALENDAR_HITTESTINFO@@@Z
_TEXT	SEGMENT PARA USE32 PUBLIC 'CODE'
_TEXT	ENDS
;	COMDAT ?GetViewGroup_@?$CXTPCalendarViewEventT@VCXTPCalendarDayViewGroup@@UXTP_CALENDAR_HITTESTINFO_DAY_VIEW@@@@UBEPAVCXTPCalendarViewGroup@@XZ
_TEXT	SEGMENT PARA USE32 PUBLIC 'CODE'
_TEXT	ENDS
;	COMDAT ??1?$CXTPCalendarViewGroupT@VCXTPCalendarDayViewDay@@VCXTPCalendarDayViewEvent@@UXTP_CALENDAR_HITTESTINFO_DAY_VIEW@@VCXTPCalendarDayViewGroup@@@@UAE@XZ
_TEXT	SEGMENT PARA USE32 PUBLIC 'CODE'
_TEXT	ENDS
;	COMDAT ?HitTest@?$CXTPCalendarViewGroupT@VCXTPCalendarDayViewDay@@VCXTPCalendarDayViewEvent@@UXTP_CALENDAR_HITTESTINFO_DAY_VIEW@@VCXTPCalendarDayViewGroup@@@@UAEHVCPoint@@PAUXTP_CALENDAR_HITTESTINFO@@@Z
_TEXT	SEGMENT PARA USE32 PUBLIC 'CODE'
_TEXT	ENDS
;	COMDAT ?HitTestEx@?$CXTPCalendarViewGroupT@VCXTPCalendarDayViewDay@@VCXTPCalendarDayViewEvent@@UXTP_CALENDAR_HITTESTINFO_DAY_VIEW@@VCXTPCalendarDayViewGroup@@@@UAEHVCPoint@@PAUXTP_CALENDAR_HITTESTINFO_DAY_VIEW@@@Z
_TEXT	SEGMENT PARA USE32 PUBLIC 'CODE'
_TEXT	ENDS
;	COMDAT ?GetViewDay_@?$CXTPCalendarViewGroupT@VCXTPCalendarDayViewDay@@VCXTPCalendarDayViewEvent@@UXTP_CALENDAR_HITTESTINFO_DAY_VIEW@@VCXTPCalendarDayViewGroup@@@@UBEPAVCXTPCalendarViewDay@@XZ
_TEXT	SEGMENT PARA USE32 PUBLIC 'CODE'
_TEXT	ENDS
;	COMDAT ?GetViewEventsCount@?$CXTPCalendarViewGroupT@VCXTPCalendarDayViewDay@@VCXTPCalendarDayViewEvent@@UXTP_CALENDAR_HITTESTINFO_DAY_VIEW@@VCXTPCalendarDayViewGroup@@@@UAEHXZ
_TEXT	SEGMENT PARA USE32 PUBLIC 'CODE'
_TEXT	ENDS
;	COMDAT ?GetViewEvent@?$CXTPCalendarViewGroupT@VCXTPCalendarDayViewDay@@VCXTPCalendarDayViewEvent@@UXTP_CALENDAR_HITTESTINFO_DAY_VIEW@@VCXTPCalendarDayViewGroup@@@@UAEPAVCXTPCalendarDayViewEvent@@H@Z
_TEXT	SEGMENT PARA USE32 PUBLIC 'CODE'
_TEXT	ENDS
;	COMDAT ?GetViewEvent_@?$CXTPCalendarViewGroupT@VCXTPCalendarDayViewDay@@VCXTPCalendarDayViewEvent@@UXTP_CALENDAR_HITTESTINFO_DAY_VIEW@@VCXTPCalendarDayViewGroup@@@@UAEPAVCXTPCalendarViewEvent@@H@Z
_TEXT	SEGMENT PARA USE32 PUBLIC 'CODE'
_TEXT	ENDS
;	COMDAT ?Populate@?$CXTPCalendarViewGroupT@VCXTPCalendarDayViewDay@@VCXTPCalendarDayViewEvent@@UXTP_CALENDAR_HITTESTINFO_DAY_VIEW@@VCXTPCalendarDayViewGroup@@@@UAEXVCOleDateTime@@@Z
_TEXT	SEGMENT PARA USE32 PUBLIC 'CODE'
_TEXT	ENDS
;	COMDAT ??1?$CXTPCalendarViewDayT@VCXTPCalendarDayView@@VCXTPCalendarDayViewGroup@@UXTP_CALENDAR_HITTESTINFO_DAY_VIEW@@VCXTPCalendarDayViewDay@@@@UAE@XZ
_TEXT	SEGMENT PARA USE32 PUBLIC 'CODE'
_TEXT	ENDS
;	COMDAT ?HitTest@?$CXTPCalendarViewDayT@VCXTPCalendarDayView@@VCXTPCalendarDayViewGroup@@UXTP_CALENDAR_HITTESTINFO_DAY_VIEW@@VCXTPCalendarDayViewDay@@@@UAEHVCPoint@@PAUXTP_CALENDAR_HITTESTINFO@@@Z
_TEXT	SEGMENT PARA USE32 PUBLIC 'CODE'
_TEXT	ENDS
;	COMDAT ?HitTestEx@?$CXTPCalendarViewDayT@VCXTPCalendarDayView@@VCXTPCalendarDayViewGroup@@UXTP_CALENDAR_HITTESTINFO_DAY_VIEW@@VCXTPCalendarDayViewDay@@@@UAEHVCPoint@@PAUXTP_CALENDAR_HITTESTINFO_DAY_VIEW@@@Z
_TEXT	SEGMENT PARA USE32 PUBLIC 'CODE'
_TEXT	ENDS
;	COMDAT ?GetView_@?$CXTPCalendarViewDayT@VCXTPCalendarDayView@@VCXTPCalendarDayViewGroup@@UXTP_CALENDAR_HITTESTINFO_DAY_VIEW@@VCXTPCalendarDayViewDay@@@@UBEPAVCXTPCalendarView@@XZ
_TEXT	SEGMENT PARA USE32 PUBLIC 'CODE'
_TEXT	ENDS
;	COMDAT ?GetViewGroupsCount@?$CXTPCalendarViewDayT@VCXTPCalendarDayView@@VCXTPCalendarDayViewGroup@@UXTP_CALENDAR_HITTESTINFO_DAY_VIEW@@VCXTPCalendarDayViewDay@@@@UAEHXZ
_TEXT	SEGMENT PARA USE32 PUBLIC 'CODE'
_TEXT	ENDS
;	COMDAT ?GetViewGroup@?$CXTPCalendarViewDayT@VCXTPCalendarDayView@@VCXTPCalendarDayViewGroup@@UXTP_CALENDAR_HITTESTINFO_DAY_VIEW@@VCXTPCalendarDayViewDay@@@@UAEPAVCXTPCalendarDayViewGroup@@H@Z
_TEXT	SEGMENT PARA USE32 PUBLIC 'CODE'
_TEXT	ENDS
;	COMDAT ?GetViewGroup_@?$CXTPCalendarViewDayT@VCXTPCalendarDayView@@VCXTPCalendarDayViewGroup@@UXTP_CALENDAR_HITTESTINFO_DAY_VIEW@@VCXTPCalendarDayViewDay@@@@UAEPAVCXTPCalendarViewGroup@@H@Z
_TEXT	SEGMENT PARA USE32 PUBLIC 'CODE'
_TEXT	ENDS
;	COMDAT ?Populate@?$CXTPCalendarViewDayT@VCXTPCalendarDayView@@VCXTPCalendarDayViewGroup@@UXTP_CALENDAR_HITTESTINFO_DAY_VIEW@@VCXTPCalendarDayViewDay@@@@UAEXVCOleDateTime@@@Z
_TEXT	SEGMENT PARA USE32 PUBLIC 'CODE'
_TEXT	ENDS
;	COMDAT ?AdjustLayout@?$CXTPCalendarViewDayT@VCXTPCalendarDayView@@VCXTPCalendarDayViewGroup@@UXTP_CALENDAR_HITTESTINFO_DAY_VIEW@@VCXTPCalendarDayViewDay@@@@UAEXPAVCDC@@ABVCRect@@@Z
_TEXT	SEGMENT PARA USE32 PUBLIC 'CODE'
_TEXT	ENDS
;	COMDAT ?NoAllEventsAreVisible@?$CXTPCalendarViewDayT@VCXTPCalendarDayView@@VCXTPCalendarDayViewGroup@@UXTP_CALENDAR_HITTESTINFO_DAY_VIEW@@VCXTPCalendarDayViewDay@@@@UAEHXZ
_TEXT	SEGMENT PARA USE32 PUBLIC 'CODE'
_TEXT	ENDS
;	COMDAT ??1?$CXTPCalendarViewT@VCXTPCalendarDayViewDay@@UXTP_CALENDAR_HITTESTINFO_DAY_VIEW@@@@UAE@XZ
_TEXT	SEGMENT PARA USE32 PUBLIC 'CODE'
_TEXT	ENDS
;	COMDAT ?GetViewType@?$CXTPCalendarViewT@VCXTPCalendarDayViewDay@@UXTP_CALENDAR_HITTESTINFO_DAY_VIEW@@@@UAE?AW4XTPCalendarViewType@@XZ
_TEXT	SEGMENT PARA USE32 PUBLIC 'CODE'
_TEXT	ENDS
;	COMDAT ?GetViewDayCount@?$CXTPCalendarViewT@VCXTPCalendarDayViewDay@@UXTP_CALENDAR_HITTESTINFO_DAY_VIEW@@@@UAEHXZ
_TEXT	SEGMENT PARA USE32 PUBLIC 'CODE'
_TEXT	ENDS
;	COMDAT ?GetViewDay_@?$CXTPCalendarViewT@VCXTPCalendarDayViewDay@@UXTP_CALENDAR_HITTESTINFO_DAY_VIEW@@@@UAEPAVCXTPCalendarViewDay@@H@Z
_TEXT	SEGMENT PARA USE32 PUBLIC 'CODE'
_TEXT	ENDS
;	COMDAT ?GetViewDay@?$CXTPCalendarViewT@VCXTPCalendarDayViewDay@@UXTP_CALENDAR_HITTESTINFO_DAY_VIEW@@@@UAEPAVCXTPCalendarDayViewDay@@H@Z
_TEXT	SEGMENT PARA USE32 PUBLIC 'CODE'
_TEXT	ENDS
;	COMDAT ?HitTest@?$CXTPCalendarViewT@VCXTPCalendarDayViewDay@@UXTP_CALENDAR_HITTESTINFO_DAY_VIEW@@@@UAEHVCPoint@@PAUXTP_CALENDAR_HITTESTINFO@@@Z
_TEXT	SEGMENT PARA USE32 PUBLIC 'CODE'
_TEXT	ENDS
;	COMDAT ?HitTestEx@?$CXTPCalendarViewT@VCXTPCalendarDayViewDay@@UXTP_CALENDAR_HITTESTINFO_DAY_VIEW@@@@UAEHVCPoint@@PAUXTP_CALENDAR_HITTESTINFO_DAY_VIEW@@@Z
_TEXT	SEGMENT PARA USE32 PUBLIC 'CODE'
_TEXT	ENDS
;	COMDAT ??1?$CXTPNotifySinkImpl@VCXTPCalendarCaptionBarTheme@@VC_m_Sink_Informator@1@@@UAE@XZ
_TEXT	SEGMENT PARA USE32 PUBLIC 'CODE'
_TEXT	ENDS
;	COMDAT ?OnEvent@?$CXTPNotifySinkImpl@VCXTPCalendarCaptionBarTheme@@VC_m_Sink_Informator@1@@@UAEXKIJK@Z
_TEXT	SEGMENT PARA USE32 PUBLIC 'CODE'
_TEXT	ENDS
;	COMDAT ??1?$CXTPNotifySinkImpl@VCXTPCalendarControlView@@VC_m_Sink_Informator@1@@@UAE@XZ
_TEXT	SEGMENT PARA USE32 PUBLIC 'CODE'
_TEXT	ENDS
;	COMDAT ?OnEvent@?$CXTPNotifySinkImpl@VCXTPCalendarControlView@@VC_m_Sink_Informator@1@@@UAEXKIJK@Z
_TEXT	SEGMENT PARA USE32 PUBLIC 'CODE'
_TEXT	ENDS
;	COMDAT ??1?$CXTPSmartPtrInternalT@VCCmdTarget@@@@UAE@XZ
_TEXT	SEGMENT PARA USE32 PUBLIC 'CODE'
_TEXT	ENDS
;	COMDAT ??1?$EventsMapByID_T@VCXTPCalendarEvent@@@CXTPCalendarData@@UAE@XZ
_TEXT	SEGMENT PARA USE32 PUBLIC 'CODE'
_TEXT	ENDS
;	COMDAT ??1?$EventsMapByID_T@VCXTPCalendarRecurrencePattern@@@CXTPCalendarData@@UAE@XZ
_TEXT	SEGMENT PARA USE32 PUBLIC 'CODE'
_TEXT	ENDS
;	COMDAT ??0?$_com_ptr_t@V?$_com_IIID@UProperties@XTPADODB@@$1?_GUID_00000504_0000_0010_8000_00aa006d2ea4@@3U__s_GUID@@A@@@@QAE@PAUProperties@XTPADODB@@_N@Z
_TEXT	SEGMENT PARA USE32 PUBLIC 'CODE'
_TEXT	ENDS
;	COMDAT ??1?$_com_ptr_t@V?$_com_IIID@UProperties@XTPADODB@@$1?_GUID_00000504_0000_0010_8000_00aa006d2ea4@@3U__s_GUID@@A@@@@QAE@XZ
_TEXT	SEGMENT PARA USE32 PUBLIC 'CODE'
_TEXT	ENDS
;	COMDAT ??0?$_com_ptr_t@V?$_com_IIID@UProperty@XTPADODB@@$1?_GUID_00000503_0000_0010_8000_00aa006d2ea4@@3U__s_GUID@@A@@@@QAE@PAUProperty@XTPADODB@@_N@Z
_TEXT	SEGMENT PARA USE32 PUBLIC 'CODE'
_TEXT	ENDS
;	COMDAT ??1?$_com_ptr_t@V?$_com_IIID@UProperty@XTPADODB@@$1?_GUID_00000503_0000_0010_8000_00aa006d2ea4@@3U__s_GUID@@A@@@@QAE@XZ
_TEXT	SEGMENT PARA USE32 PUBLIC 'CODE'
_TEXT	ENDS
;	COMDAT ??0?$_com_ptr_t@V?$_com_IIID@UError@XTPADODB@@$1?_GUID_00000500_0000_0010_8000_00aa006d2ea4@@3U__s_GUID@@A@@@@QAE@PAUError@XTPADODB@@_N@Z
_TEXT	SEGMENT PARA USE32 PUBLIC 'CODE'
_TEXT	ENDS
;	COMDAT ??1?$_com_ptr_t@V?$_com_IIID@UError@XTPADODB@@$1?_GUID_00000500_0000_0010_8000_00aa006d2ea4@@3U__s_GUID@@A@@@@QAE@XZ
_TEXT	SEGMENT PARA USE32 PUBLIC 'CODE'
_TEXT	ENDS
;	COMDAT ??0?$_com_ptr_t@V?$_com_IIID@U_Connection@XTPADODB@@$1?_GUID_00000550_0000_0010_8000_00aa006d2ea4@@3U__s_GUID@@A@@@@QAE@PAU_Connection@XTPADODB@@_N@Z
_TEXT	SEGMENT PARA USE32 PUBLIC 'CODE'
_TEXT	ENDS
;	COMDAT ??1?$_com_ptr_t@V?$_com_IIID@U_Connection@XTPADODB@@$1?_GUID_00000550_0000_0010_8000_00aa006d2ea4@@3U__s_GUID@@A@@@@QAE@XZ
_TEXT	SEGMENT PARA USE32 PUBLIC 'CODE'
_TEXT	ENDS
;	COMDAT ??0?$_com_ptr_t@V?$_com_IIID@U_Recordset@XTPADODB@@$1?_GUID_00000556_0000_0010_8000_00aa006d2ea4@@3U__s_GUID@@A@@@@QAE@PAU_Recordset@XTPADODB@@_N@Z
_TEXT	SEGMENT PARA USE32 PUBLIC 'CODE'
_TEXT	ENDS
;	COMDAT ??1?$_com_ptr_t@V?$_com_IIID@U_Recordset@XTPADODB@@$1?_GUID_00000556_0000_0010_8000_00aa006d2ea4@@3U__s_GUID@@A@@@@QAE@XZ
_TEXT	SEGMENT PARA USE32 PUBLIC 'CODE'
_TEXT	ENDS
;	COMDAT ??0?$_com_ptr_t@V?$_com_IIID@U_Parameter@XTPADODB@@$1?_GUID_0000050c_0000_0010_8000_00aa006d2ea4@@3U__s_GUID@@A@@@@QAE@PAU_Parameter@XTPADODB@@_N@Z
_TEXT	SEGMENT PARA USE32 PUBLIC 'CODE'
_TEXT	ENDS
;	COMDAT ??1?$_com_ptr_t@V?$_com_IIID@U_Parameter@XTPADODB@@$1?_GUID_0000050c_0000_0010_8000_00aa006d2ea4@@3U__s_GUID@@A@@@@QAE@XZ
_TEXT	SEGMENT PARA USE32 PUBLIC 'CODE'
_TEXT	ENDS
;	COMDAT ??0?$_com_ptr_t@V?$_com_IIID@UParameters@XTPADODB@@$1?_GUID_0000050d_0000_0010_8000_00aa006d2ea4@@3U__s_GUID@@A@@@@QAE@PAUParameters@XTPADODB@@_N@Z
_TEXT	SEGMENT PARA USE32 PUBLIC 'CODE'
_TEXT	ENDS
;	COMDAT ??1?$_com_ptr_t@V?$_com_IIID@UParameters@XTPADODB@@$1?_GUID_0000050d_0000_0010_8000_00aa006d2ea4@@3U__s_GUID@@A@@@@QAE@XZ
_TEXT	SEGMENT PARA USE32 PUBLIC 'CODE'
_TEXT	ENDS
;	COMDAT ??0?$_com_ptr_t@V?$_com_IIID@UErrors@XTPADODB@@$1?_GUID_00000501_0000_0010_8000_00aa006d2ea4@@3U__s_GUID@@A@@@@QAE@PAUErrors@XTPADODB@@_N@Z
_TEXT	SEGMENT PARA USE32 PUBLIC 'CODE'
_TEXT	ENDS
;	COMDAT ??1?$_com_ptr_t@V?$_com_IIID@UErrors@XTPADODB@@$1?_GUID_00000501_0000_0010_8000_00aa006d2ea4@@3U__s_GUID@@A@@@@QAE@XZ
_TEXT	SEGMENT PARA USE32 PUBLIC 'CODE'
_TEXT	ENDS
;	COMDAT ??0?$_com_ptr_t@V?$_com_IIID@UFields@XTPADODB@@$1?_GUID_00000564_0000_0010_8000_00aa006d2ea4@@3U__s_GUID@@A@@@@QAE@PAUFields@XTPADODB@@_N@Z
_TEXT	SEGMENT PARA USE32 PUBLIC 'CODE'
_TEXT	ENDS
;	COMDAT ??1?$_com_ptr_t@V?$_com_IIID@UFields@XTPADODB@@$1?_GUID_00000564_0000_0010_8000_00aa006d2ea4@@3U__s_GUID@@A@@@@QAE@XZ
_TEXT	SEGMENT PARA USE32 PUBLIC 'CODE'
_TEXT	ENDS
;	COMDAT ??0?$_com_ptr_t@V?$_com_IIID@UField@XTPADODB@@$1?_GUID_00000569_0000_0010_8000_00aa006d2ea4@@3U__s_GUID@@A@@@@QAE@PAUField@XTPADODB@@_N@Z
_TEXT	SEGMENT PARA USE32 PUBLIC 'CODE'
_TEXT	ENDS
;	COMDAT ??1?$_com_ptr_t@V?$_com_IIID@UField@XTPADODB@@$1?_GUID_00000569_0000_0010_8000_00aa006d2ea4@@3U__s_GUID@@A@@@@QAE@XZ
_TEXT	SEGMENT PARA USE32 PUBLIC 'CODE'
_TEXT	ENDS
;	COMDAT ??0?$_com_ptr_t@V?$_com_IIID@UTables@XTPADOX@@$1?_GUID_00000611_0000_0010_8000_00aa006d2ea4@@3U__s_GUID@@A@@@@QAE@PAUTables@XTPADOX@@_N@Z
_TEXT	SEGMENT PARA USE32 PUBLIC 'CODE'
_TEXT	ENDS
;	COMDAT ??1?$_com_ptr_t@V?$_com_IIID@UTables@XTPADOX@@$1?_GUID_00000611_0000_0010_8000_00aa006d2ea4@@3U__s_GUID@@A@@@@QAE@XZ
_TEXT	SEGMENT PARA USE32 PUBLIC 'CODE'
_TEXT	ENDS
;	COMDAT ??0?$_com_ptr_t@V?$_com_IIID@UProcedures@XTPADOX@@$1?_GUID_00000626_0000_0010_8000_00aa006d2ea4@@3U__s_GUID@@A@@@@QAE@PAUProcedures@XTPADOX@@_N@Z
_TEXT	SEGMENT PARA USE32 PUBLIC 'CODE'
_TEXT	ENDS
;	COMDAT ??1?$_com_ptr_t@V?$_com_IIID@UProcedures@XTPADOX@@$1?_GUID_00000626_0000_0010_8000_00aa006d2ea4@@3U__s_GUID@@A@@@@QAE@XZ
_TEXT	SEGMENT PARA USE32 PUBLIC 'CODE'
_TEXT	ENDS
;	COMDAT ??0?$_com_ptr_t@V?$_com_IIID@UViews@XTPADOX@@$1?_GUID_00000614_0000_0010_8000_00aa006d2ea4@@3U__s_GUID@@A@@@@QAE@PAUViews@XTPADOX@@_N@Z
_TEXT	SEGMENT PARA USE32 PUBLIC 'CODE'
_TEXT	ENDS
;	COMDAT ??1?$_com_ptr_t@V?$_com_IIID@UViews@XTPADOX@@$1?_GUID_00000614_0000_0010_8000_00aa006d2ea4@@3U__s_GUID@@A@@@@QAE@XZ
_TEXT	SEGMENT PARA USE32 PUBLIC 'CODE'
_TEXT	ENDS
;	COMDAT ??0?$_com_ptr_t@V?$_com_IIID@UGroups@XTPADOX@@$1?_GUID_00000617_0000_0010_8000_00aa006d2ea4@@3U__s_GUID@@A@@@@QAE@PAUGroups@XTPADOX@@_N@Z
_TEXT	SEGMENT PARA USE32 PUBLIC 'CODE'
_TEXT	ENDS
;	COMDAT ??1?$_com_ptr_t@V?$_com_IIID@UGroups@XTPADOX@@$1?_GUID_00000617_0000_0010_8000_00aa006d2ea4@@3U__s_GUID@@A@@@@QAE@XZ
_TEXT	SEGMENT PARA USE32 PUBLIC 'CODE'
_TEXT	ENDS
;	COMDAT ??0?$_com_ptr_t@V?$_com_IIID@UUsers@XTPADOX@@$1?_GUID_0000061a_0000_0010_8000_00aa006d2ea4@@3U__s_GUID@@A@@@@QAE@PAUUsers@XTPADOX@@_N@Z
_TEXT	SEGMENT PARA USE32 PUBLIC 'CODE'
_TEXT	ENDS
;	COMDAT ??1?$_com_ptr_t@V?$_com_IIID@UUsers@XTPADOX@@$1?_GUID_0000061a_0000_0010_8000_00aa006d2ea4@@3U__s_GUID@@A@@@@QAE@XZ
_TEXT	SEGMENT PARA USE32 PUBLIC 'CODE'
_TEXT	ENDS
;	COMDAT ??0?$_com_ptr_t@V?$_com_IIID@U_Table@XTPADOX@@$1?_GUID_00000610_0000_0010_8000_00aa006d2ea4@@3U__s_GUID@@A@@@@QAE@PAU_Table@XTPADOX@@_N@Z
_TEXT	SEGMENT PARA USE32 PUBLIC 'CODE'
_TEXT	ENDS
;	COMDAT ??1?$_com_ptr_t@V?$_com_IIID@U_Table@XTPADOX@@$1?_GUID_00000610_0000_0010_8000_00aa006d2ea4@@3U__s_GUID@@A@@@@QAE@XZ
_TEXT	SEGMENT PARA USE32 PUBLIC 'CODE'
_TEXT	ENDS
;	COMDAT ??0?$_com_ptr_t@V?$_com_IIID@UColumns@XTPADOX@@$1?_GUID_0000061d_0000_0010_8000_00aa006d2ea4@@3U__s_GUID@@A@@@@QAE@PAUColumns@XTPADOX@@_N@Z
_TEXT	SEGMENT PARA USE32 PUBLIC 'CODE'
_TEXT	ENDS
;	COMDAT ??1?$_com_ptr_t@V?$_com_IIID@UColumns@XTPADOX@@$1?_GUID_0000061d_0000_0010_8000_00aa006d2ea4@@3U__s_GUID@@A@@@@QAE@XZ
_TEXT	SEGMENT PARA USE32 PUBLIC 'CODE'
_TEXT	ENDS
;	COMDAT ??0?$_com_ptr_t@V?$_com_IIID@UIndexes@XTPADOX@@$1?_GUID_00000620_0000_0010_8000_00aa006d2ea4@@3U__s_GUID@@A@@@@QAE@PAUIndexes@XTPADOX@@_N@Z
_TEXT	SEGMENT PARA USE32 PUBLIC 'CODE'
_TEXT	ENDS
;	COMDAT ??1?$_com_ptr_t@V?$_com_IIID@UIndexes@XTPADOX@@$1?_GUID_00000620_0000_0010_8000_00aa006d2ea4@@3U__s_GUID@@A@@@@QAE@XZ
_TEXT	SEGMENT PARA USE32 PUBLIC 'CODE'
_TEXT	ENDS
;	COMDAT ??0?$_com_ptr_t@V?$_com_IIID@UKeys@XTPADOX@@$1?_GUID_00000623_0000_0010_8000_00aa006d2ea4@@3U__s_GUID@@A@@@@QAE@PAUKeys@XTPADOX@@_N@Z
_TEXT	SEGMENT PARA USE32 PUBLIC 'CODE'
_TEXT	ENDS
;	COMDAT ??1?$_com_ptr_t@V?$_com_IIID@UKeys@XTPADOX@@$1?_GUID_00000623_0000_0010_8000_00aa006d2ea4@@3U__s_GUID@@A@@@@QAE@XZ
_TEXT	SEGMENT PARA USE32 PUBLIC 'CODE'
_TEXT	ENDS
;	COMDAT ??0?$_com_ptr_t@V?$_com_IIID@UProperties@XTPADOX@@$1?_GUID_00000504_0000_0010_8000_00aa006d2ea4@@3U__s_GUID@@A@@@@QAE@PAUProperties@XTPADOX@@_N@Z
_TEXT	SEGMENT PARA USE32 PUBLIC 'CODE'
_TEXT	ENDS
;	COMDAT ??1?$_com_ptr_t@V?$_com_IIID@UProperties@XTPADOX@@$1?_GUID_00000504_0000_0010_8000_00aa006d2ea4@@3U__s_GUID@@A@@@@QAE@XZ
_TEXT	SEGMENT PARA USE32 PUBLIC 'CODE'
_TEXT	ENDS
;	COMDAT ??0?$_com_ptr_t@V?$_com_IIID@U_Catalog@XTPADOX@@$1?_GUID_00000603_0000_0010_8000_00aa006d2ea4@@3U__s_GUID@@A@@@@QAE@PAU_Catalog@XTPADOX@@_N@Z
_TEXT	SEGMENT PARA USE32 PUBLIC 'CODE'
_TEXT	ENDS
;	COMDAT ??1?$_com_ptr_t@V?$_com_IIID@U_Catalog@XTPADOX@@$1?_GUID_00000603_0000_0010_8000_00aa006d2ea4@@3U__s_GUID@@A@@@@QAE@XZ
_TEXT	SEGMENT PARA USE32 PUBLIC 'CODE'
_TEXT	ENDS
;	COMDAT ??0?$_com_ptr_t@V?$_com_IIID@U_Column@XTPADOX@@$1?_GUID_0000061c_0000_0010_8000_00aa006d2ea4@@3U__s_GUID@@A@@@@QAE@PAU_Column@XTPADOX@@_N@Z
_TEXT	SEGMENT PARA USE32 PUBLIC 'CODE'
_TEXT	ENDS
;	COMDAT ??1?$_com_ptr_t@V?$_com_IIID@U_Column@XTPADOX@@$1?_GUID_0000061c_0000_0010_8000_00aa006d2ea4@@3U__s_GUID@@A@@@@QAE@XZ
_TEXT	SEGMENT PARA USE32 PUBLIC 'CODE'
_TEXT	ENDS
;	COMDAT ??0?$_com_ptr_t@V?$_com_IIID@UProperty@XTPADOX@@$1?_GUID_00000503_0000_0010_8000_00aa006d2ea4@@3U__s_GUID@@A@@@@QAE@PAUProperty@XTPADOX@@_N@Z
_TEXT	SEGMENT PARA USE32 PUBLIC 'CODE'
_TEXT	ENDS
;	COMDAT ??1?$_com_ptr_t@V?$_com_IIID@UProperty@XTPADOX@@$1?_GUID_00000503_0000_0010_8000_00aa006d2ea4@@3U__s_GUID@@A@@@@QAE@XZ
_TEXT	SEGMENT PARA USE32 PUBLIC 'CODE'
_TEXT	ENDS
;	COMDAT ??0?$_com_ptr_t@V?$_com_IIID@U_Index@XTPADOX@@$1?_GUID_0000061f_0000_0010_8000_00aa006d2ea4@@3U__s_GUID@@A@@@@QAE@PAU_Index@XTPADOX@@_N@Z
_TEXT	SEGMENT PARA USE32 PUBLIC 'CODE'
_TEXT	ENDS
;	COMDAT ??1?$_com_ptr_t@V?$_com_IIID@U_Index@XTPADOX@@$1?_GUID_0000061f_0000_0010_8000_00aa006d2ea4@@3U__s_GUID@@A@@@@QAE@XZ
_TEXT	SEGMENT PARA USE32 PUBLIC 'CODE'
_TEXT	ENDS
;	COMDAT ??0?$_com_ptr_t@V?$_com_IIID@U_Key@XTPADOX@@$1?_GUID_00000622_0000_0010_8000_00aa006d2ea4@@3U__s_GUID@@A@@@@QAE@PAU_Key@XTPADOX@@_N@Z
_TEXT	SEGMENT PARA USE32 PUBLIC 'CODE'
_TEXT	ENDS
;	COMDAT ??1?$_com_ptr_t@V?$_com_IIID@U_Key@XTPADOX@@$1?_GUID_00000622_0000_0010_8000_00aa006d2ea4@@3U__s_GUID@@A@@@@QAE@XZ
_TEXT	SEGMENT PARA USE32 PUBLIC 'CODE'
_TEXT	ENDS
;	COMDAT ??0?$_com_ptr_t@V?$_com_IIID@UProcedure@XTPADOX@@$1?_GUID_00000625_0000_0010_8000_00aa006d2ea4@@3U__s_GUID@@A@@@@QAE@PAUProcedure@XTPADOX@@_N@Z
_TEXT	SEGMENT PARA USE32 PUBLIC 'CODE'
_TEXT	ENDS
;	COMDAT ??1?$_com_ptr_t@V?$_com_IIID@UProcedure@XTPADOX@@$1?_GUID_00000625_0000_0010_8000_00aa006d2ea4@@3U__s_GUID@@A@@@@QAE@XZ
_TEXT	SEGMENT PARA USE32 PUBLIC 'CODE'
_TEXT	ENDS
;	COMDAT ??0?$_com_ptr_t@V?$_com_IIID@UView@XTPADOX@@$1?_GUID_00000613_0000_0010_8000_00aa006d2ea4@@3U__s_GUID@@A@@@@QAE@PAUView@XTPADOX@@_N@Z
_TEXT	SEGMENT PARA USE32 PUBLIC 'CODE'
_TEXT	ENDS
;	COMDAT ??1?$_com_ptr_t@V?$_com_IIID@UView@XTPADOX@@$1?_GUID_00000613_0000_0010_8000_00aa006d2ea4@@3U__s_GUID@@A@@@@QAE@XZ
_TEXT	SEGMENT PARA USE32 PUBLIC 'CODE'
_TEXT	ENDS
;	COMDAT ??0?$_com_ptr_t@V?$_com_IIID@U_Group@XTPADOX@@$1?_GUID_00000628_0000_0010_8000_00aa006d2ea4@@3U__s_GUID@@A@@@@QAE@PAU_Group@XTPADOX@@_N@Z
_TEXT	SEGMENT PARA USE32 PUBLIC 'CODE'
_TEXT	ENDS
;	COMDAT ??1?$_com_ptr_t@V?$_com_IIID@U_Group@XTPADOX@@$1?_GUID_00000628_0000_0010_8000_00aa006d2ea4@@3U__s_GUID@@A@@@@QAE@XZ
_TEXT	SEGMENT PARA USE32 PUBLIC 'CODE'
_TEXT	ENDS
;	COMDAT ??0?$_com_ptr_t@V?$_com_IIID@U_User@XTPADOX@@$1?_GUID_00000627_0000_0010_8000_00aa006d2ea4@@3U__s_GUID@@A@@@@QAE@PAU_User@XTPADOX@@_N@Z
_TEXT	SEGMENT PARA USE32 PUBLIC 'CODE'
_TEXT	ENDS
;	COMDAT ??1?$_com_ptr_t@V?$_com_IIID@U_User@XTPADOX@@$1?_GUID_00000627_0000_0010_8000_00aa006d2ea4@@3U__s_GUID@@A@@@@QAE@XZ
_TEXT	SEGMENT PARA USE32 PUBLIC 'CODE'
_TEXT	ENDS
;	COMDAT ??1?$CXTPCalendarViewEventT@VCXTPCalendarMonthViewGroup@@UXTP_CALENDAR_HITTESTINFO_MONTH_VIEW@@@@UAE@XZ
_TEXT	SEGMENT PARA USE32 PUBLIC 'CODE'
_TEXT	ENDS
;	COMDAT ?HitTest@?$CXTPCalendarViewEventT@VCXTPCalendarMonthViewGroup@@UXTP_CALENDAR_HITTESTINFO_MONTH_VIEW@@@@UAEHVCPoint@@PAUXTP_CALENDAR_HITTESTINFO@@@Z
_TEXT	SEGMENT PARA USE32 PUBLIC 'CODE'
_TEXT	ENDS
;	COMDAT ?GetViewGroup_@?$CXTPCalendarViewEventT@VCXTPCalendarMonthViewGroup@@UXTP_CALENDAR_HITTESTINFO_MONTH_VIEW@@@@UBEPAVCXTPCalendarViewGroup@@XZ
_TEXT	SEGMENT PARA USE32 PUBLIC 'CODE'
_TEXT	ENDS
;	COMDAT ??1?$CXTPCalendarViewGroupT@VCXTPCalendarMonthViewDay@@VCXTPCalendarMonthViewEvent@@UXTP_CALENDAR_HITTESTINFO_MONTH_VIEW@@VCXTPCalendarMonthViewGroup@@@@UAE@XZ
_TEXT	SEGMENT PARA USE32 PUBLIC 'CODE'
_TEXT	ENDS
;	COMDAT ?HitTest@?$CXTPCalendarViewGroupT@VCXTPCalendarMonthViewDay@@VCXTPCalendarMonthViewEvent@@UXTP_CALENDAR_HITTESTINFO_MONTH_VIEW@@VCXTPCalendarMonthViewGroup@@@@UAEHVCPoint@@PAUXTP_CALENDAR_HITTESTINFO@@@Z
_TEXT	SEGMENT PARA USE32 PUBLIC 'CODE'
_TEXT	ENDS
;	COMDAT ?HitTestEx@?$CXTPCalendarViewGroupT@VCXTPCalendarMonthViewDay@@VCXTPCalendarMonthViewEvent@@UXTP_CALENDAR_HITTESTINFO_MONTH_VIEW@@VCXTPCalendarMonthViewGroup@@@@UAEHVCPoint@@PAUXTP_CALENDAR_HITTESTINFO_MONTH_VIEW@@@Z
_TEXT	SEGMENT PARA USE32 PUBLIC 'CODE'
_TEXT	ENDS
;	COMDAT ?GetViewDay_@?$CXTPCalendarViewGroupT@VCXTPCalendarMonthViewDay@@VCXTPCalendarMonthViewEvent@@UXTP_CALENDAR_HITTESTINFO_MONTH_VIEW@@VCXTPCalendarMonthViewGroup@@@@UBEPAVCXTPCalendarViewDay@@XZ
_TEXT	SEGMENT PARA USE32 PUBLIC 'CODE'
_TEXT	ENDS
;	COMDAT ?GetViewEventsCount@?$CXTPCalendarViewGroupT@VCXTPCalendarMonthViewDay@@VCXTPCalendarMonthViewEvent@@UXTP_CALENDAR_HITTESTINFO_MONTH_VIEW@@VCXTPCalendarMonthViewGroup@@@@UAEHXZ
_TEXT	SEGMENT PARA USE32 PUBLIC 'CODE'
_TEXT	ENDS
;	COMDAT ?GetViewEvent@?$CXTPCalendarViewGroupT@VCXTPCalendarMonthViewDay@@VCXTPCalendarMonthViewEvent@@UXTP_CALENDAR_HITTESTINFO_MONTH_VIEW@@VCXTPCalendarMonthViewGroup@@@@UAEPAVCXTPCalendarMonthViewEvent@@H@Z
_TEXT	SEGMENT PARA USE32 PUBLIC 'CODE'
_TEXT	ENDS
;	COMDAT ?GetViewEvent_@?$CXTPCalendarViewGroupT@VCXTPCalendarMonthViewDay@@VCXTPCalendarMonthViewEvent@@UXTP_CALENDAR_HITTESTINFO_MONTH_VIEW@@VCXTPCalendarMonthViewGroup@@@@UAEPAVCXTPCalendarViewEvent@@H@Z
_TEXT	SEGMENT PARA USE32 PUBLIC 'CODE'
_TEXT	ENDS
;	COMDAT ?Populate@?$CXTPCalendarViewGroupT@VCXTPCalendarMonthViewDay@@VCXTPCalendarMonthViewEvent@@UXTP_CALENDAR_HITTESTINFO_MONTH_VIEW@@VCXTPCalendarMonthViewGroup@@@@UAEXVCOleDateTime@@@Z
_TEXT	SEGMENT PARA USE32 PUBLIC 'CODE'
_TEXT	ENDS
;	COMDAT ??1?$CXTPCalendarViewDayT@VCXTPCalendarMonthView@@VCXTPCalendarMonthViewGroup@@UXTP_CALENDAR_HITTESTINFO_MONTH_VIEW@@VCXTPCalendarMonthViewDay@@@@UAE@XZ
_TEXT	SEGMENT PARA USE32 PUBLIC 'CODE'
_TEXT	ENDS
;	COMDAT ?HitTest@?$CXTPCalendarViewDayT@VCXTPCalendarMonthView@@VCXTPCalendarMonthViewGroup@@UXTP_CALENDAR_HITTESTINFO_MONTH_VIEW@@VCXTPCalendarMonthViewDay@@@@UAEHVCPoint@@PAUXTP_CALENDAR_HITTESTINFO@@@Z
_TEXT	SEGMENT PARA USE32 PUBLIC 'CODE'
_TEXT	ENDS
;	COMDAT ?HitTestEx@?$CXTPCalendarViewDayT@VCXTPCalendarMonthView@@VCXTPCalendarMonthViewGroup@@UXTP_CALENDAR_HITTESTINFO_MONTH_VIEW@@VCXTPCalendarMonthViewDay@@@@UAEHVCPoint@@PAUXTP_CALENDAR_HITTESTINFO_MONTH_VIEW@@@Z
_TEXT	SEGMENT PARA USE32 PUBLIC 'CODE'
_TEXT	ENDS
;	COMDAT ?GetView_@?$CXTPCalendarViewDayT@VCXTPCalendarMonthView@@VCXTPCalendarMonthViewGroup@@UXTP_CALENDAR_HITTESTINFO_MONTH_VIEW@@VCXTPCalendarMonthViewDay@@@@UBEPAVCXTPCalendarView@@XZ
_TEXT	SEGMENT PARA USE32 PUBLIC 'CODE'
_TEXT	ENDS
;	COMDAT ?GetViewGroupsCount@?$CXTPCalendarViewDayT@VCXTPCalendarMonthView@@VCXTPCalendarMonthViewGroup@@UXTP_CALENDAR_HITTESTINFO_MONTH_VIEW@@VCXTPCalendarMonthViewDay@@@@UAEHXZ
_TEXT	SEGMENT PARA USE32 PUBLIC 'CODE'
_TEXT	ENDS
;	COMDAT ?GetViewGroup@?$CXTPCalendarViewDayT@VCXTPCalendarMonthView@@VCXTPCalendarMonthViewGroup@@UXTP_CALENDAR_HITTESTINFO_MONTH_VIEW@@VCXTPCalendarMonthViewDay@@@@UAEPAVCXTPCalendarMonthViewGroup@@H@Z
_TEXT	SEGMENT PARA USE32 PUBLIC 'CODE'
_TEXT	ENDS
;	COMDAT ?GetViewGroup_@?$CXTPCalendarViewDayT@VCXTPCalendarMonthView@@VCXTPCalendarMonthViewGroup@@UXTP_CALENDAR_HITTESTINFO_MONTH_VIEW@@VCXTPCalendarMonthViewDay@@@@UAEPAVCXTPCalendarViewGroup@@H@Z
_TEXT	SEGMENT PARA USE32 PUBLIC 'CODE'
_TEXT	ENDS
;	COMDAT ?Populate@?$CXTPCalendarViewDayT@VCXTPCalendarMonthView@@VCXTPCalendarMonthViewGroup@@UXTP_CALENDAR_HITTESTINFO_MONTH_VIEW@@VCXTPCalendarMonthViewDay@@@@UAEXVCOleDateTime@@@Z
_TEXT	SEGMENT PARA USE32 PUBLIC 'CODE'
_TEXT	ENDS
;	COMDAT ?AdjustLayout@?$CXTPCalendarViewDayT@VCXTPCalendarMonthView@@VCXTPCalendarMonthViewGroup@@UXTP_CALENDAR_HITTESTINFO_MONTH_VIEW@@VCXTPCalendarMonthViewDay@@@@UAEXPAVCDC@@ABVCRect@@@Z
_TEXT	SEGMENT PARA USE32 PUBLIC 'CODE'
_TEXT	ENDS
;	COMDAT ?NoAllEventsAreVisible@?$CXTPCalendarViewDayT@VCXTPCalendarMonthView@@VCXTPCalendarMonthViewGroup@@UXTP_CALENDAR_HITTESTINFO_MONTH_VIEW@@VCXTPCalendarMonthViewDay@@@@UAEHXZ
_TEXT	SEGMENT PARA USE32 PUBLIC 'CODE'
_TEXT	ENDS
;	COMDAT ??1?$CXTPCalendarViewT@VCXTPCalendarMonthViewDay@@UXTP_CALENDAR_HITTESTINFO_MONTH_VIEW@@@@UAE@XZ
_TEXT	SEGMENT PARA USE32 PUBLIC 'CODE'
_TEXT	ENDS
;	COMDAT ?GetViewType@?$CXTPCalendarViewT@VCXTPCalendarMonthViewDay@@UXTP_CALENDAR_HITTESTINFO_MONTH_VIEW@@@@UAE?AW4XTPCalendarViewType@@XZ
_TEXT	SEGMENT PARA USE32 PUBLIC 'CODE'
_TEXT	ENDS
;	COMDAT ?GetViewDayCount@?$CXTPCalendarViewT@VCXTPCalendarMonthViewDay@@UXTP_CALENDAR_HITTESTINFO_MONTH_VIEW@@@@UAEHXZ
_TEXT	SEGMENT PARA USE32 PUBLIC 'CODE'
_TEXT	ENDS
;	COMDAT ?GetViewDay_@?$CXTPCalendarViewT@VCXTPCalendarMonthViewDay@@UXTP_CALENDAR_HITTESTINFO_MONTH_VIEW@@@@UAEPAVCXTPCalendarViewDay@@H@Z
_TEXT	SEGMENT PARA USE32 PUBLIC 'CODE'
_TEXT	ENDS
;	COMDAT ?GetViewDay@?$CXTPCalendarViewT@VCXTPCalendarMonthViewDay@@UXTP_CALENDAR_HITTESTINFO_MONTH_VIEW@@@@UAEPAVCXTPCalendarMonthViewDay@@H@Z
_TEXT	SEGMENT PARA USE32 PUBLIC 'CODE'
_TEXT	ENDS
;	COMDAT ?HitTest@?$CXTPCalendarViewT@VCXTPCalendarMonthViewDay@@UXTP_CALENDAR_HITTESTINFO_MONTH_VIEW@@@@UAEHVCPoint@@PAUXTP_CALENDAR_HITTESTINFO@@@Z
_TEXT	SEGMENT PARA USE32 PUBLIC 'CODE'
_TEXT	ENDS
;	COMDAT ?HitTestEx@?$CXTPCalendarViewT@VCXTPCalendarMonthViewDay@@UXTP_CALENDAR_HITTESTINFO_MONTH_VIEW@@@@UAEHVCPoint@@PAUXTP_CALENDAR_HITTESTINFO_MONTH_VIEW@@@Z
_TEXT	SEGMENT PARA USE32 PUBLIC 'CODE'
_TEXT	ENDS
;	COMDAT ??1?$CXTPCalendarViewEventT@VCXTPCalendarWeekViewGroup@@UXTP_CALENDAR_HITTESTINFO_WEEK_VIEW@@@@UAE@XZ
_TEXT	SEGMENT PARA USE32 PUBLIC 'CODE'
_TEXT	ENDS
;	COMDAT ?HitTest@?$CXTPCalendarViewEventT@VCXTPCalendarWeekViewGroup@@UXTP_CALENDAR_HITTESTINFO_WEEK_VIEW@@@@UAEHVCPoint@@PAUXTP_CALENDAR_HITTESTINFO@@@Z
_TEXT	SEGMENT PARA USE32 PUBLIC 'CODE'
_TEXT	ENDS
;	COMDAT ?GetViewGroup_@?$CXTPCalendarViewEventT@VCXTPCalendarWeekViewGroup@@UXTP_CALENDAR_HITTESTINFO_WEEK_VIEW@@@@UBEPAVCXTPCalendarViewGroup@@XZ
_TEXT	SEGMENT PARA USE32 PUBLIC 'CODE'
_TEXT	ENDS
;	COMDAT ??1?$CXTPCalendarViewGroupT@VCXTPCalendarWeekViewDay@@VCXTPCalendarWeekViewEvent@@UXTP_CALENDAR_HITTESTINFO_WEEK_VIEW@@VCXTPCalendarWeekViewGroup@@@@UAE@XZ
_TEXT	SEGMENT PARA USE32 PUBLIC 'CODE'
_TEXT	ENDS
;	COMDAT ?HitTest@?$CXTPCalendarViewGroupT@VCXTPCalendarWeekViewDay@@VCXTPCalendarWeekViewEvent@@UXTP_CALENDAR_HITTESTINFO_WEEK_VIEW@@VCXTPCalendarWeekViewGroup@@@@UAEHVCPoint@@PAUXTP_CALENDAR_HITTESTINFO@@@Z
_TEXT	SEGMENT PARA USE32 PUBLIC 'CODE'
_TEXT	ENDS
;	COMDAT ?HitTestEx@?$CXTPCalendarViewGroupT@VCXTPCalendarWeekViewDay@@VCXTPCalendarWeekViewEvent@@UXTP_CALENDAR_HITTESTINFO_WEEK_VIEW@@VCXTPCalendarWeekViewGroup@@@@UAEHVCPoint@@PAUXTP_CALENDAR_HITTESTINFO_WEEK_VIEW@@@Z
_TEXT	SEGMENT PARA USE32 PUBLIC 'CODE'
_TEXT	ENDS
;	COMDAT ?GetViewDay_@?$CXTPCalendarViewGroupT@VCXTPCalendarWeekViewDay@@VCXTPCalendarWeekViewEvent@@UXTP_CALENDAR_HITTESTINFO_WEEK_VIEW@@VCXTPCalendarWeekViewGroup@@@@UBEPAVCXTPCalendarViewDay@@XZ
_TEXT	SEGMENT PARA USE32 PUBLIC 'CODE'
_TEXT	ENDS
;	COMDAT ?GetViewEventsCount@?$CXTPCalendarViewGroupT@VCXTPCalendarWeekViewDay@@VCXTPCalendarWeekViewEvent@@UXTP_CALENDAR_HITTESTINFO_WEEK_VIEW@@VCXTPCalendarWeekViewGroup@@@@UAEHXZ
_TEXT	SEGMENT PARA USE32 PUBLIC 'CODE'
_TEXT	ENDS
;	COMDAT ?GetViewEvent@?$CXTPCalendarViewGroupT@VCXTPCalendarWeekViewDay@@VCXTPCalendarWeekViewEvent@@UXTP_CALENDAR_HITTESTINFO_WEEK_VIEW@@VCXTPCalendarWeekViewGroup@@@@UAEPAVCXTPCalendarWeekViewEvent@@H@Z
_TEXT	SEGMENT PARA USE32 PUBLIC 'CODE'
_TEXT	ENDS
;	COMDAT ?GetViewEvent_@?$CXTPCalendarViewGroupT@VCXTPCalendarWeekViewDay@@VCXTPCalendarWeekViewEvent@@UXTP_CALENDAR_HITTESTINFO_WEEK_VIEW@@VCXTPCalendarWeekViewGroup@@@@UAEPAVCXTPCalendarViewEvent@@H@Z
_TEXT	SEGMENT PARA USE32 PUBLIC 'CODE'
_TEXT	ENDS
;	COMDAT ?Populate@?$CXTPCalendarViewGroupT@VCXTPCalendarWeekViewDay@@VCXTPCalendarWeekViewEvent@@UXTP_CALENDAR_HITTESTINFO_WEEK_VIEW@@VCXTPCalendarWeekViewGroup@@@@UAEXVCOleDateTime@@@Z
_TEXT	SEGMENT PARA USE32 PUBLIC 'CODE'
_TEXT	ENDS
;	COMDAT ??1?$CXTPCalendarViewDayT@VCXTPCalendarWeekView@@VCXTPCalendarWeekViewGroup@@UXTP_CALENDAR_HITTESTINFO_WEEK_VIEW@@VCXTPCalendarWeekViewDay@@@@UAE@XZ
_TEXT	SEGMENT PARA USE32 PUBLIC 'CODE'
_TEXT	ENDS
;	COMDAT ?HitTest@?$CXTPCalendarViewDayT@VCXTPCalendarWeekView@@VCXTPCalendarWeekViewGroup@@UXTP_CALENDAR_HITTESTINFO_WEEK_VIEW@@VCXTPCalendarWeekViewDay@@@@UAEHVCPoint@@PAUXTP_CALENDAR_HITTESTINFO@@@Z
_TEXT	SEGMENT PARA USE32 PUBLIC 'CODE'
_TEXT	ENDS
;	COMDAT ?HitTestEx@?$CXTPCalendarViewDayT@VCXTPCalendarWeekView@@VCXTPCalendarWeekViewGroup@@UXTP_CALENDAR_HITTESTINFO_WEEK_VIEW@@VCXTPCalendarWeekViewDay@@@@UAEHVCPoint@@PAUXTP_CALENDAR_HITTESTINFO_WEEK_VIEW@@@Z
_TEXT	SEGMENT PARA USE32 PUBLIC 'CODE'
_TEXT	ENDS
;	COMDAT ?GetView_@?$CXTPCalendarViewDayT@VCXTPCalendarWeekView@@VCXTPCalendarWeekViewGroup@@UXTP_CALENDAR_HITTESTINFO_WEEK_VIEW@@VCXTPCalendarWeekViewDay@@@@UBEPAVCXTPCalendarView@@XZ
_TEXT	SEGMENT PARA USE32 PUBLIC 'CODE'
_TEXT	ENDS
;	COMDAT ?GetViewGroupsCount@?$CXTPCalendarViewDayT@VCXTPCalendarWeekView@@VCXTPCalendarWeekViewGroup@@UXTP_CALENDAR_HITTESTINFO_WEEK_VIEW@@VCXTPCalendarWeekViewDay@@@@UAEHXZ
_TEXT	SEGMENT PARA USE32 PUBLIC 'CODE'
_TEXT	ENDS
;	COMDAT ?GetViewGroup@?$CXTPCalendarViewDayT@VCXTPCalendarWeekView@@VCXTPCalendarWeekViewGroup@@UXTP_CALENDAR_HITTESTINFO_WEEK_VIEW@@VCXTPCalendarWeekViewDay@@@@UAEPAVCXTPCalendarWeekViewGroup@@H@Z
_TEXT	SEGMENT PARA USE32 PUBLIC 'CODE'
_TEXT	ENDS
;	COMDAT ?GetViewGroup_@?$CXTPCalendarViewDayT@VCXTPCalendarWeekView@@VCXTPCalendarWeekViewGroup@@UXTP_CALENDAR_HITTESTINFO_WEEK_VIEW@@VCXTPCalendarWeekViewDay@@@@UAEPAVCXTPCalendarViewGroup@@H@Z
_TEXT	SEGMENT PARA USE32 PUBLIC 'CODE'
_TEXT	ENDS
;	COMDAT ?Populate@?$CXTPCalendarViewDayT@VCXTPCalendarWeekView@@VCXTPCalendarWeekViewGroup@@UXTP_CALENDAR_HITTESTINFO_WEEK_VIEW@@VCXTPCalendarWeekViewDay@@@@UAEXVCOleDateTime@@@Z
_TEXT	SEGMENT PARA USE32 PUBLIC 'CODE'
_TEXT	ENDS
;	COMDAT ?AdjustLayout@?$CXTPCalendarViewDayT@VCXTPCalendarWeekView@@VCXTPCalendarWeekViewGroup@@UXTP_CALENDAR_HITTESTINFO_WEEK_VIEW@@VCXTPCalendarWeekViewDay@@@@UAEXPAVCDC@@ABVCRect@@@Z
_TEXT	SEGMENT PARA USE32 PUBLIC 'CODE'
_TEXT	ENDS
;	COMDAT ?NoAllEventsAreVisible@?$CXTPCalendarViewDayT@VCXTPCalendarWeekView@@VCXTPCalendarWeekViewGroup@@UXTP_CALENDAR_HITTESTINFO_WEEK_VIEW@@VCXTPCalendarWeekViewDay@@@@UAEHXZ
_TEXT	SEGMENT PARA USE32 PUBLIC 'CODE'
_TEXT	ENDS
;	COMDAT ??1?$CXTPCalendarViewT@VCXTPCalendarWeekViewDay@@UXTP_CALENDAR_HITTESTINFO_WEEK_VIEW@@@@UAE@XZ
_TEXT	SEGMENT PARA USE32 PUBLIC 'CODE'
_TEXT	ENDS
;	COMDAT ?GetViewType@?$CXTPCalendarViewT@VCXTPCalendarWeekViewDay@@UXTP_CALENDAR_HITTESTINFO_WEEK_VIEW@@@@UAE?AW4XTPCalendarViewType@@XZ
_TEXT	SEGMENT PARA USE32 PUBLIC 'CODE'
_TEXT	ENDS
;	COMDAT ?GetViewDayCount@?$CXTPCalendarViewT@VCXTPCalendarWeekViewDay@@UXTP_CALENDAR_HITTESTINFO_WEEK_VIEW@@@@UAEHXZ
_TEXT	SEGMENT PARA USE32 PUBLIC 'CODE'
_TEXT	ENDS
;	COMDAT ?GetViewDay_@?$CXTPCalendarViewT@VCXTPCalendarWeekViewDay@@UXTP_CALENDAR_HITTESTINFO_WEEK_VIEW@@@@UAEPAVCXTPCalendarViewDay@@H@Z
_TEXT	SEGMENT PARA USE32 PUBLIC 'CODE'
_TEXT	ENDS
;	COMDAT ?GetViewDay@?$CXTPCalendarViewT@VCXTPCalendarWeekViewDay@@UXTP_CALENDAR_HITTESTINFO_WEEK_VIEW@@@@UAEPAVCXTPCalendarWeekViewDay@@H@Z
_TEXT	SEGMENT PARA USE32 PUBLIC 'CODE'
_TEXT	ENDS
;	COMDAT ?HitTest@?$CXTPCalendarViewT@VCXTPCalendarWeekViewDay@@UXTP_CALENDAR_HITTESTINFO_WEEK_VIEW@@@@UAEHVCPoint@@PAUXTP_CALENDAR_HITTESTINFO@@@Z
_TEXT	SEGMENT PARA USE32 PUBLIC 'CODE'
_TEXT	ENDS
;	COMDAT ?HitTestEx@?$CXTPCalendarViewT@VCXTPCalendarWeekViewDay@@UXTP_CALENDAR_HITTESTINFO_WEEK_VIEW@@@@UAEHVCPoint@@PAUXTP_CALENDAR_HITTESTINFO_WEEK_VIEW@@@Z
_TEXT	SEGMENT PARA USE32 PUBLIC 'CODE'
_TEXT	ENDS
;	COMDAT ??1?$CXTPCalendarTypedPtrAutoDeleteArray@VCPtrArray@@PAVCMemFile@@@@UAE@XZ
_TEXT	SEGMENT PARA USE32 PUBLIC 'CODE'
_TEXT	ENDS
;	COMDAT ?RemoveAll@?$CXTPCalendarTypedPtrAutoDeleteArray@VCPtrArray@@PAVCMemFile@@@@UAEXXZ
_TEXT	SEGMENT PARA USE32 PUBLIC 'CODE'
_TEXT	ENDS
;	COMDAT ??1?$CXTPCalendarTypedPtrAutoDeleteMap@HPAVCXTPCalendarViewPartBrushValue@@@@UAE@XZ
_TEXT	SEGMENT PARA USE32 PUBLIC 'CODE'
_TEXT	ENDS
;	COMDAT ?RemoveAll@?$CXTPCalendarTypedPtrAutoDeleteMap@HPAVCXTPCalendarViewPartBrushValue@@@@UAEXH@Z
_TEXT	SEGMENT PARA USE32 PUBLIC 'CODE'
_TEXT	ENDS
;	COMDAT ?SetAt@?$CXTPCalendarTypedPtrAutoDeleteMap@HPAVCXTPCalendarViewPartBrushValue@@@@UAEXHPAVCXTPCalendarViewPartBrushValue@@H@Z
_TEXT	SEGMENT PARA USE32 PUBLIC 'CODE'
_TEXT	ENDS
;	COMDAT ?RemoveKey@?$CXTPCalendarTypedPtrAutoDeleteMap@HPAVCXTPCalendarViewPartBrushValue@@@@UAEHHH@Z
_TEXT	SEGMENT PARA USE32 PUBLIC 'CODE'
_TEXT	ENDS
;	COMDAT ??1?$CXTPNotifySinkImpl@VCTOPrevNextEventButtons@CXTPCalendarThemeOffice2007@@VC_m_Sink_Informator@12@@@UAE@XZ
_TEXT	SEGMENT PARA USE32 PUBLIC 'CODE'
_TEXT	ENDS
;	COMDAT ?OnEvent@?$CXTPNotifySinkImpl@VCTOPrevNextEventButtons@CXTPCalendarThemeOffice2007@@VC_m_Sink_Informator@12@@@UAEXKIJK@Z
_TEXT	SEGMENT PARA USE32 PUBLIC 'CODE'
_TEXT	ENDS
;	COMDAT ??1?$CXTPNotifySinkImpl@VCXTPCalendarThemeOffice2007@@VC_m_Sink_Informator@1@@@UAE@XZ
_TEXT	SEGMENT PARA USE32 PUBLIC 'CODE'
_TEXT	ENDS
;	COMDAT ?OnEvent@?$CXTPNotifySinkImpl@VCXTPCalendarThemeOffice2007@@VC_m_Sink_Informator@1@@@UAEXKIJK@Z
_TEXT	SEGMENT PARA USE32 PUBLIC 'CODE'
_TEXT	ENDS
;	COMDAT ??1?$CXTPNotifySinkImpl@VCXTPCalendarRemindersManager@@VC_m_Sink_Informator@1@@@UAE@XZ
_TEXT	SEGMENT PARA USE32 PUBLIC 'CODE'
_TEXT	ENDS
;	COMDAT ?OnEvent@?$CXTPNotifySinkImpl@VCXTPCalendarRemindersManager@@VC_m_Sink_Informator@1@@@UAEXKIJK@Z
_TEXT	SEGMENT PARA USE32 PUBLIC 'CODE'
_TEXT	ENDS
;	COMDAT ??1?$CXTPNotifySinkImpl@VCXTPCalendarRemindersDialog@@VC_m_Sink_Informator@1@@@UAE@XZ
_TEXT	SEGMENT PARA USE32 PUBLIC 'CODE'
_TEXT	ENDS
;	COMDAT ?OnEvent@?$CXTPNotifySinkImpl@VCXTPCalendarRemindersDialog@@VC_m_Sink_Informator@1@@@UAEXKIJK@Z
_TEXT	SEGMENT PARA USE32 PUBLIC 'CODE'
_TEXT	ENDS
;	COMDAT ??1?$CXTPSmartPtrInternalT@VCXTPCalendarResource@@@@UAE@XZ
_TEXT	SEGMENT PARA USE32 PUBLIC 'CODE'
_TEXT	ENDS
;	COMDAT ??0?$CXTPReserveArray@HH@@QAE@XZ
_TEXT	SEGMENT PARA USE32 PUBLIC 'CODE'
_TEXT	ENDS
;	COMDAT ?SetDataSize@?$CXTPReserveArray@HH@@QAEXHHH@Z
_TEXT	SEGMENT PARA USE32 PUBLIC 'CODE'
_TEXT	ENDS
;	COMDAT ?RemoveAll@?$CXTPReserveArray@HH@@QAEXXZ
_TEXT	SEGMENT PARA USE32 PUBLIC 'CODE'
_TEXT	ENDS
;	COMDAT ??0?$CXTPReserveArray@EE@@QAE@XZ
_TEXT	SEGMENT PARA USE32 PUBLIC 'CODE'
_TEXT	ENDS
;	COMDAT ?SetDataSize@?$CXTPReserveArray@EE@@QAEXHHH@Z
_TEXT	SEGMENT PARA USE32 PUBLIC 'CODE'
_TEXT	ENDS
;	COMDAT ??1?$CXTPInternalCollectionT@VCXTPRowInfo@CXTPSyntaxEditDrawTextProcessor@@@@UAE@XZ
_TEXT	SEGMENT PARA USE32 PUBLIC 'CODE'
_TEXT	ENDS
;	COMDAT ?GetAt@?$CXTPInternalCollectionT@VCXTPRowInfo@CXTPSyntaxEditDrawTextProcessor@@@@UAEPAVCXTPRowInfo@CXTPSyntaxEditDrawTextProcessor@@HH@Z
_TEXT	SEGMENT PARA USE32 PUBLIC 'CODE'
_TEXT	ENDS
;	COMDAT ?AddPtr@?$CXTPInternalCollectionT@VCXTPRowInfo@CXTPSyntaxEditDrawTextProcessor@@@@UAEHPAVCXTPRowInfo@CXTPSyntaxEditDrawTextProcessor@@H@Z
_TEXT	SEGMENT PARA USE32 PUBLIC 'CODE'
_TEXT	ENDS
;	COMDAT ??1?$CXTPNotifySinkImpl@VCXTPSyntaxEditCtrl@@VC_m_Sink_Informator@1@@@UAE@XZ
_TEXT	SEGMENT PARA USE32 PUBLIC 'CODE'
_TEXT	ENDS
;	COMDAT ?OnEvent@?$CXTPNotifySinkImpl@VCXTPSyntaxEditCtrl@@VC_m_Sink_Informator@1@@@UAEXKIJK@Z
_TEXT	SEGMENT PARA USE32 PUBLIC 'CODE'
_TEXT	ENDS
;	COMDAT ??_G?$_CTypedPtrList@VCObList@@PAV1@@@UAEPAXI@Z
_TEXT	SEGMENT PARA USE32 PUBLIC 'CODE'
_TEXT	ENDS
;	COMDAT ??_G?$_CTypedPtrList@VCPtrList@@PAV1@@@UAEPAXI@Z
_TEXT	SEGMENT PARA USE32 PUBLIC 'CODE'
_TEXT	ENDS
;	COMDAT ??_G?$CXTPFrameWndBase@VCMDIFrameWnd@@@@UAEPAXI@Z
_TEXT	SEGMENT PARA USE32 PUBLIC 'CODE'
_TEXT	ENDS
;	COMDAT ??_G?$CXTPCommandBarsSiteBase@VCMDIFrameWnd@@@@UAEPAXI@Z
_TEXT	SEGMENT PARA USE32 PUBLIC 'CODE'
_TEXT	ENDS
;	COMDAT ??1CMDIFrameWnd@@UAE@XZ
_TEXT	SEGMENT PARA USE32 PUBLIC 'CODE'
_TEXT	ENDS
;	COMDAT ??_G?$CXTPFrameWndBase@VCFrameWnd@@@@UAEPAXI@Z
_TEXT	SEGMENT PARA USE32 PUBLIC 'CODE'
_TEXT	ENDS
;	COMDAT ??_G?$CXTPCommandBarsSiteBase@VCFrameWnd@@@@UAEPAXI@Z
_TEXT	SEGMENT PARA USE32 PUBLIC 'CODE'
_TEXT	ENDS
;	COMDAT ??_G?$CXTPDialogBase@VCDialog@@@@UAEPAXI@Z
_TEXT	SEGMENT PARA USE32 PUBLIC 'CODE'
_TEXT	ENDS
;	COMDAT ??_G?$CXTPNotifySinkImpl@VCXTPOffice2007FrameHook@@VC_m_Sink_Informator@1@@@UAEPAXI@Z
_TEXT	SEGMENT PARA USE32 PUBLIC 'CODE'
_TEXT	ENDS
;	COMDAT ??1?$CXTPNotifyMapCodeToHandler@P8CXTPOffice2007FrameHook@@AEXKIJ@Z@@UAE@XZ
_TEXT	SEGMENT PARA USE32 PUBLIC 'CODE'
_TEXT	ENDS
;	COMDAT ??_G?$CXTPHeapAllocatorT@UCXTPReportDataAllocatorData@@@@UAEPAXI@Z
_TEXT	SEGMENT PARA USE32 PUBLIC 'CODE'
_TEXT	ENDS
;	COMDAT ??_G?$CXTPHeapAllocatorT@UCXTPReportRowAllocatorData@@@@UAEPAXI@Z
_TEXT	SEGMENT PARA USE32 PUBLIC 'CODE'
_TEXT	ENDS
;	COMDAT ??_G?$CXTPHeapAllocatorT@UCXTPReportAllocatorDefaultData@@@@UAEPAXI@Z
_TEXT	SEGMENT PARA USE32 PUBLIC 'CODE'
_TEXT	ENDS
;	COMDAT ??_G?$CXTPNotifySinkImpl@VCXTPCalendarController@@VC_m_Sink_Informator@1@@@UAEPAXI@Z
_TEXT	SEGMENT PARA USE32 PUBLIC 'CODE'
_TEXT	ENDS
;	COMDAT ??1?$CXTPNotifyMapCodeToHandler@P8CXTPCalendarController@@AEXKIJ@Z@@UAE@XZ
_TEXT	SEGMENT PARA USE32 PUBLIC 'CODE'
_TEXT	ENDS
;	COMDAT ??_G?$CXTPCalendarViewPartCustomizableValueT@VCBrush@@@@UAEPAXI@Z
_TEXT	SEGMENT PARA USE32 PUBLIC 'CODE'
_TEXT	ENDS
;	COMDAT ??_G?$CXTPCalendarViewPartCustomizableValueT@VCFont@@@@UAEPAXI@Z
_TEXT	SEGMENT PARA USE32 PUBLIC 'CODE'
_TEXT	ENDS
;	COMDAT ??_G?$CXTPCalendarThemeCustomizableXValueT@VCString@@PBD@@UAEPAXI@Z
_TEXT	SEGMENT PARA USE32 PUBLIC 'CODE'
_TEXT	ENDS
;	COMDAT ??_G?$CXTPCalendarThemeCustomizableXValueT@HH@@UAEPAXI@Z
_TEXT	SEGMENT PARA USE32 PUBLIC 'CODE'
_TEXT	ENDS
;	COMDAT ??_G?$CXTPCalendarThemeCustomizableXValueT@VCRect@@V1@@@UAEPAXI@Z
_TEXT	SEGMENT PARA USE32 PUBLIC 'CODE'
_TEXT	ENDS
;	COMDAT ??_G?$CXTPNotifySinkImpl@VCXTPDatePickerTheme@@VC_m_Sink_Informator@1@@@UAEPAXI@Z
_TEXT	SEGMENT PARA USE32 PUBLIC 'CODE'
_TEXT	ENDS
;	COMDAT ??0?$CXTPNotifyMapCodeToHandler@P8CXTPDatePickerTheme@@AEXKIJ@Z@@QAE@XZ
_TEXT	SEGMENT PARA USE32 PUBLIC 'CODE'
_TEXT	ENDS
;	COMDAT ??1?$CXTPNotifyMapCodeToHandler@P8CXTPDatePickerTheme@@AEXKIJ@Z@@UAE@XZ
_TEXT	SEGMENT PARA USE32 PUBLIC 'CODE'
_TEXT	ENDS
;	COMDAT ??_G?$CXTPNotifySinkImpl@VCXTPCalendarControl@@VC_m_Sink_DP_Informator@1@@@UAEPAXI@Z
_TEXT	SEGMENT PARA USE32 PUBLIC 'CODE'
_TEXT	ENDS
;	COMDAT ??1?$CXTPNotifyMapCodeToHandler@P8CXTPCalendarControl@@AEXKIJ@Z@@UAE@XZ
_TEXT	SEGMENT PARA USE32 PUBLIC 'CODE'
_TEXT	ENDS
;	COMDAT ??_G?$CXTPSmartPtrInternalT@VCXTPCalendarRecurrencePattern@@@@UAEPAXI@Z
_TEXT	SEGMENT PARA USE32 PUBLIC 'CODE'
_TEXT	ENDS
;	COMDAT ??_G?$CXTPSmartPtrInternalT@VCXTPCalendarEvent@@@@UAEPAXI@Z
_TEXT	SEGMENT PARA USE32 PUBLIC 'CODE'
_TEXT	ENDS
;	COMDAT ??_G?$CXTPSmartPtrInternalT@VCXTPCalendarViewEvent@@@@UAEPAXI@Z
_TEXT	SEGMENT PARA USE32 PUBLIC 'CODE'
_TEXT	ENDS
;	COMDAT ??_G?$CXTPCalendarTypedPtrAutoDeleteArray@VCPtrArray@@PAVCXTPCalendarViewPartBrushValue@@@@UAEPAXI@Z
_TEXT	SEGMENT PARA USE32 PUBLIC 'CODE'
_TEXT	ENDS
;	COMDAT ??1?$CTypedPtrArray@VCPtrArray@@PAVCXTPCalendarViewPartBrushValue@@@@UAE@XZ
_TEXT	SEGMENT PARA USE32 PUBLIC 'CODE'
_TEXT	ENDS
;	COMDAT ??_G?$CXTPCalendarViewEventT@VCXTPCalendarDayViewGroup@@UXTP_CALENDAR_HITTESTINFO_DAY_VIEW@@@@UAEPAXI@Z
_TEXT	SEGMENT PARA USE32 PUBLIC 'CODE'
_TEXT	ENDS
;	COMDAT ??0XTP_CALENDAR_HITTESTINFO@@QAE@ABU0@@Z
_TEXT	SEGMENT PARA USE32 PUBLIC 'CODE'
_TEXT	ENDS
;	COMDAT ??_G?$CXTPCalendarViewGroupT@VCXTPCalendarDayViewDay@@VCXTPCalendarDayViewEvent@@UXTP_CALENDAR_HITTESTINFO_DAY_VIEW@@VCXTPCalendarDayViewGroup@@@@UAEPAXI@Z
_TEXT	SEGMENT PARA USE32 PUBLIC 'CODE'
_TEXT	ENDS
;	COMDAT ??_G?$CXTPCalendarViewDayT@VCXTPCalendarDayView@@VCXTPCalendarDayViewGroup@@UXTP_CALENDAR_HITTESTINFO_DAY_VIEW@@VCXTPCalendarDayViewDay@@@@UAEPAXI@Z
_TEXT	SEGMENT PARA USE32 PUBLIC 'CODE'
_TEXT	ENDS
;	COMDAT ??_G?$CXTPCalendarViewT@VCXTPCalendarDayViewDay@@UXTP_CALENDAR_HITTESTINFO_DAY_VIEW@@@@UAEPAXI@Z
_TEXT	SEGMENT PARA USE32 PUBLIC 'CODE'
_TEXT	ENDS
;	COMDAT ??_G?$CXTPNotifySinkImpl@VCXTPCalendarCaptionBarTheme@@VC_m_Sink_Informator@1@@@UAEPAXI@Z
_TEXT	SEGMENT PARA USE32 PUBLIC 'CODE'
_TEXT	ENDS
;	COMDAT ??1?$CXTPNotifyMapCodeToHandler@P8CXTPCalendarCaptionBarTheme@@AEXKIJ@Z@@UAE@XZ
_TEXT	SEGMENT PARA USE32 PUBLIC 'CODE'
_TEXT	ENDS
;	COMDAT ??_G?$CXTPNotifySinkImpl@VCXTPCalendarControlView@@VC_m_Sink_Informator@1@@@UAEPAXI@Z
_TEXT	SEGMENT PARA USE32 PUBLIC 'CODE'
_TEXT	ENDS
;	COMDAT ??1?$CXTPNotifyMapCodeToHandler@P8CXTPCalendarControlView@@AEXKIJ@Z@@UAE@XZ
_TEXT	SEGMENT PARA USE32 PUBLIC 'CODE'
_TEXT	ENDS
;	COMDAT ??_G?$CXTPSmartPtrInternalT@VCCmdTarget@@@@UAEPAXI@Z
_TEXT	SEGMENT PARA USE32 PUBLIC 'CODE'
_TEXT	ENDS
;	COMDAT ??_G?$EventsMapByID_T@VCXTPCalendarEvent@@@CXTPCalendarData@@UAEPAXI@Z
_TEXT	SEGMENT PARA USE32 PUBLIC 'CODE'
_TEXT	ENDS
;	COMDAT ??_G?$EventsMapByID_T@VCXTPCalendarRecurrencePattern@@@CXTPCalendarData@@UAEPAXI@Z
_TEXT	SEGMENT PARA USE32 PUBLIC 'CODE'
_TEXT	ENDS
;	COMDAT ??_G?$CXTPCalendarViewEventT@VCXTPCalendarMonthViewGroup@@UXTP_CALENDAR_HITTESTINFO_MONTH_VIEW@@@@UAEPAXI@Z
_TEXT	SEGMENT PARA USE32 PUBLIC 'CODE'
_TEXT	ENDS
;	COMDAT ??0XTP_CALENDAR_HITTESTINFO_MONTH_VIEW@@QAE@XZ
_TEXT	SEGMENT PARA USE32 PUBLIC 'CODE'
_TEXT	ENDS
;	COMDAT ??1XTP_CALENDAR_HITTESTINFO_MONTH_VIEW@@UAE@XZ
_TEXT	SEGMENT PARA USE32 PUBLIC 'CODE'
_TEXT	ENDS
;	COMDAT ??_G?$CXTPCalendarViewGroupT@VCXTPCalendarMonthViewDay@@VCXTPCalendarMonthViewEvent@@UXTP_CALENDAR_HITTESTINFO_MONTH_VIEW@@VCXTPCalendarMonthViewGroup@@@@UAEPAXI@Z
_TEXT	SEGMENT PARA USE32 PUBLIC 'CODE'
_TEXT	ENDS
;	COMDAT ??_G?$CXTPCalendarViewDayT@VCXTPCalendarMonthView@@VCXTPCalendarMonthViewGroup@@UXTP_CALENDAR_HITTESTINFO_MONTH_VIEW@@VCXTPCalendarMonthViewDay@@@@UAEPAXI@Z
_TEXT	SEGMENT PARA USE32 PUBLIC 'CODE'
_TEXT	ENDS
;	COMDAT ??_G?$CXTPCalendarViewT@VCXTPCalendarMonthViewDay@@UXTP_CALENDAR_HITTESTINFO_MONTH_VIEW@@@@UAEPAXI@Z
_TEXT	SEGMENT PARA USE32 PUBLIC 'CODE'
_TEXT	ENDS
;	COMDAT ??_G?$CXTPCalendarViewEventT@VCXTPCalendarWeekViewGroup@@UXTP_CALENDAR_HITTESTINFO_WEEK_VIEW@@@@UAEPAXI@Z
_TEXT	SEGMENT PARA USE32 PUBLIC 'CODE'
_TEXT	ENDS
;	COMDAT ??0XTP_CALENDAR_HITTESTINFO_WEEK_VIEW@@QAE@XZ
_TEXT	SEGMENT PARA USE32 PUBLIC 'CODE'
_TEXT	ENDS
;	COMDAT ??1XTP_CALENDAR_HITTESTINFO_WEEK_VIEW@@UAE@XZ
_TEXT	SEGMENT PARA USE32 PUBLIC 'CODE'
_TEXT	ENDS
;	COMDAT ??_G?$CXTPCalendarViewGroupT@VCXTPCalendarWeekViewDay@@VCXTPCalendarWeekViewEvent@@UXTP_CALENDAR_HITTESTINFO_WEEK_VIEW@@VCXTPCalendarWeekViewGroup@@@@UAEPAXI@Z
_TEXT	SEGMENT PARA USE32 PUBLIC 'CODE'
_TEXT	ENDS
;	COMDAT ??_G?$CXTPCalendarViewDayT@VCXTPCalendarWeekView@@VCXTPCalendarWeekViewGroup@@UXTP_CALENDAR_HITTESTINFO_WEEK_VIEW@@VCXTPCalendarWeekViewDay@@@@UAEPAXI@Z
_TEXT	SEGMENT PARA USE32 PUBLIC 'CODE'
_TEXT	ENDS
;	COMDAT ??_G?$CXTPCalendarViewT@VCXTPCalendarWeekViewDay@@UXTP_CALENDAR_HITTESTINFO_WEEK_VIEW@@@@UAEPAXI@Z
_TEXT	SEGMENT PARA USE32 PUBLIC 'CODE'
_TEXT	ENDS
;	COMDAT ??_G?$CXTPCalendarTypedPtrAutoDeleteArray@VCPtrArray@@PAVCMemFile@@@@UAEPAXI@Z
_TEXT	SEGMENT PARA USE32 PUBLIC 'CODE'
_TEXT	ENDS
;	COMDAT ??1?$CTypedPtrArray@VCPtrArray@@PAVCMemFile@@@@UAE@XZ
_TEXT	SEGMENT PARA USE32 PUBLIC 'CODE'
_TEXT	ENDS
;	COMDAT ??_G?$CXTPNotifySinkImpl@VCTOPrevNextEventButtons@CXTPCalendarThemeOffice2007@@VC_m_Sink_Informator@12@@@UAEPAXI@Z
_TEXT	SEGMENT PARA USE32 PUBLIC 'CODE'
_TEXT	ENDS
;	COMDAT ??1?$CXTPNotifyMapCodeToHandler@P8CTOPrevNextEventButtons@CXTPCalendarThemeOffice2007@@AEXKIJ@Z@@UAE@XZ
_TEXT	SEGMENT PARA USE32 PUBLIC 'CODE'
_TEXT	ENDS
;	COMDAT ??_G?$CXTPNotifySinkImpl@VCXTPCalendarThemeOffice2007@@VC_m_Sink_Informator@1@@@UAEPAXI@Z
_TEXT	SEGMENT PARA USE32 PUBLIC 'CODE'
_TEXT	ENDS
;	COMDAT ??1?$CXTPNotifyMapCodeToHandler@P8CXTPCalendarThemeOffice2007@@AEXKIJ@Z@@UAE@XZ
_TEXT	SEGMENT PARA USE32 PUBLIC 'CODE'
_TEXT	ENDS
;	COMDAT ??_G?$CXTPNotifySinkImpl@VCXTPCalendarRemindersManager@@VC_m_Sink_Informator@1@@@UAEPAXI@Z
_TEXT	SEGMENT PARA USE32 PUBLIC 'CODE'
_TEXT	ENDS
;	COMDAT ??1?$CXTPNotifyMapCodeToHandler@P8CXTPCalendarRemindersManager@@AEXKIJ@Z@@UAE@XZ
_TEXT	SEGMENT PARA USE32 PUBLIC 'CODE'
_TEXT	ENDS
;	COMDAT ??_G?$CXTPNotifySinkImpl@VCXTPCalendarRemindersDialog@@VC_m_Sink_Informator@1@@@UAEPAXI@Z
_TEXT	SEGMENT PARA USE32 PUBLIC 'CODE'
_TEXT	ENDS
;	COMDAT ??1?$CXTPNotifyMapCodeToHandler@P8CXTPCalendarRemindersDialog@@AEXKIJ@Z@@UAE@XZ
_TEXT	SEGMENT PARA USE32 PUBLIC 'CODE'
_TEXT	ENDS
;	COMDAT ??_G?$CXTPSmartPtrInternalT@VCXTPCalendarResource@@@@UAEPAXI@Z
_TEXT	SEGMENT PARA USE32 PUBLIC 'CODE'
_TEXT	ENDS
;	COMDAT ??_G?$CXTPReserveArray@HH@@UAEPAXI@Z
_TEXT	SEGMENT PARA USE32 PUBLIC 'CODE'
_TEXT	ENDS
;	COMDAT ??_G?$CXTPReserveArray@EE@@UAEPAXI@Z
_TEXT	SEGMENT PARA USE32 PUBLIC 'CODE'
_TEXT	ENDS
;	COMDAT ??_G?$CXTPInternalCollectionT@VCXTPRowInfo@CXTPSyntaxEditDrawTextProcessor@@@@UAEPAXI@Z
_TEXT	SEGMENT PARA USE32 PUBLIC 'CODE'
_TEXT	ENDS
;	COMDAT ??_G?$CXTPNotifySinkImpl@VCXTPSyntaxEditCtrl@@VC_m_Sink_Informator@1@@@UAEPAXI@Z
_TEXT	SEGMENT PARA USE32 PUBLIC 'CODE'
_TEXT	ENDS
;	COMDAT ??1?$CXTPNotifyMapCodeToHandler@P8CXTPSyntaxEditCtrl@@AEXKIJ@Z@@UAE@XZ
_TEXT	SEGMENT PARA USE32 PUBLIC 'CODE'
_TEXT	ENDS
;	COMDAT ??_G?$CXTPNotifyMapCodeToHandler@P8CXTPDatePickerTheme@@AEXKIJ@Z@@UAEPAXI@Z
_TEXT	SEGMENT PARA USE32 PUBLIC 'CODE'
_TEXT	ENDS
;	COMDAT ??_GXTP_CALENDAR_HITTESTINFO_MONTH_VIEW@@UAEPAXI@Z
_TEXT	SEGMENT PARA USE32 PUBLIC 'CODE'
_TEXT	ENDS
;	COMDAT ??_GXTP_CALENDAR_HITTESTINFO_WEEK_VIEW@@UAEPAXI@Z
_TEXT	SEGMENT PARA USE32 PUBLIC 'CODE'
_TEXT	ENDS
;	COMDAT ?CreateObject@?$_CIP@UIUnknown@@$1?IID_IUnknown@@3U_GUID@@B@@QAEJABU_GUID@@K@Z
_TEXT	SEGMENT PARA USE32 PUBLIC 'CODE'
_TEXT	ENDS
;	COMDAT ?CreateObject@?$_CIP@UIUnknown@@$1?IID_IUnknown@@3U_GUID@@B@@QAEJPAGK@Z
_TEXT	SEGMENT PARA USE32 PUBLIC 'CODE'
_TEXT	ENDS
;	COMDAT ?_AddRef@?$_CIP@UIUnknown@@$1?IID_IUnknown@@3U_GUID@@B@@AAEXXZ
_TEXT	SEGMENT PARA USE32 PUBLIC 'CODE'
_TEXT	ENDS
;	COMDAT ??4?$_CIP@UIBinding@@$1?IID_IBinding@@3U_GUID@@B@@QAEAAV0@PAUIBinding@@@Z
_TEXT	SEGMENT PARA USE32 PUBLIC 'CODE'
_TEXT	ENDS
;	COMDAT ?_Release@?$_com_ptr_t@V?$_com_IIID@UIXMLDOMNode@XTPXML@@$1?_GUID_2933bf80_7b36_11d2_b20e_00c04f983e60@@3U__s_GUID@@A@@@@AAEXXZ
_TEXT	SEGMENT PARA USE32 PUBLIC 'CODE'
_TEXT	ENDS
;	COMDAT ?_AddRef@?$_com_ptr_t@V?$_com_IIID@UIXMLDOMNode@XTPXML@@$1?_GUID_2933bf80_7b36_11d2_b20e_00c04f983e60@@3U__s_GUID@@A@@@@AAEXXZ
_TEXT	SEGMENT PARA USE32 PUBLIC 'CODE'
_TEXT	ENDS
;	COMDAT ?_Release@?$_com_ptr_t@V?$_com_IIID@UIXMLDOMDocument@XTPXML@@$1?_GUID_2933bf81_7b36_11d2_b20e_00c04f983e60@@3U__s_GUID@@A@@@@AAEXXZ
_TEXT	SEGMENT PARA USE32 PUBLIC 'CODE'
_TEXT	ENDS
;	COMDAT ?_AddRef@?$_com_ptr_t@V?$_com_IIID@UIXMLDOMDocument@XTPXML@@$1?_GUID_2933bf81_7b36_11d2_b20e_00c04f983e60@@3U__s_GUID@@A@@@@AAEXXZ
_TEXT	SEGMENT PARA USE32 PUBLIC 'CODE'
_TEXT	ENDS
;	COMDAT ?CanUseMask@?$CXTPMaskEditT@VCEdit@@@@QBEHXZ
_TEXT	SEGMENT PARA USE32 PUBLIC 'CODE'
_TEXT	ENDS
;	COMDAT ?MaskCut@?$CXTPMaskEditT@VCEdit@@@@QAEHXZ
_TEXT	SEGMENT PARA USE32 PUBLIC 'CODE'
_TEXT	ENDS
;	COMDAT ?MaskCopy@?$CXTPMaskEditT@VCEdit@@@@QAEHXZ
_TEXT	SEGMENT PARA USE32 PUBLIC 'CODE'
_TEXT	ENDS
;	COMDAT ?MaskPaste@?$CXTPMaskEditT@VCEdit@@@@QAEHXZ
_TEXT	SEGMENT PARA USE32 PUBLIC 'CODE'
_TEXT	ENDS
;	COMDAT ?MaskClear@?$CXTPMaskEditT@VCEdit@@@@QAEHXZ
_TEXT	SEGMENT PARA USE32 PUBLIC 'CODE'
_TEXT	ENDS
;	COMDAT ?MaskUndo@?$CXTPMaskEditT@VCEdit@@@@QAEHXZ
_TEXT	SEGMENT PARA USE32 PUBLIC 'CODE'
_TEXT	ENDS
;	COMDAT ?MaskSelectAll@?$CXTPMaskEditT@VCEdit@@@@QAEXXZ
_TEXT	SEGMENT PARA USE32 PUBLIC 'CODE'
_TEXT	ENDS
;	COMDAT ?SetMaskedText@?$CXTPMaskEditT@VCEdit@@@@QAEXPBDHH@Z
_TEXT	SEGMENT PARA USE32 PUBLIC 'CODE'
_TEXT	ENDS
;	COMDAT ?ConvertUnicodeAlpha@?$CXTPMaskEditT@VCEdit@@@@QBEDDH@Z
_TEXT	SEGMENT PARA USE32 PUBLIC 'CODE'
_TEXT	ENDS
;	COMDAT ?OnChar@?$CXTPMaskEditT@VCEdit@@@@IAEXIII@Z
_TEXT	SEGMENT PARA USE32 PUBLIC 'CODE'
_TEXT	ENDS
;	COMDAT ?IsPromptPos@?$CXTPMaskEditT@VCEdit@@@@IBEHH@Z
_TEXT	SEGMENT PARA USE32 PUBLIC 'CODE'
_TEXT	ENDS
;	COMDAT ?GetCommandBars@?$CXTPCommandBarsSiteBase@VCMDIFrameWnd@@@@QBEPAVCXTPCommandBars@@XZ
_TEXT	SEGMENT PARA USE32 PUBLIC 'CODE'
_TEXT	ENDS
;	COMDAT ?GetCommandBars@?$CXTPCommandBarsSiteBase@VCFrameWnd@@@@QBEPAVCXTPCommandBars@@XZ
_TEXT	SEGMENT PARA USE32 PUBLIC 'CODE'
_TEXT	ENDS
;	COMDAT ?CreateObject@?$CThreadLocal@VCXTPKeyboardManager@@@@SGPAVCNoTrackObject@@XZ
_TEXT	SEGMENT PARA USE32 PUBLIC 'CODE'
_TEXT	ENDS
;	COMDAT ?CreateObject@?$CThreadLocal@VCXTPMouseManager@@@@SGPAVCNoTrackObject@@XZ
_TEXT	SEGMENT PARA USE32 PUBLIC 'CODE'
_TEXT	ENDS
;	COMDAT ?Lookup@?$CXTPNotifyMapCodeToHandler@P8CXTPOffice2007FrameHook@@AEXKIJ@Z@@QAEHKAAP8CXTPOffice2007FrameHook@@AEXKIJ@Z@Z
_TEXT	SEGMENT PARA USE32 PUBLIC 'CODE'
_TEXT	ENDS
;	COMDAT ?ClearHeap@?$CXTPHeapAllocatorT@UCXTPReportDataAllocatorData@@@@SAXXZ
_TEXT	SEGMENT PARA USE32 PUBLIC 'CODE'
_TEXT	ENDS
;	COMDAT ?ClearHeap@?$CXTPHeapAllocatorT@UCXTPReportRowAllocatorData@@@@SAXXZ
_TEXT	SEGMENT PARA USE32 PUBLIC 'CODE'
_TEXT	ENDS
;	COMDAT ?ClearHeap@?$CXTPHeapAllocatorT@UCXTPReportAllocatorDefaultData@@@@SAXXZ
_TEXT	SEGMENT PARA USE32 PUBLIC 'CODE'
_TEXT	ENDS
;	COMDAT ?_Release@?$_com_ptr_t@V?$_com_IIID@UIUnknown@@$1?_GUID_00000000_0000_0000_c000_000000000046@@3U__s_GUID@@A@@@@AAEXXZ
_TEXT	SEGMENT PARA USE32 PUBLIC 'CODE'
_TEXT	ENDS
;	COMDAT ?_AddRef@?$_com_ptr_t@V?$_com_IIID@UIUnknown@@$1?_GUID_00000000_0000_0000_c000_000000000046@@3U__s_GUID@@A@@@@AAEXXZ
_TEXT	SEGMENT PARA USE32 PUBLIC 'CODE'
_TEXT	ENDS
;	COMDAT ?_Release@?$_com_ptr_t@V?$_com_IIID@UProperties@XTPREPORTADODB@@$1?_GUID_00000504_0000_0010_8000_00aa006d2ea4@@3U__s_GUID@@A@@@@AAEXXZ
_TEXT	SEGMENT PARA USE32 PUBLIC 'CODE'
_TEXT	ENDS
;	COMDAT ?_AddRef@?$_com_ptr_t@V?$_com_IIID@UProperties@XTPREPORTADODB@@$1?_GUID_00000504_0000_0010_8000_00aa006d2ea4@@3U__s_GUID@@A@@@@AAEXXZ
_TEXT	SEGMENT PARA USE32 PUBLIC 'CODE'
_TEXT	ENDS
;	COMDAT ?_Release@?$_com_ptr_t@V?$_com_IIID@UProperty@XTPREPORTADODB@@$1?_GUID_00000503_0000_0010_8000_00aa006d2ea4@@3U__s_GUID@@A@@@@AAEXXZ
_TEXT	SEGMENT PARA USE32 PUBLIC 'CODE'
_TEXT	ENDS
;	COMDAT ?_AddRef@?$_com_ptr_t@V?$_com_IIID@UProperty@XTPREPORTADODB@@$1?_GUID_00000503_0000_0010_8000_00aa006d2ea4@@3U__s_GUID@@A@@@@AAEXXZ
_TEXT	SEGMENT PARA USE32 PUBLIC 'CODE'
_TEXT	ENDS
;	COMDAT ?_Release@?$_com_ptr_t@V?$_com_IIID@UError@XTPREPORTADODB@@$1?_GUID_00000500_0000_0010_8000_00aa006d2ea4@@3U__s_GUID@@A@@@@AAEXXZ
_TEXT	SEGMENT PARA USE32 PUBLIC 'CODE'
_TEXT	ENDS
;	COMDAT ?_AddRef@?$_com_ptr_t@V?$_com_IIID@UError@XTPREPORTADODB@@$1?_GUID_00000500_0000_0010_8000_00aa006d2ea4@@3U__s_GUID@@A@@@@AAEXXZ
_TEXT	SEGMENT PARA USE32 PUBLIC 'CODE'
_TEXT	ENDS
;	COMDAT ?_Release@?$_com_ptr_t@V?$_com_IIID@U_Connection@XTPREPORTADODB@@$1?_GUID_00000550_0000_0010_8000_00aa006d2ea4@@3U__s_GUID@@A@@@@AAEXXZ
_TEXT	SEGMENT PARA USE32 PUBLIC 'CODE'
_TEXT	ENDS
;	COMDAT ?_AddRef@?$_com_ptr_t@V?$_com_IIID@U_Connection@XTPREPORTADODB@@$1?_GUID_00000550_0000_0010_8000_00aa006d2ea4@@3U__s_GUID@@A@@@@AAEXXZ
_TEXT	SEGMENT PARA USE32 PUBLIC 'CODE'
_TEXT	ENDS
;	COMDAT ?_Release@?$_com_ptr_t@V?$_com_IIID@U_Recordset@XTPREPORTADODB@@$1?_GUID_00000556_0000_0010_8000_00aa006d2ea4@@3U__s_GUID@@A@@@@AAEXXZ
_TEXT	SEGMENT PARA USE32 PUBLIC 'CODE'
_TEXT	ENDS
;	COMDAT ?_AddRef@?$_com_ptr_t@V?$_com_IIID@U_Recordset@XTPREPORTADODB@@$1?_GUID_00000556_0000_0010_8000_00aa006d2ea4@@3U__s_GUID@@A@@@@AAEXXZ
_TEXT	SEGMENT PARA USE32 PUBLIC 'CODE'
_TEXT	ENDS
;	COMDAT ?_Release@?$_com_ptr_t@V?$_com_IIID@U_Parameter@XTPREPORTADODB@@$1?_GUID_0000050c_0000_0010_8000_00aa006d2ea4@@3U__s_GUID@@A@@@@AAEXXZ
_TEXT	SEGMENT PARA USE32 PUBLIC 'CODE'
_TEXT	ENDS
;	COMDAT ?_AddRef@?$_com_ptr_t@V?$_com_IIID@U_Parameter@XTPREPORTADODB@@$1?_GUID_0000050c_0000_0010_8000_00aa006d2ea4@@3U__s_GUID@@A@@@@AAEXXZ
_TEXT	SEGMENT PARA USE32 PUBLIC 'CODE'
_TEXT	ENDS
;	COMDAT ?_Release@?$_com_ptr_t@V?$_com_IIID@UParameters@XTPREPORTADODB@@$1?_GUID_0000050d_0000_0010_8000_00aa006d2ea4@@3U__s_GUID@@A@@@@AAEXXZ
_TEXT	SEGMENT PARA USE32 PUBLIC 'CODE'
_TEXT	ENDS
;	COMDAT ?_AddRef@?$_com_ptr_t@V?$_com_IIID@UParameters@XTPREPORTADODB@@$1?_GUID_0000050d_0000_0010_8000_00aa006d2ea4@@3U__s_GUID@@A@@@@AAEXXZ
_TEXT	SEGMENT PARA USE32 PUBLIC 'CODE'
_TEXT	ENDS
;	COMDAT ?_Release@?$_com_ptr_t@V?$_com_IIID@UErrors@XTPREPORTADODB@@$1?_GUID_00000501_0000_0010_8000_00aa006d2ea4@@3U__s_GUID@@A@@@@AAEXXZ
_TEXT	SEGMENT PARA USE32 PUBLIC 'CODE'
_TEXT	ENDS
;	COMDAT ?_AddRef@?$_com_ptr_t@V?$_com_IIID@UErrors@XTPREPORTADODB@@$1?_GUID_00000501_0000_0010_8000_00aa006d2ea4@@3U__s_GUID@@A@@@@AAEXXZ
_TEXT	SEGMENT PARA USE32 PUBLIC 'CODE'
_TEXT	ENDS
;	COMDAT ?_Release@?$_com_ptr_t@V?$_com_IIID@UFields@XTPREPORTADODB@@$1?_GUID_00000564_0000_0010_8000_00aa006d2ea4@@3U__s_GUID@@A@@@@AAEXXZ
_TEXT	SEGMENT PARA USE32 PUBLIC 'CODE'
_TEXT	ENDS
;	COMDAT ?_AddRef@?$_com_ptr_t@V?$_com_IIID@UFields@XTPREPORTADODB@@$1?_GUID_00000564_0000_0010_8000_00aa006d2ea4@@3U__s_GUID@@A@@@@AAEXXZ
_TEXT	SEGMENT PARA USE32 PUBLIC 'CODE'
_TEXT	ENDS
;	COMDAT ?_Release@?$_com_ptr_t@V?$_com_IIID@UIDispatch@@$1?_GUID_00020400_0000_0000_c000_000000000046@@3U__s_GUID@@A@@@@AAEXXZ
_TEXT	SEGMENT PARA USE32 PUBLIC 'CODE'
_TEXT	ENDS
;	COMDAT ?_AddRef@?$_com_ptr_t@V?$_com_IIID@UIDispatch@@$1?_GUID_00020400_0000_0000_c000_000000000046@@3U__s_GUID@@A@@@@AAEXXZ
_TEXT	SEGMENT PARA USE32 PUBLIC 'CODE'
_TEXT	ENDS
;	COMDAT ?_Release@?$_com_ptr_t@V?$_com_IIID@UField@XTPREPORTADODB@@$1?_GUID_00000569_0000_0010_8000_00aa006d2ea4@@3U__s_GUID@@A@@@@AAEXXZ
_TEXT	SEGMENT PARA USE32 PUBLIC 'CODE'
_TEXT	ENDS
;	COMDAT ?_AddRef@?$_com_ptr_t@V?$_com_IIID@UField@XTPREPORTADODB@@$1?_GUID_00000569_0000_0010_8000_00aa006d2ea4@@3U__s_GUID@@A@@@@AAEXXZ
_TEXT	SEGMENT PARA USE32 PUBLIC 'CODE'
_TEXT	ENDS
;	COMDAT ?_Release@?$_com_ptr_t@V?$_com_IIID@UTables@XTPREPORTADOX@@$1?_GUID_00000611_0000_0010_8000_00aa006d2ea4@@3U__s_GUID@@A@@@@AAEXXZ
_TEXT	SEGMENT PARA USE32 PUBLIC 'CODE'
_TEXT	ENDS
;	COMDAT ?_AddRef@?$_com_ptr_t@V?$_com_IIID@UTables@XTPREPORTADOX@@$1?_GUID_00000611_0000_0010_8000_00aa006d2ea4@@3U__s_GUID@@A@@@@AAEXXZ
_TEXT	SEGMENT PARA USE32 PUBLIC 'CODE'
_TEXT	ENDS
;	COMDAT ?_Release@?$_com_ptr_t@V?$_com_IIID@UProcedures@XTPREPORTADOX@@$1?_GUID_00000626_0000_0010_8000_00aa006d2ea4@@3U__s_GUID@@A@@@@AAEXXZ
_TEXT	SEGMENT PARA USE32 PUBLIC 'CODE'
_TEXT	ENDS
;	COMDAT ?_AddRef@?$_com_ptr_t@V?$_com_IIID@UProcedures@XTPREPORTADOX@@$1?_GUID_00000626_0000_0010_8000_00aa006d2ea4@@3U__s_GUID@@A@@@@AAEXXZ
_TEXT	SEGMENT PARA USE32 PUBLIC 'CODE'
_TEXT	ENDS
;	COMDAT ?_Release@?$_com_ptr_t@V?$_com_IIID@UViews@XTPREPORTADOX@@$1?_GUID_00000614_0000_0010_8000_00aa006d2ea4@@3U__s_GUID@@A@@@@AAEXXZ
_TEXT	SEGMENT PARA USE32 PUBLIC 'CODE'
_TEXT	ENDS
;	COMDAT ?_AddRef@?$_com_ptr_t@V?$_com_IIID@UViews@XTPREPORTADOX@@$1?_GUID_00000614_0000_0010_8000_00aa006d2ea4@@3U__s_GUID@@A@@@@AAEXXZ
_TEXT	SEGMENT PARA USE32 PUBLIC 'CODE'
_TEXT	ENDS
;	COMDAT ?_Release@?$_com_ptr_t@V?$_com_IIID@UGroups@XTPREPORTADOX@@$1?_GUID_00000617_0000_0010_8000_00aa006d2ea4@@3U__s_GUID@@A@@@@AAEXXZ
_TEXT	SEGMENT PARA USE32 PUBLIC 'CODE'
_TEXT	ENDS
;	COMDAT ?_AddRef@?$_com_ptr_t@V?$_com_IIID@UGroups@XTPREPORTADOX@@$1?_GUID_00000617_0000_0010_8000_00aa006d2ea4@@3U__s_GUID@@A@@@@AAEXXZ
_TEXT	SEGMENT PARA USE32 PUBLIC 'CODE'
_TEXT	ENDS
;	COMDAT ?_Release@?$_com_ptr_t@V?$_com_IIID@UUsers@XTPREPORTADOX@@$1?_GUID_0000061a_0000_0010_8000_00aa006d2ea4@@3U__s_GUID@@A@@@@AAEXXZ
_TEXT	SEGMENT PARA USE32 PUBLIC 'CODE'
_TEXT	ENDS
;	COMDAT ?_AddRef@?$_com_ptr_t@V?$_com_IIID@UUsers@XTPREPORTADOX@@$1?_GUID_0000061a_0000_0010_8000_00aa006d2ea4@@3U__s_GUID@@A@@@@AAEXXZ
_TEXT	SEGMENT PARA USE32 PUBLIC 'CODE'
_TEXT	ENDS
;	COMDAT ?_Release@?$_com_ptr_t@V?$_com_IIID@U_Table@XTPREPORTADOX@@$1?_GUID_00000610_0000_0010_8000_00aa006d2ea4@@3U__s_GUID@@A@@@@AAEXXZ
_TEXT	SEGMENT PARA USE32 PUBLIC 'CODE'
_TEXT	ENDS
;	COMDAT ?_AddRef@?$_com_ptr_t@V?$_com_IIID@U_Table@XTPREPORTADOX@@$1?_GUID_00000610_0000_0010_8000_00aa006d2ea4@@3U__s_GUID@@A@@@@AAEXXZ
_TEXT	SEGMENT PARA USE32 PUBLIC 'CODE'
_TEXT	ENDS
;	COMDAT ?_Release@?$_com_ptr_t@V?$_com_IIID@UColumns@XTPREPORTADOX@@$1?_GUID_0000061d_0000_0010_8000_00aa006d2ea4@@3U__s_GUID@@A@@@@AAEXXZ
_TEXT	SEGMENT PARA USE32 PUBLIC 'CODE'
_TEXT	ENDS
;	COMDAT ?_AddRef@?$_com_ptr_t@V?$_com_IIID@UColumns@XTPREPORTADOX@@$1?_GUID_0000061d_0000_0010_8000_00aa006d2ea4@@3U__s_GUID@@A@@@@AAEXXZ
_TEXT	SEGMENT PARA USE32 PUBLIC 'CODE'
_TEXT	ENDS
;	COMDAT ?_Release@?$_com_ptr_t@V?$_com_IIID@UIndexes@XTPREPORTADOX@@$1?_GUID_00000620_0000_0010_8000_00aa006d2ea4@@3U__s_GUID@@A@@@@AAEXXZ
_TEXT	SEGMENT PARA USE32 PUBLIC 'CODE'
_TEXT	ENDS
;	COMDAT ?_AddRef@?$_com_ptr_t@V?$_com_IIID@UIndexes@XTPREPORTADOX@@$1?_GUID_00000620_0000_0010_8000_00aa006d2ea4@@3U__s_GUID@@A@@@@AAEXXZ
_TEXT	SEGMENT PARA USE32 PUBLIC 'CODE'
_TEXT	ENDS
;	COMDAT ?_Release@?$_com_ptr_t@V?$_com_IIID@UKeys@XTPREPORTADOX@@$1?_GUID_00000623_0000_0010_8000_00aa006d2ea4@@3U__s_GUID@@A@@@@AAEXXZ
_TEXT	SEGMENT PARA USE32 PUBLIC 'CODE'
_TEXT	ENDS
;	COMDAT ?_AddRef@?$_com_ptr_t@V?$_com_IIID@UKeys@XTPREPORTADOX@@$1?_GUID_00000623_0000_0010_8000_00aa006d2ea4@@3U__s_GUID@@A@@@@AAEXXZ
_TEXT	SEGMENT PARA USE32 PUBLIC 'CODE'
_TEXT	ENDS
;	COMDAT ?_Release@?$_com_ptr_t@V?$_com_IIID@UProperties@XTPREPORTADOX@@$1?_GUID_00000504_0000_0010_8000_00aa006d2ea4@@3U__s_GUID@@A@@@@AAEXXZ
_TEXT	SEGMENT PARA USE32 PUBLIC 'CODE'
_TEXT	ENDS
;	COMDAT ?_AddRef@?$_com_ptr_t@V?$_com_IIID@UProperties@XTPREPORTADOX@@$1?_GUID_00000504_0000_0010_8000_00aa006d2ea4@@3U__s_GUID@@A@@@@AAEXXZ
_TEXT	SEGMENT PARA USE32 PUBLIC 'CODE'
_TEXT	ENDS
;	COMDAT ?_Release@?$_com_ptr_t@V?$_com_IIID@U_Catalog@XTPREPORTADOX@@$1?_GUID_00000603_0000_0010_8000_00aa006d2ea4@@3U__s_GUID@@A@@@@AAEXXZ
_TEXT	SEGMENT PARA USE32 PUBLIC 'CODE'
_TEXT	ENDS
;	COMDAT ?_AddRef@?$_com_ptr_t@V?$_com_IIID@U_Catalog@XTPREPORTADOX@@$1?_GUID_00000603_0000_0010_8000_00aa006d2ea4@@3U__s_GUID@@A@@@@AAEXXZ
_TEXT	SEGMENT PARA USE32 PUBLIC 'CODE'
_TEXT	ENDS
;	COMDAT ?_Release@?$_com_ptr_t@V?$_com_IIID@U_Column@XTPREPORTADOX@@$1?_GUID_0000061c_0000_0010_8000_00aa006d2ea4@@3U__s_GUID@@A@@@@AAEXXZ
_TEXT	SEGMENT PARA USE32 PUBLIC 'CODE'
_TEXT	ENDS
;	COMDAT ?_AddRef@?$_com_ptr_t@V?$_com_IIID@U_Column@XTPREPORTADOX@@$1?_GUID_0000061c_0000_0010_8000_00aa006d2ea4@@3U__s_GUID@@A@@@@AAEXXZ
_TEXT	SEGMENT PARA USE32 PUBLIC 'CODE'
_TEXT	ENDS
;	COMDAT ?_Release@?$_com_ptr_t@V?$_com_IIID@UProperty@XTPREPORTADOX@@$1?_GUID_00000503_0000_0010_8000_00aa006d2ea4@@3U__s_GUID@@A@@@@AAEXXZ
_TEXT	SEGMENT PARA USE32 PUBLIC 'CODE'
_TEXT	ENDS
;	COMDAT ?_AddRef@?$_com_ptr_t@V?$_com_IIID@UProperty@XTPREPORTADOX@@$1?_GUID_00000503_0000_0010_8000_00aa006d2ea4@@3U__s_GUID@@A@@@@AAEXXZ
_TEXT	SEGMENT PARA USE32 PUBLIC 'CODE'
_TEXT	ENDS
;	COMDAT ?_Release@?$_com_ptr_t@V?$_com_IIID@U_Index@XTPREPORTADOX@@$1?_GUID_0000061f_0000_0010_8000_00aa006d2ea4@@3U__s_GUID@@A@@@@AAEXXZ
_TEXT	SEGMENT PARA USE32 PUBLIC 'CODE'
_TEXT	ENDS
;	COMDAT ?_AddRef@?$_com_ptr_t@V?$_com_IIID@U_Index@XTPREPORTADOX@@$1?_GUID_0000061f_0000_0010_8000_00aa006d2ea4@@3U__s_GUID@@A@@@@AAEXXZ
_TEXT	SEGMENT PARA USE32 PUBLIC 'CODE'
_TEXT	ENDS
;	COMDAT ?_Release@?$_com_ptr_t@V?$_com_IIID@U_Key@XTPREPORTADOX@@$1?_GUID_00000622_0000_0010_8000_00aa006d2ea4@@3U__s_GUID@@A@@@@AAEXXZ
_TEXT	SEGMENT PARA USE32 PUBLIC 'CODE'
_TEXT	ENDS
;	COMDAT ?_AddRef@?$_com_ptr_t@V?$_com_IIID@U_Key@XTPREPORTADOX@@$1?_GUID_00000622_0000_0010_8000_00aa006d2ea4@@3U__s_GUID@@A@@@@AAEXXZ
_TEXT	SEGMENT PARA USE32 PUBLIC 'CODE'
_TEXT	ENDS
;	COMDAT ?_Release@?$_com_ptr_t@V?$_com_IIID@UProcedure@XTPREPORTADOX@@$1?_GUID_00000625_0000_0010_8000_00aa006d2ea4@@3U__s_GUID@@A@@@@AAEXXZ
_TEXT	SEGMENT PARA USE32 PUBLIC 'CODE'
_TEXT	ENDS
;	COMDAT ?_AddRef@?$_com_ptr_t@V?$_com_IIID@UProcedure@XTPREPORTADOX@@$1?_GUID_00000625_0000_0010_8000_00aa006d2ea4@@3U__s_GUID@@A@@@@AAEXXZ
_TEXT	SEGMENT PARA USE32 PUBLIC 'CODE'
_TEXT	ENDS
;	COMDAT ?_Release@?$_com_ptr_t@V?$_com_IIID@UView@XTPREPORTADOX@@$1?_GUID_00000613_0000_0010_8000_00aa006d2ea4@@3U__s_GUID@@A@@@@AAEXXZ
_TEXT	SEGMENT PARA USE32 PUBLIC 'CODE'
_TEXT	ENDS
;	COMDAT ?_AddRef@?$_com_ptr_t@V?$_com_IIID@UView@XTPREPORTADOX@@$1?_GUID_00000613_0000_0010_8000_00aa006d2ea4@@3U__s_GUID@@A@@@@AAEXXZ
_TEXT	SEGMENT PARA USE32 PUBLIC 'CODE'
_TEXT	ENDS
;	COMDAT ?_Release@?$_com_ptr_t@V?$_com_IIID@U_Group@XTPREPORTADOX@@$1?_GUID_00000628_0000_0010_8000_00aa006d2ea4@@3U__s_GUID@@A@@@@AAEXXZ
_TEXT	SEGMENT PARA USE32 PUBLIC 'CODE'
_TEXT	ENDS
;	COMDAT ?_AddRef@?$_com_ptr_t@V?$_com_IIID@U_Group@XTPREPORTADOX@@$1?_GUID_00000628_0000_0010_8000_00aa006d2ea4@@3U__s_GUID@@A@@@@AAEXXZ
_TEXT	SEGMENT PARA USE32 PUBLIC 'CODE'
_TEXT	ENDS
;	COMDAT ?_Release@?$_com_ptr_t@V?$_com_IIID@U_User@XTPREPORTADOX@@$1?_GUID_00000627_0000_0010_8000_00aa006d2ea4@@3U__s_GUID@@A@@@@AAEXXZ
_TEXT	SEGMENT PARA USE32 PUBLIC 'CODE'
_TEXT	ENDS
;	COMDAT ?_AddRef@?$_com_ptr_t@V?$_com_IIID@U_User@XTPREPORTADOX@@$1?_GUID_00000627_0000_0010_8000_00aa006d2ea4@@3U__s_GUID@@A@@@@AAEXXZ
_TEXT	SEGMENT PARA USE32 PUBLIC 'CODE'
_TEXT	ENDS
;	COMDAT ?Lookup@?$CXTPNotifyMapCodeToHandler@P8CXTPCalendarController@@AEXKIJ@Z@@QAEHKAAP8CXTPCalendarController@@AEXKIJ@Z@Z
_TEXT	SEGMENT PARA USE32 PUBLIC 'CODE'
_TEXT	ENDS
;	COMDAT ?Lookup@?$CXTPNotifyMapCodeToHandler@P8CXTPDatePickerTheme@@AEXKIJ@Z@@QAEHKAAP8CXTPDatePickerTheme@@AEXKIJ@Z@Z
_TEXT	SEGMENT PARA USE32 PUBLIC 'CODE'
_TEXT	ENDS
;	COMDAT ?Lookup@?$CXTPNotifyMapCodeToHandler@P8CXTPCalendarControl@@AEXKIJ@Z@@QAEHKAAP8CXTPCalendarControl@@AEXKIJ@Z@Z
_TEXT	SEGMENT PARA USE32 PUBLIC 'CODE'
_TEXT	ENDS
;	COMDAT ?GetAt@?$CTypedPtrArray@VCPtrArray@@PAVCXTPCalendarViewPartBrushValue@@@@QBEPAVCXTPCalendarViewPartBrushValue@@H@Z
_TEXT	SEGMENT PARA USE32 PUBLIC 'CODE'
_TEXT	ENDS
;	COMDAT ?SetAt@?$CTypedPtrArray@VCPtrArray@@PAVCXTPCalendarViewPartBrushValue@@@@QAEXHPAVCXTPCalendarViewPartBrushValue@@@Z
_TEXT	SEGMENT PARA USE32 PUBLIC 'CODE'
_TEXT	ENDS
;	COMDAT ?AddViewEvent@?$CXTPCalendarViewGroupT@VCXTPCalendarDayViewDay@@VCXTPCalendarDayViewEvent@@UXTP_CALENDAR_HITTESTINFO_DAY_VIEW@@VCXTPCalendarDayViewGroup@@@@QAEXPAVCXTPCalendarEvent@@@Z
_TEXT	SEGMENT PARA USE32 PUBLIC 'CODE'
_TEXT	ENDS
;	COMDAT ?Lookup@?$CXTPNotifyMapCodeToHandler@P8CXTPCalendarCaptionBarTheme@@AEXKIJ@Z@@QAEHKAAP8CXTPCalendarCaptionBarTheme@@AEXKIJ@Z@Z
_TEXT	SEGMENT PARA USE32 PUBLIC 'CODE'
_TEXT	ENDS
;	COMDAT ?Lookup@?$CXTPNotifyMapCodeToHandler@P8CXTPCalendarControlView@@AEXKIJ@Z@@QAEHKAAP8CXTPCalendarControlView@@AEXKIJ@Z@Z
_TEXT	SEGMENT PARA USE32 PUBLIC 'CODE'
_TEXT	ENDS
;	COMDAT ?_Release@?$_com_ptr_t@V?$_com_IIID@UProperties@XTPADODB@@$1?_GUID_00000504_0000_0010_8000_00aa006d2ea4@@3U__s_GUID@@A@@@@AAEXXZ
_TEXT	SEGMENT PARA USE32 PUBLIC 'CODE'
_TEXT	ENDS
;	COMDAT ?_AddRef@?$_com_ptr_t@V?$_com_IIID@UProperties@XTPADODB@@$1?_GUID_00000504_0000_0010_8000_00aa006d2ea4@@3U__s_GUID@@A@@@@AAEXXZ
_TEXT	SEGMENT PARA USE32 PUBLIC 'CODE'
_TEXT	ENDS
;	COMDAT ?_Release@?$_com_ptr_t@V?$_com_IIID@UProperty@XTPADODB@@$1?_GUID_00000503_0000_0010_8000_00aa006d2ea4@@3U__s_GUID@@A@@@@AAEXXZ
_TEXT	SEGMENT PARA USE32 PUBLIC 'CODE'
_TEXT	ENDS
;	COMDAT ?_AddRef@?$_com_ptr_t@V?$_com_IIID@UProperty@XTPADODB@@$1?_GUID_00000503_0000_0010_8000_00aa006d2ea4@@3U__s_GUID@@A@@@@AAEXXZ
_TEXT	SEGMENT PARA USE32 PUBLIC 'CODE'
_TEXT	ENDS
;	COMDAT ?_Release@?$_com_ptr_t@V?$_com_IIID@UError@XTPADODB@@$1?_GUID_00000500_0000_0010_8000_00aa006d2ea4@@3U__s_GUID@@A@@@@AAEXXZ
_TEXT	SEGMENT PARA USE32 PUBLIC 'CODE'
_TEXT	ENDS
;	COMDAT ?_AddRef@?$_com_ptr_t@V?$_com_IIID@UError@XTPADODB@@$1?_GUID_00000500_0000_0010_8000_00aa006d2ea4@@3U__s_GUID@@A@@@@AAEXXZ
_TEXT	SEGMENT PARA USE32 PUBLIC 'CODE'
_TEXT	ENDS
;	COMDAT ?_Release@?$_com_ptr_t@V?$_com_IIID@U_Connection@XTPADODB@@$1?_GUID_00000550_0000_0010_8000_00aa006d2ea4@@3U__s_GUID@@A@@@@AAEXXZ
_TEXT	SEGMENT PARA USE32 PUBLIC 'CODE'
_TEXT	ENDS
;	COMDAT ?_AddRef@?$_com_ptr_t@V?$_com_IIID@U_Connection@XTPADODB@@$1?_GUID_00000550_0000_0010_8000_00aa006d2ea4@@3U__s_GUID@@A@@@@AAEXXZ
_TEXT	SEGMENT PARA USE32 PUBLIC 'CODE'
_TEXT	ENDS
;	COMDAT ?_Release@?$_com_ptr_t@V?$_com_IIID@U_Recordset@XTPADODB@@$1?_GUID_00000556_0000_0010_8000_00aa006d2ea4@@3U__s_GUID@@A@@@@AAEXXZ
_TEXT	SEGMENT PARA USE32 PUBLIC 'CODE'
_TEXT	ENDS
;	COMDAT ?_AddRef@?$_com_ptr_t@V?$_com_IIID@U_Recordset@XTPADODB@@$1?_GUID_00000556_0000_0010_8000_00aa006d2ea4@@3U__s_GUID@@A@@@@AAEXXZ
_TEXT	SEGMENT PARA USE32 PUBLIC 'CODE'
_TEXT	ENDS
;	COMDAT ?_Release@?$_com_ptr_t@V?$_com_IIID@U_Parameter@XTPADODB@@$1?_GUID_0000050c_0000_0010_8000_00aa006d2ea4@@3U__s_GUID@@A@@@@AAEXXZ
_TEXT	SEGMENT PARA USE32 PUBLIC 'CODE'
_TEXT	ENDS
;	COMDAT ?_AddRef@?$_com_ptr_t@V?$_com_IIID@U_Parameter@XTPADODB@@$1?_GUID_0000050c_0000_0010_8000_00aa006d2ea4@@3U__s_GUID@@A@@@@AAEXXZ
_TEXT	SEGMENT PARA USE32 PUBLIC 'CODE'
_TEXT	ENDS
;	COMDAT ?_Release@?$_com_ptr_t@V?$_com_IIID@UParameters@XTPADODB@@$1?_GUID_0000050d_0000_0010_8000_00aa006d2ea4@@3U__s_GUID@@A@@@@AAEXXZ
_TEXT	SEGMENT PARA USE32 PUBLIC 'CODE'
_TEXT	ENDS
;	COMDAT ?_AddRef@?$_com_ptr_t@V?$_com_IIID@UParameters@XTPADODB@@$1?_GUID_0000050d_0000_0010_8000_00aa006d2ea4@@3U__s_GUID@@A@@@@AAEXXZ
_TEXT	SEGMENT PARA USE32 PUBLIC 'CODE'
_TEXT	ENDS
;	COMDAT ?_Release@?$_com_ptr_t@V?$_com_IIID@UErrors@XTPADODB@@$1?_GUID_00000501_0000_0010_8000_00aa006d2ea4@@3U__s_GUID@@A@@@@AAEXXZ
_TEXT	SEGMENT PARA USE32 PUBLIC 'CODE'
_TEXT	ENDS
;	COMDAT ?_AddRef@?$_com_ptr_t@V?$_com_IIID@UErrors@XTPADODB@@$1?_GUID_00000501_0000_0010_8000_00aa006d2ea4@@3U__s_GUID@@A@@@@AAEXXZ
_TEXT	SEGMENT PARA USE32 PUBLIC 'CODE'
_TEXT	ENDS
;	COMDAT ?_Release@?$_com_ptr_t@V?$_com_IIID@UFields@XTPADODB@@$1?_GUID_00000564_0000_0010_8000_00aa006d2ea4@@3U__s_GUID@@A@@@@AAEXXZ
_TEXT	SEGMENT PARA USE32 PUBLIC 'CODE'
_TEXT	ENDS
;	COMDAT ?_AddRef@?$_com_ptr_t@V?$_com_IIID@UFields@XTPADODB@@$1?_GUID_00000564_0000_0010_8000_00aa006d2ea4@@3U__s_GUID@@A@@@@AAEXXZ
_TEXT	SEGMENT PARA USE32 PUBLIC 'CODE'
_TEXT	ENDS
;	COMDAT ?_Release@?$_com_ptr_t@V?$_com_IIID@UField@XTPADODB@@$1?_GUID_00000569_0000_0010_8000_00aa006d2ea4@@3U__s_GUID@@A@@@@AAEXXZ
_TEXT	SEGMENT PARA USE32 PUBLIC 'CODE'
_TEXT	ENDS
;	COMDAT ?_AddRef@?$_com_ptr_t@V?$_com_IIID@UField@XTPADODB@@$1?_GUID_00000569_0000_0010_8000_00aa006d2ea4@@3U__s_GUID@@A@@@@AAEXXZ
_TEXT	SEGMENT PARA USE32 PUBLIC 'CODE'
_TEXT	ENDS
;	COMDAT ?_Release@?$_com_ptr_t@V?$_com_IIID@UTables@XTPADOX@@$1?_GUID_00000611_0000_0010_8000_00aa006d2ea4@@3U__s_GUID@@A@@@@AAEXXZ
_TEXT	SEGMENT PARA USE32 PUBLIC 'CODE'
_TEXT	ENDS
;	COMDAT ?_AddRef@?$_com_ptr_t@V?$_com_IIID@UTables@XTPADOX@@$1?_GUID_00000611_0000_0010_8000_00aa006d2ea4@@3U__s_GUID@@A@@@@AAEXXZ
_TEXT	SEGMENT PARA USE32 PUBLIC 'CODE'
_TEXT	ENDS
;	COMDAT ?_Release@?$_com_ptr_t@V?$_com_IIID@UProcedures@XTPADOX@@$1?_GUID_00000626_0000_0010_8000_00aa006d2ea4@@3U__s_GUID@@A@@@@AAEXXZ
_TEXT	SEGMENT PARA USE32 PUBLIC 'CODE'
_TEXT	ENDS
;	COMDAT ?_AddRef@?$_com_ptr_t@V?$_com_IIID@UProcedures@XTPADOX@@$1?_GUID_00000626_0000_0010_8000_00aa006d2ea4@@3U__s_GUID@@A@@@@AAEXXZ
_TEXT	SEGMENT PARA USE32 PUBLIC 'CODE'
_TEXT	ENDS
;	COMDAT ?_Release@?$_com_ptr_t@V?$_com_IIID@UViews@XTPADOX@@$1?_GUID_00000614_0000_0010_8000_00aa006d2ea4@@3U__s_GUID@@A@@@@AAEXXZ
_TEXT	SEGMENT PARA USE32 PUBLIC 'CODE'
_TEXT	ENDS
;	COMDAT ?_AddRef@?$_com_ptr_t@V?$_com_IIID@UViews@XTPADOX@@$1?_GUID_00000614_0000_0010_8000_00aa006d2ea4@@3U__s_GUID@@A@@@@AAEXXZ
_TEXT	SEGMENT PARA USE32 PUBLIC 'CODE'
_TEXT	ENDS
;	COMDAT ?_Release@?$_com_ptr_t@V?$_com_IIID@UGroups@XTPADOX@@$1?_GUID_00000617_0000_0010_8000_00aa006d2ea4@@3U__s_GUID@@A@@@@AAEXXZ
_TEXT	SEGMENT PARA USE32 PUBLIC 'CODE'
_TEXT	ENDS
;	COMDAT ?_AddRef@?$_com_ptr_t@V?$_com_IIID@UGroups@XTPADOX@@$1?_GUID_00000617_0000_0010_8000_00aa006d2ea4@@3U__s_GUID@@A@@@@AAEXXZ
_TEXT	SEGMENT PARA USE32 PUBLIC 'CODE'
_TEXT	ENDS
;	COMDAT ?_Release@?$_com_ptr_t@V?$_com_IIID@UUsers@XTPADOX@@$1?_GUID_0000061a_0000_0010_8000_00aa006d2ea4@@3U__s_GUID@@A@@@@AAEXXZ
_TEXT	SEGMENT PARA USE32 PUBLIC 'CODE'
_TEXT	ENDS
;	COMDAT ?_AddRef@?$_com_ptr_t@V?$_com_IIID@UUsers@XTPADOX@@$1?_GUID_0000061a_0000_0010_8000_00aa006d2ea4@@3U__s_GUID@@A@@@@AAEXXZ
_TEXT	SEGMENT PARA USE32 PUBLIC 'CODE'
_TEXT	ENDS
;	COMDAT ?_Release@?$_com_ptr_t@V?$_com_IIID@U_Table@XTPADOX@@$1?_GUID_00000610_0000_0010_8000_00aa006d2ea4@@3U__s_GUID@@A@@@@AAEXXZ
_TEXT	SEGMENT PARA USE32 PUBLIC 'CODE'
_TEXT	ENDS
;	COMDAT ?_AddRef@?$_com_ptr_t@V?$_com_IIID@U_Table@XTPADOX@@$1?_GUID_00000610_0000_0010_8000_00aa006d2ea4@@3U__s_GUID@@A@@@@AAEXXZ
_TEXT	SEGMENT PARA USE32 PUBLIC 'CODE'
_TEXT	ENDS
;	COMDAT ?_Release@?$_com_ptr_t@V?$_com_IIID@UColumns@XTPADOX@@$1?_GUID_0000061d_0000_0010_8000_00aa006d2ea4@@3U__s_GUID@@A@@@@AAEXXZ
_TEXT	SEGMENT PARA USE32 PUBLIC 'CODE'
_TEXT	ENDS
;	COMDAT ?_AddRef@?$_com_ptr_t@V?$_com_IIID@UColumns@XTPADOX@@$1?_GUID_0000061d_0000_0010_8000_00aa006d2ea4@@3U__s_GUID@@A@@@@AAEXXZ
_TEXT	SEGMENT PARA USE32 PUBLIC 'CODE'
_TEXT	ENDS
;	COMDAT ?_Release@?$_com_ptr_t@V?$_com_IIID@UIndexes@XTPADOX@@$1?_GUID_00000620_0000_0010_8000_00aa006d2ea4@@3U__s_GUID@@A@@@@AAEXXZ
_TEXT	SEGMENT PARA USE32 PUBLIC 'CODE'
_TEXT	ENDS
;	COMDAT ?_AddRef@?$_com_ptr_t@V?$_com_IIID@UIndexes@XTPADOX@@$1?_GUID_00000620_0000_0010_8000_00aa006d2ea4@@3U__s_GUID@@A@@@@AAEXXZ
_TEXT	SEGMENT PARA USE32 PUBLIC 'CODE'
_TEXT	ENDS
;	COMDAT ?_Release@?$_com_ptr_t@V?$_com_IIID@UKeys@XTPADOX@@$1?_GUID_00000623_0000_0010_8000_00aa006d2ea4@@3U__s_GUID@@A@@@@AAEXXZ
_TEXT	SEGMENT PARA USE32 PUBLIC 'CODE'
_TEXT	ENDS
;	COMDAT ?_AddRef@?$_com_ptr_t@V?$_com_IIID@UKeys@XTPADOX@@$1?_GUID_00000623_0000_0010_8000_00aa006d2ea4@@3U__s_GUID@@A@@@@AAEXXZ
_TEXT	SEGMENT PARA USE32 PUBLIC 'CODE'
_TEXT	ENDS
;	COMDAT ?_Release@?$_com_ptr_t@V?$_com_IIID@UProperties@XTPADOX@@$1?_GUID_00000504_0000_0010_8000_00aa006d2ea4@@3U__s_GUID@@A@@@@AAEXXZ
_TEXT	SEGMENT PARA USE32 PUBLIC 'CODE'
_TEXT	ENDS
;	COMDAT ?_AddRef@?$_com_ptr_t@V?$_com_IIID@UProperties@XTPADOX@@$1?_GUID_00000504_0000_0010_8000_00aa006d2ea4@@3U__s_GUID@@A@@@@AAEXXZ
_TEXT	SEGMENT PARA USE32 PUBLIC 'CODE'
_TEXT	ENDS
;	COMDAT ?_Release@?$_com_ptr_t@V?$_com_IIID@U_Catalog@XTPADOX@@$1?_GUID_00000603_0000_0010_8000_00aa006d2ea4@@3U__s_GUID@@A@@@@AAEXXZ
_TEXT	SEGMENT PARA USE32 PUBLIC 'CODE'
_TEXT	ENDS
;	COMDAT ?_AddRef@?$_com_ptr_t@V?$_com_IIID@U_Catalog@XTPADOX@@$1?_GUID_00000603_0000_0010_8000_00aa006d2ea4@@3U__s_GUID@@A@@@@AAEXXZ
_TEXT	SEGMENT PARA USE32 PUBLIC 'CODE'
_TEXT	ENDS
;	COMDAT ?_Release@?$_com_ptr_t@V?$_com_IIID@U_Column@XTPADOX@@$1?_GUID_0000061c_0000_0010_8000_00aa006d2ea4@@3U__s_GUID@@A@@@@AAEXXZ
_TEXT	SEGMENT PARA USE32 PUBLIC 'CODE'
_TEXT	ENDS
;	COMDAT ?_AddRef@?$_com_ptr_t@V?$_com_IIID@U_Column@XTPADOX@@$1?_GUID_0000061c_0000_0010_8000_00aa006d2ea4@@3U__s_GUID@@A@@@@AAEXXZ
_TEXT	SEGMENT PARA USE32 PUBLIC 'CODE'
_TEXT	ENDS
;	COMDAT ?_Release@?$_com_ptr_t@V?$_com_IIID@UProperty@XTPADOX@@$1?_GUID_00000503_0000_0010_8000_00aa006d2ea4@@3U__s_GUID@@A@@@@AAEXXZ
_TEXT	SEGMENT PARA USE32 PUBLIC 'CODE'
_TEXT	ENDS
;	COMDAT ?_AddRef@?$_com_ptr_t@V?$_com_IIID@UProperty@XTPADOX@@$1?_GUID_00000503_0000_0010_8000_00aa006d2ea4@@3U__s_GUID@@A@@@@AAEXXZ
_TEXT	SEGMENT PARA USE32 PUBLIC 'CODE'
_TEXT	ENDS
;	COMDAT ?_Release@?$_com_ptr_t@V?$_com_IIID@U_Index@XTPADOX@@$1?_GUID_0000061f_0000_0010_8000_00aa006d2ea4@@3U__s_GUID@@A@@@@AAEXXZ
_TEXT	SEGMENT PARA USE32 PUBLIC 'CODE'
_TEXT	ENDS
;	COMDAT ?_AddRef@?$_com_ptr_t@V?$_com_IIID@U_Index@XTPADOX@@$1?_GUID_0000061f_0000_0010_8000_00aa006d2ea4@@3U__s_GUID@@A@@@@AAEXXZ
_TEXT	SEGMENT PARA USE32 PUBLIC 'CODE'
_TEXT	ENDS
;	COMDAT ?_Release@?$_com_ptr_t@V?$_com_IIID@U_Key@XTPADOX@@$1?_GUID_00000622_0000_0010_8000_00aa006d2ea4@@3U__s_GUID@@A@@@@AAEXXZ
_TEXT	SEGMENT PARA USE32 PUBLIC 'CODE'
_TEXT	ENDS
;	COMDAT ?_AddRef@?$_com_ptr_t@V?$_com_IIID@U_Key@XTPADOX@@$1?_GUID_00000622_0000_0010_8000_00aa006d2ea4@@3U__s_GUID@@A@@@@AAEXXZ
_TEXT	SEGMENT PARA USE32 PUBLIC 'CODE'
_TEXT	ENDS
;	COMDAT ?_Release@?$_com_ptr_t@V?$_com_IIID@UProcedure@XTPADOX@@$1?_GUID_00000625_0000_0010_8000_00aa006d2ea4@@3U__s_GUID@@A@@@@AAEXXZ
_TEXT	SEGMENT PARA USE32 PUBLIC 'CODE'
_TEXT	ENDS
;	COMDAT ?_AddRef@?$_com_ptr_t@V?$_com_IIID@UProcedure@XTPADOX@@$1?_GUID_00000625_0000_0010_8000_00aa006d2ea4@@3U__s_GUID@@A@@@@AAEXXZ
_TEXT	SEGMENT PARA USE32 PUBLIC 'CODE'
_TEXT	ENDS
;	COMDAT ?_Release@?$_com_ptr_t@V?$_com_IIID@UView@XTPADOX@@$1?_GUID_00000613_0000_0010_8000_00aa006d2ea4@@3U__s_GUID@@A@@@@AAEXXZ
_TEXT	SEGMENT PARA USE32 PUBLIC 'CODE'
_TEXT	ENDS
;	COMDAT ?_AddRef@?$_com_ptr_t@V?$_com_IIID@UView@XTPADOX@@$1?_GUID_00000613_0000_0010_8000_00aa006d2ea4@@3U__s_GUID@@A@@@@AAEXXZ
_TEXT	SEGMENT PARA USE32 PUBLIC 'CODE'
_TEXT	ENDS
;	COMDAT ?_Release@?$_com_ptr_t@V?$_com_IIID@U_Group@XTPADOX@@$1?_GUID_00000628_0000_0010_8000_00aa006d2ea4@@3U__s_GUID@@A@@@@AAEXXZ
_TEXT	SEGMENT PARA USE32 PUBLIC 'CODE'
_TEXT	ENDS
;	COMDAT ?_AddRef@?$_com_ptr_t@V?$_com_IIID@U_Group@XTPADOX@@$1?_GUID_00000628_0000_0010_8000_00aa006d2ea4@@3U__s_GUID@@A@@@@AAEXXZ
_TEXT	SEGMENT PARA USE32 PUBLIC 'CODE'
_TEXT	ENDS
;	COMDAT ?_Release@?$_com_ptr_t@V?$_com_IIID@U_User@XTPADOX@@$1?_GUID_00000627_0000_0010_8000_00aa006d2ea4@@3U__s_GUID@@A@@@@AAEXXZ
_TEXT	SEGMENT PARA USE32 PUBLIC 'CODE'
_TEXT	ENDS
;	COMDAT ?_AddRef@?$_com_ptr_t@V?$_com_IIID@U_User@XTPADOX@@$1?_GUID_00000627_0000_0010_8000_00aa006d2ea4@@3U__s_GUID@@A@@@@AAEXXZ
_TEXT	SEGMENT PARA USE32 PUBLIC 'CODE'
_TEXT	ENDS
;	COMDAT ?AddViewEvent@?$CXTPCalendarViewGroupT@VCXTPCalendarMonthViewDay@@VCXTPCalendarMonthViewEvent@@UXTP_CALENDAR_HITTESTINFO_MONTH_VIEW@@VCXTPCalendarMonthViewGroup@@@@QAEXPAVCXTPCalendarEvent@@@Z
_TEXT	SEGMENT PARA USE32 PUBLIC 'CODE'
_TEXT	ENDS
;	COMDAT ?AddViewEvent@?$CXTPCalendarViewGroupT@VCXTPCalendarWeekViewDay@@VCXTPCalendarWeekViewEvent@@UXTP_CALENDAR_HITTESTINFO_WEEK_VIEW@@VCXTPCalendarWeekViewGroup@@@@QAEXPAVCXTPCalendarEvent@@@Z
_TEXT	SEGMENT PARA USE32 PUBLIC 'CODE'
_TEXT	ENDS
;	COMDAT ?GetAt@?$CTypedPtrArray@VCPtrArray@@PAVCMemFile@@@@QBEPAVCMemFile@@H@Z
_TEXT	SEGMENT PARA USE32 PUBLIC 'CODE'
_TEXT	ENDS
;	COMDAT ?SetAt@?$CTypedPtrArray@VCPtrArray@@PAVCMemFile@@@@QAEXHPAVCMemFile@@@Z
_TEXT	SEGMENT PARA USE32 PUBLIC 'CODE'
_TEXT	ENDS
;	COMDAT ?_DeletePtr@?$CXTPCalendarTypedPtrAutoDeleteMap@HPAVCXTPCalendarViewPartBrushValue@@@@AAEXH@Z
_TEXT	SEGMENT PARA USE32 PUBLIC 'CODE'
_TEXT	ENDS
;	COMDAT ?Lookup@?$CXTPNotifyMapCodeToHandler@P8CTOPrevNextEventButtons@CXTPCalendarThemeOffice2007@@AEXKIJ@Z@@QAEHKAAP8CTOPrevNextEventButtons@CXTPCalendarThemeOffice2007@@AEXKIJ@Z@Z
_TEXT	SEGMENT PARA USE32 PUBLIC 'CODE'
_TEXT	ENDS
;	COMDAT ?Lookup@?$CXTPNotifyMapCodeToHandler@P8CXTPCalendarThemeOffice2007@@AEXKIJ@Z@@QAEHKAAP8CXTPCalendarThemeOffice2007@@AEXKIJ@Z@Z
_TEXT	SEGMENT PARA USE32 PUBLIC 'CODE'
_TEXT	ENDS
;	COMDAT ?Lookup@?$CXTPNotifyMapCodeToHandler@P8CXTPCalendarRemindersManager@@AEXKIJ@Z@@QAEHKAAP8CXTPCalendarRemindersManager@@AEXKIJ@Z@Z
_TEXT	SEGMENT PARA USE32 PUBLIC 'CODE'
_TEXT	ENDS
;	COMDAT ?Lookup@?$CXTPNotifyMapCodeToHandler@P8CXTPCalendarRemindersDialog@@AEXKIJ@Z@@QAEHKAAP8CXTPCalendarRemindersDialog@@AEXKIJ@Z@Z
_TEXT	SEGMENT PARA USE32 PUBLIC 'CODE'
_TEXT	ENDS
;	COMDAT ?Lookup@?$CXTPNotifyMapCodeToHandler@P8CXTPSyntaxEditCtrl@@AEXKIJ@Z@@QAEHKAAP8CXTPSyntaxEditCtrl@@AEXKIJ@Z@Z
_TEXT	SEGMENT PARA USE32 PUBLIC 'CODE'
_TEXT	ENDS
;	COMDAT ??0?$CXTPSmartPtrInternalT@VCXTPCalendarEvents@@@@QAE@PAVCXTPCalendarEvents@@H@Z
_TEXT	SEGMENT PARA USE32 PUBLIC 'CODE'
_TEXT	ENDS
;	COMDAT ??1?$CXTPSmartPtrInternalT@VCXTPCalendarEvents@@@@UAE@XZ
_TEXT	SEGMENT PARA USE32 PUBLIC 'CODE'
_TEXT	ENDS
;	COMDAT ??C?$CXTPSmartPtrInternalT@VCXTPCalendarEvents@@@@QBEPAVCXTPCalendarEvents@@XZ
_TEXT	SEGMENT PARA USE32 PUBLIC 'CODE'
_TEXT	ENDS
;	COMDAT ??B?$CXTPSmartPtrInternalT@VCXTPCalendarEvents@@@@QBEPAVCXTPCalendarEvents@@XZ
_TEXT	SEGMENT PARA USE32 PUBLIC 'CODE'
_TEXT	ENDS
;	COMDAT ??7?$CXTPSmartPtrInternalT@VCXTPCalendarEvents@@@@QBEHXZ
_TEXT	SEGMENT PARA USE32 PUBLIC 'CODE'
_TEXT	ENDS
;	COMDAT ??0?$CXTPSmartPtrInternalT@VCXTPRowInfo@CXTPSyntaxEditDrawTextProcessor@@@@QAE@PAVCXTPRowInfo@CXTPSyntaxEditDrawTextProcessor@@H@Z
_TEXT	SEGMENT PARA USE32 PUBLIC 'CODE'
_TEXT	ENDS
;	COMDAT ??1?$CXTPSmartPtrInternalT@VCXTPRowInfo@CXTPSyntaxEditDrawTextProcessor@@@@UAE@XZ
_TEXT	SEGMENT PARA USE32 PUBLIC 'CODE'
_TEXT	ENDS
;	COMDAT ?GetInterface@?$CXTPSmartPtrInternalT@VCXTPRowInfo@CXTPSyntaxEditDrawTextProcessor@@@@QAEPAVCXTPRowInfo@CXTPSyntaxEditDrawTextProcessor@@H@Z
_TEXT	SEGMENT PARA USE32 PUBLIC 'CODE'
_TEXT	ENDS
;	COMDAT ??_G?$CXTPSmartPtrInternalT@VCXTPCalendarEvents@@@@UAEPAXI@Z
_TEXT	SEGMENT PARA USE32 PUBLIC 'CODE'
_TEXT	ENDS
;	COMDAT ??_G?$CXTPSmartPtrInternalT@VCXTPRowInfo@CXTPSyntaxEditDrawTextProcessor@@@@UAEPAXI@Z
_TEXT	SEGMENT PARA USE32 PUBLIC 'CODE'
_TEXT	ENDS
;	COMDAT ?GetIID@?$_CIP@UIUnknown@@$1?IID_IUnknown@@3U_GUID@@B@@SAABU_GUID@@XZ
_TEXT	SEGMENT PARA USE32 PUBLIC 'CODE'
_TEXT	ENDS
;	COMDAT ?_Release@?$_CIP@UIUnknown@@$1?IID_IUnknown@@3U_GUID@@B@@AAEXXZ
_TEXT	SEGMENT PARA USE32 PUBLIC 'CODE'
_TEXT	ENDS
;	COMDAT ?_AddRef@?$_CIP@UIBinding@@$1?IID_IBinding@@3U_GUID@@B@@AAEXXZ
_TEXT	SEGMENT PARA USE32 PUBLIC 'CODE'
_TEXT	ENDS
;	COMDAT ?PosInRange@?$CXTPMaskEditT@VCEdit@@@@QBEHH@Z
_TEXT	SEGMENT PARA USE32 PUBLIC 'CODE'
_TEXT	ENDS
;	COMDAT ?MaskReplaceSel@?$CXTPMaskEditT@VCEdit@@@@QAEXPBD@Z
_TEXT	SEGMENT PARA USE32 PUBLIC 'CODE'
_TEXT	ENDS
;	COMDAT ?MaskDeleteSel@?$CXTPMaskEditT@VCEdit@@@@QAEXXZ
_TEXT	SEGMENT PARA USE32 PUBLIC 'CODE'
_TEXT	ENDS
;	COMDAT ?CopyToClipboard@?$CXTPMaskEditT@VCEdit@@@@QAEHABVCString@@@Z
_TEXT	SEGMENT PARA USE32 PUBLIC 'CODE'
_TEXT	ENDS
;	COMDAT ?GetMaskedText@?$CXTPMaskEditT@VCEdit@@@@QBE?AVCString@@HH@Z
_TEXT	SEGMENT PARA USE32 PUBLIC 'CODE'
_TEXT	ENDS
;	COMDAT ?ProcessChar@?$CXTPMaskEditT@VCEdit@@@@IAEXD@Z
_TEXT	SEGMENT PARA USE32 PUBLIC 'CODE'
_TEXT	ENDS
;	COMDAT ?CorrectPosition@?$CXTPMaskEditT@VCEdit@@@@IAEHAAHH@Z
_TEXT	SEGMENT PARA USE32 PUBLIC 'CODE'
_TEXT	ENDS
;	COMDAT ?IsPromptPos@?$CXTPMaskEditT@VCEdit@@@@IBEHABVCString@@H@Z
_TEXT	SEGMENT PARA USE32 PUBLIC 'CODE'
_TEXT	ENDS
;	COMDAT ?CorrectWindowText@?$CXTPMaskEditT@VCEdit@@@@IAEXXZ
_TEXT	SEGMENT PARA USE32 PUBLIC 'CODE'
_TEXT	ENDS
;	COMDAT ?GetMaskState@?$CXTPMaskEditT@VCEdit@@@@IAEXH@Z
_TEXT	SEGMENT PARA USE32 PUBLIC 'CODE'
_TEXT	ENDS
;	COMDAT ?MaskGetSel@?$CXTPMaskEditT@VCEdit@@@@IAEXXZ
_TEXT	SEGMENT PARA USE32 PUBLIC 'CODE'
_TEXT	ENDS
;	COMDAT ?SetMaskState@?$CXTPMaskEditT@VCEdit@@@@IAEXH@Z
_TEXT	SEGMENT PARA USE32 PUBLIC 'CODE'
_TEXT	ENDS
;	COMDAT ?CanOverType@?$CXTPMaskEditT@VCEdit@@@@QBEHXZ
_TEXT	SEGMENT PARA USE32 PUBLIC 'CODE'
_TEXT	ENDS
;	COMDAT ?InsertCharAt@?$CXTPMaskEditT@VCEdit@@@@QAEXHD@Z
_TEXT	SEGMENT PARA USE32 PUBLIC 'CODE'
_TEXT	ENDS
;	COMDAT ??1?$CList@PAUClientContext@@PAU1@@@UAE@XZ
_TEXT	SEGMENT PARA USE32 PUBLIC 'CODE'
_TEXT	ENDS
;	COMDAT ?Serialize@?$CList@PAUClientContext@@PAU1@@@UAEXAAVCArchive@@@Z
_TEXT	SEGMENT PARA USE32 PUBLIC 'CODE'
_TEXT	ENDS
;	COMDAT ??0?$_CIP@UIUnknown@@$1?IID_IUnknown@@3U_GUID@@B@@QAE@XZ
_TEXT	SEGMENT PARA USE32 PUBLIC 'CODE'
_TEXT	ENDS
;	COMDAT ??1?$_CIP@UIUnknown@@$1?IID_IUnknown@@3U_GUID@@B@@QAE@XZ
_TEXT	SEGMENT PARA USE32 PUBLIC 'CODE'
_TEXT	ENDS
;	COMDAT ??0?$_CIP@UIMoniker@@$1?IID_IMoniker@@3U_GUID@@B@@QAE@XZ
_TEXT	SEGMENT PARA USE32 PUBLIC 'CODE'
_TEXT	ENDS
;	COMDAT ??1?$_CIP@UIMoniker@@$1?IID_IMoniker@@3U_GUID@@B@@QAE@XZ
_TEXT	SEGMENT PARA USE32 PUBLIC 'CODE'
_TEXT	ENDS
;	COMDAT ??1?$CIP@UIMoniker@@$1?IID_IMoniker@@3U_GUID@@B@@QAE@XZ
_TEXT	SEGMENT PARA USE32 PUBLIC 'CODE'
_TEXT	ENDS
;	COMDAT ??1?$CMap@IIPAUDLGTEMPLATE@@PAU1@@@UAE@XZ
_TEXT	SEGMENT PARA USE32 PUBLIC 'CODE'
_TEXT	ENDS
;	COMDAT ?Serialize@?$CMap@IIPAUDLGTEMPLATE@@PAU1@@@UAEXAAVCArchive@@@Z
_TEXT	SEGMENT PARA USE32 PUBLIC 'CODE'
_TEXT	ENDS
;	COMDAT ??1?$CArray@PAUXTP_IMAGERESOURCE_INFO@@PAU1@@@UAE@XZ
_TEXT	SEGMENT PARA USE32 PUBLIC 'CODE'
_TEXT	ENDS
;	COMDAT ?Serialize@?$CArray@PAUXTP_IMAGERESOURCE_INFO@@PAU1@@@UAEXAAVCArchive@@@Z
_TEXT	SEGMENT PARA USE32 PUBLIC 'CODE'
_TEXT	ENDS
;	COMDAT ??0?$CMap@IIPAVCXTPImageManagerIcon@@PAV1@@@QAE@H@Z
_TEXT	SEGMENT PARA USE32 PUBLIC 'CODE'
_TEXT	ENDS
;	COMDAT ??1?$CMap@IIPAVCXTPImageManagerIcon@@PAV1@@@UAE@XZ
_TEXT	SEGMENT PARA USE32 PUBLIC 'CODE'
_TEXT	ENDS
;	COMDAT ?Serialize@?$CMap@IIPAVCXTPImageManagerIcon@@PAV1@@@UAEXAAVCArchive@@@Z
_TEXT	SEGMENT PARA USE32 PUBLIC 'CODE'
_TEXT	ENDS
;	COMDAT ??1?$CMap@IIPAVCXTPImageManagerIconSet@@PAV1@@@UAE@XZ
_TEXT	SEGMENT PARA USE32 PUBLIC 'CODE'
_TEXT	ENDS
;	COMDAT ?Serialize@?$CMap@IIPAVCXTPImageManagerIconSet@@PAV1@@@UAEXAAVCArchive@@@Z
_TEXT	SEGMENT PARA USE32 PUBLIC 'CODE'
_TEXT	ENDS
;	COMDAT ??1?$CArray@PAVCXTPImageManagerImageList@@PAV1@@@UAE@XZ
_TEXT	SEGMENT PARA USE32 PUBLIC 'CODE'
_TEXT	ENDS
;	COMDAT ?Serialize@?$CArray@PAVCXTPImageManagerImageList@@PAV1@@@UAEXAAVCArchive@@@Z
_TEXT	SEGMENT PARA USE32 PUBLIC 'CODE'
_TEXT	ENDS
;	COMDAT ??1?$CMap@KKPAVCXTPImageManagerResource@@PAV1@@@UAE@XZ
_TEXT	SEGMENT PARA USE32 PUBLIC 'CODE'
_TEXT	ENDS
;	COMDAT ?Serialize@?$CMap@KKPAVCXTPImageManagerResource@@PAV1@@@UAEXAAVCArchive@@@Z
_TEXT	SEGMENT PARA USE32 PUBLIC 'CODE'
_TEXT	ENDS
;	COMDAT ??1?$CArray@PAUTOOLITEM@CXTPToolTipContextToolTip@@PAU12@@@UAE@XZ
_TEXT	SEGMENT PARA USE32 PUBLIC 'CODE'
_TEXT	ENDS
;	COMDAT ?Serialize@?$CArray@PAUTOOLITEM@CXTPToolTipContextToolTip@@PAU12@@@UAEXAAVCArchive@@@Z
_TEXT	SEGMENT PARA USE32 PUBLIC 'CODE'
_TEXT	ENDS
;	COMDAT ??1?$CMap@IIPAVCXTPResourceImage@@PAV1@@@UAE@XZ
_TEXT	SEGMENT PARA USE32 PUBLIC 'CODE'
_TEXT	ENDS
;	COMDAT ?Serialize@?$CMap@IIPAVCXTPResourceImage@@PAV1@@@UAEXAAVCArchive@@@Z
_TEXT	SEGMENT PARA USE32 PUBLIC 'CODE'
_TEXT	ENDS
;	COMDAT ??1?$CArray@PAUCONNECTION_DESCRIPTOR@CXTPNotifyConnection@@PAU12@@@UAE@XZ
_TEXT	SEGMENT PARA USE32 PUBLIC 'CODE'
_TEXT	ENDS
;	COMDAT ?Serialize@?$CArray@PAUCONNECTION_DESCRIPTOR@CXTPNotifyConnection@@PAU12@@@UAEXAAVCArchive@@@Z
_TEXT	SEGMENT PARA USE32 PUBLIC 'CODE'
_TEXT	ENDS
;	COMDAT ??1?$CArray@UCONNECTION_DESCRIPTOR@CXTPNotifyConnection@@AAU12@@@UAE@XZ
_TEXT	SEGMENT PARA USE32 PUBLIC 'CODE'
_TEXT	ENDS
;	COMDAT ?Serialize@?$CArray@UCONNECTION_DESCRIPTOR@CXTPNotifyConnection@@AAU12@@@UAEXAAVCArchive@@@Z
_TEXT	SEGMENT PARA USE32 PUBLIC 'CODE'
_TEXT	ENDS
;	COMDAT ??1?$CMap@KAAKUADVISE_DESCRIPTOR@CXTPNotifySink@@AAU12@@@UAE@XZ
_TEXT	SEGMENT PARA USE32 PUBLIC 'CODE'
_TEXT	ENDS
;	COMDAT ?Serialize@?$CMap@KAAKUADVISE_DESCRIPTOR@CXTPNotifySink@@AAU12@@@UAEXAAVCArchive@@@Z
_TEXT	SEGMENT PARA USE32 PUBLIC 'CODE'
_TEXT	ENDS
;	COMDAT ??0?$CMap@KKV?$XTP_MAPHANDLER_T@$03@@AAV1@@@QAE@H@Z
_TEXT	SEGMENT PARA USE32 PUBLIC 'CODE'
_TEXT	ENDS
;	COMDAT ?Lookup@?$CMap@KKV?$XTP_MAPHANDLER_T@$03@@AAV1@@@QBEHKAAV?$XTP_MAPHANDLER_T@$03@@@Z
_TEXT	SEGMENT PARA USE32 PUBLIC 'CODE'
_TEXT	ENDS
;	COMDAT ?InitHashTable@?$CMap@KKV?$XTP_MAPHANDLER_T@$03@@AAV1@@@QAEXIH@Z
_TEXT	SEGMENT PARA USE32 PUBLIC 'CODE'
_TEXT	ENDS
;	COMDAT ??1?$CMap@KKV?$XTP_MAPHANDLER_T@$03@@AAV1@@@UAE@XZ
_TEXT	SEGMENT PARA USE32 PUBLIC 'CODE'
_TEXT	ENDS
;	COMDAT ?Serialize@?$CMap@KKV?$XTP_MAPHANDLER_T@$03@@AAV1@@@UAEXAAVCArchive@@@Z
_TEXT	SEGMENT PARA USE32 PUBLIC 'CODE'
_TEXT	ENDS
;	COMDAT ??1?$CMap@KKUXTP_INTER_THREAD_EVENT_DATA@@AAU1@@@UAE@XZ
_TEXT	SEGMENT PARA USE32 PUBLIC 'CODE'
_TEXT	ENDS
;	COMDAT ?Serialize@?$CMap@KKUXTP_INTER_THREAD_EVENT_DATA@@AAU1@@@UAEXAAVCArchive@@@Z
_TEXT	SEGMENT PARA USE32 PUBLIC 'CODE'
_TEXT	ENDS
;	COMDAT ??1?$CMap@PAUHWND__@@PAU1@PAXPAX@@UAE@XZ
_TEXT	SEGMENT PARA USE32 PUBLIC 'CODE'
_TEXT	ENDS
;	COMDAT ?Serialize@?$CMap@PAUHWND__@@PAU1@PAXPAX@@UAEXAAVCArchive@@@Z
_TEXT	SEGMENT PARA USE32 PUBLIC 'CODE'
_TEXT	ENDS
;	COMDAT ??1?$CArray@PAVCXTPTabManagerAtom@@PAV1@@@UAE@XZ
_TEXT	SEGMENT PARA USE32 PUBLIC 'CODE'
_TEXT	ENDS
;	COMDAT ?Serialize@?$CArray@PAVCXTPTabManagerAtom@@PAV1@@@UAEXAAVCArchive@@@Z
_TEXT	SEGMENT PARA USE32 PUBLIC 'CODE'
_TEXT	ENDS
;	COMDAT ?GetSize@?$CArray@PAVCXTPTabManagerNavigateButton@@PAV1@@@QBEHXZ
_TEXT	SEGMENT PARA USE32 PUBLIC 'CODE'
_TEXT	ENDS
;	COMDAT ?GetAt@?$CArray@PAVCXTPTabManagerNavigateButton@@PAV1@@@QBEPAVCXTPTabManagerNavigateButton@@H@Z
_TEXT	SEGMENT PARA USE32 PUBLIC 'CODE'
_TEXT	ENDS
;	COMDAT ?Add@?$CArray@PAVCXTPTabManagerNavigateButton@@PAV1@@@QAEHPAVCXTPTabManagerNavigateButton@@@Z
_TEXT	SEGMENT PARA USE32 PUBLIC 'CODE'
_TEXT	ENDS
;	COMDAT ?InsertAt@?$CArray@PAVCXTPTabManagerNavigateButton@@PAV1@@@QAEXHPAVCXTPTabManagerNavigateButton@@H@Z
_TEXT	SEGMENT PARA USE32 PUBLIC 'CODE'
_TEXT	ENDS
;	COMDAT ??1?$CArray@PAVCXTPTabManagerNavigateButton@@PAV1@@@UAE@XZ
_TEXT	SEGMENT PARA USE32 PUBLIC 'CODE'
_TEXT	ENDS
;	COMDAT ?Serialize@?$CArray@PAVCXTPTabManagerNavigateButton@@PAV1@@@UAEXAAVCArchive@@@Z
_TEXT	SEGMENT PARA USE32 PUBLIC 'CODE'
_TEXT	ENDS
;	COMDAT ?GetSize@?$CArray@PAVCXTPTabManagerItem@@PAV1@@@QBEHXZ
_TEXT	SEGMENT PARA USE32 PUBLIC 'CODE'
_TEXT	ENDS
;	COMDAT ??A?$CArray@PAVCXTPTabManagerItem@@PAV1@@@QBEPAVCXTPTabManagerItem@@H@Z
_TEXT	SEGMENT PARA USE32 PUBLIC 'CODE'
_TEXT	ENDS
;	COMDAT ??1?$CArray@PAVCXTPTabManagerItem@@PAV1@@@UAE@XZ
_TEXT	SEGMENT PARA USE32 PUBLIC 'CODE'
_TEXT	ENDS
;	COMDAT ?Serialize@?$CArray@PAVCXTPTabManagerItem@@PAV1@@@UAEXAAVCArchive@@@Z
_TEXT	SEGMENT PARA USE32 PUBLIC 'CODE'
_TEXT	ENDS
;	COMDAT ??1?$CList@PAUCONTENT_ITEM@CXTPShortcutListBox@@PAU12@@@UAE@XZ
_TEXT	SEGMENT PARA USE32 PUBLIC 'CODE'
_TEXT	ENDS
;	COMDAT ?Serialize@?$CList@PAUCONTENT_ITEM@CXTPShortcutListBox@@PAU12@@@UAEXAAVCArchive@@@Z
_TEXT	SEGMENT PARA USE32 PUBLIC 'CODE'
_TEXT	ENDS
;	COMDAT ??1?$CList@VCXTPLogFont@@AAV1@@@UAE@XZ
_TEXT	SEGMENT PARA USE32 PUBLIC 'CODE'
_TEXT	ENDS
;	COMDAT ?Serialize@?$CList@VCXTPLogFont@@AAV1@@@UAEXAAVCArchive@@@Z
_TEXT	SEGMENT PARA USE32 PUBLIC 'CODE'
_TEXT	ENDS
;	COMDAT ??1?$CList@PAVCXTPTcbItem@@PAV1@@@UAE@XZ
_TEXT	SEGMENT PARA USE32 PUBLIC 'CODE'
_TEXT	ENDS
;	COMDAT ?Serialize@?$CList@PAVCXTPTcbItem@@PAV1@@@UAEXAAVCArchive@@@Z
_TEXT	SEGMENT PARA USE32 PUBLIC 'CODE'
_TEXT	ENDS
;	COMDAT ?GetSize@?$CArray@PAVCXTPTcbItem@@PAV1@@@QBEHXZ
_TEXT	SEGMENT PARA USE32 PUBLIC 'CODE'
_TEXT	ENDS
;	COMDAT ??1?$CArray@PAVCXTPTcbItem@@PAV1@@@UAE@XZ
_TEXT	SEGMENT PARA USE32 PUBLIC 'CODE'
_TEXT	ENDS
;	COMDAT ?Serialize@?$CArray@PAVCXTPTcbItem@@PAV1@@@UAEXAAVCArchive@@@Z
_TEXT	SEGMENT PARA USE32 PUBLIC 'CODE'
_TEXT	ENDS
;	COMDAT ??1?$CList@PAUMDICHILD@CXTPMDIWndTab@@PAU12@@@UAE@XZ
_TEXT	SEGMENT PARA USE32 PUBLIC 'CODE'
_TEXT	ENDS
;	COMDAT ?Serialize@?$CList@PAUMDICHILD@CXTPMDIWndTab@@PAU12@@@UAEXAAVCArchive@@@Z
_TEXT	SEGMENT PARA USE32 PUBLIC 'CODE'
_TEXT	ENDS
;	COMDAT ??1?$CMap@PAUHWND__@@PAU1@PAUHICON__@@AAPAU2@@@UAE@XZ
_TEXT	SEGMENT PARA USE32 PUBLIC 'CODE'
_TEXT	ENDS
;	COMDAT ?Serialize@?$CMap@PAUHWND__@@PAU1@PAUHICON__@@AAPAU2@@@UAEXAAVCArchive@@@Z
_TEXT	SEGMENT PARA USE32 PUBLIC 'CODE'
_TEXT	ENDS
;	COMDAT ??1?$CMap@PAUHWND__@@PAU1@VCString@@AAV2@@@UAE@XZ
_TEXT	SEGMENT PARA USE32 PUBLIC 'CODE'
_TEXT	ENDS
;	COMDAT ?Serialize@?$CMap@PAUHWND__@@PAU1@VCString@@AAV2@@@UAEXAAVCArchive@@@Z
_TEXT	SEGMENT PARA USE32 PUBLIC 'CODE'
_TEXT	ENDS
;	COMDAT ??1?$CArray@PAVCXTPResizeItem@@AAPAV1@@@UAE@XZ
_TEXT	SEGMENT PARA USE32 PUBLIC 'CODE'
_TEXT	ENDS
;	COMDAT ?Serialize@?$CArray@PAVCXTPResizeItem@@AAPAV1@@@UAEXAAVCArchive@@@Z
_TEXT	SEGMENT PARA USE32 PUBLIC 'CODE'
_TEXT	ENDS
;	COMDAT ??1?$CArray@UtagRECT@@AAU1@@@UAE@XZ
_TEXT	SEGMENT PARA USE32 PUBLIC 'CODE'
_TEXT	ENDS
;	COMDAT ?Serialize@?$CArray@UtagRECT@@AAU1@@@UAEXAAVCArchive@@@Z
_TEXT	SEGMENT PARA USE32 PUBLIC 'CODE'
_TEXT	ENDS
;	COMDAT ??1?$CArray@PAULINKITEM@CXTPTaskDialogLinkCtrl@@PAU12@@@UAE@XZ
_TEXT	SEGMENT PARA USE32 PUBLIC 'CODE'
_TEXT	ENDS
;	COMDAT ?Serialize@?$CArray@PAULINKITEM@CXTPTaskDialogLinkCtrl@@PAU12@@@UAEXAAVCArchive@@@Z
_TEXT	SEGMENT PARA USE32 PUBLIC 'CODE'
_TEXT	ENDS
;	COMDAT ??1?$CArray@PAVCButton@@PAV1@@@UAE@XZ
_TEXT	SEGMENT PARA USE32 PUBLIC 'CODE'
_TEXT	ENDS
;	COMDAT ?Serialize@?$CArray@PAVCButton@@PAV1@@@UAEXAAVCArchive@@@Z
_TEXT	SEGMENT PARA USE32 PUBLIC 'CODE'
_TEXT	ENDS
;	COMDAT ??1?$CMap@PAVCWnd@@PAV1@UtagSIZE@@AAU2@@@UAE@XZ
_TEXT	SEGMENT PARA USE32 PUBLIC 'CODE'
_TEXT	ENDS
;	COMDAT ?Serialize@?$CMap@PAVCWnd@@PAV1@UtagSIZE@@AAU2@@@UAEXAAVCArchive@@@Z
_TEXT	SEGMENT PARA USE32 PUBLIC 'CODE'
_TEXT	ENDS
;	COMDAT ??1?$CArray@U_TASKDIALOG_BUTTON@XTPTaskDialogAPI@@AAU12@@@UAE@XZ
_TEXT	SEGMENT PARA USE32 PUBLIC 'CODE'
_TEXT	ENDS
;	COMDAT ?Serialize@?$CArray@U_TASKDIALOG_BUTTON@XTPTaskDialogAPI@@AAU12@@@UAEXAAVCArchive@@@Z
_TEXT	SEGMENT PARA USE32 PUBLIC 'CODE'
_TEXT	ENDS
;	COMDAT ??1?$CList@PAVCRgnCell@CXTPColorHex@@PAV12@@@UAE@XZ
_TEXT	SEGMENT PARA USE32 PUBLIC 'CODE'
_TEXT	ENDS
;	COMDAT ?Serialize@?$CList@PAVCRgnCell@CXTPColorHex@@PAV12@@@UAEXAAVCArchive@@@Z
_TEXT	SEGMENT PARA USE32 PUBLIC 'CODE'
_TEXT	ENDS
;	COMDAT ?GetSize@?$CArray@PAVCXTPPropertyPage@@PAV1@@@QBEHXZ
_TEXT	SEGMENT PARA USE32 PUBLIC 'CODE'
_TEXT	ENDS
;	COMDAT ?GetAt@?$CArray@PAVCXTPPropertyPage@@PAV1@@@QBEPAVCXTPPropertyPage@@H@Z
_TEXT	SEGMENT PARA USE32 PUBLIC 'CODE'
_TEXT	ENDS
;	COMDAT ??1?$CArray@PAVCXTPPropertyPage@@PAV1@@@UAE@XZ
_TEXT	SEGMENT PARA USE32 PUBLIC 'CODE'
_TEXT	ENDS
;	COMDAT ?Serialize@?$CArray@PAVCXTPPropertyPage@@PAV1@@@UAEXAAVCArchive@@@Z
_TEXT	SEGMENT PARA USE32 PUBLIC 'CODE'
_TEXT	ENDS
;	COMDAT ?GetSize@?$CArray@PAUHWND__@@PAU1@@@QBEHXZ
_TEXT	SEGMENT PARA USE32 PUBLIC 'CODE'
_TEXT	ENDS
;	COMDAT ?GetAt@?$CArray@PAUHWND__@@PAU1@@@QBEPAUHWND__@@H@Z
_TEXT	SEGMENT PARA USE32 PUBLIC 'CODE'
_TEXT	ENDS
;	COMDAT ?RemoveAt@?$CArray@PAUHWND__@@PAU1@@@QAEXHH@Z
_TEXT	SEGMENT PARA USE32 PUBLIC 'CODE'
_TEXT	ENDS
;	COMDAT ??1?$CArray@PAUHWND__@@PAU1@@@UAE@XZ
_TEXT	SEGMENT PARA USE32 PUBLIC 'CODE'
_TEXT	ENDS
;	COMDAT ?Serialize@?$CArray@PAUHWND__@@PAU1@@@UAEXAAVCArchive@@@Z
_TEXT	SEGMENT PARA USE32 PUBLIC 'CODE'
_TEXT	ENDS
;	COMDAT ??1?$CList@PAUCOLOR_CELL@CXTPColorSelectorCtrl@@PAU12@@@UAE@XZ
_TEXT	SEGMENT PARA USE32 PUBLIC 'CODE'
_TEXT	ENDS
;	COMDAT ?Serialize@?$CList@PAUCOLOR_CELL@CXTPColorSelectorCtrl@@PAU12@@@UAEXAAVCArchive@@@Z
_TEXT	SEGMENT PARA USE32 PUBLIC 'CODE'
_TEXT	ENDS
;	COMDAT ??1?$CArray@PAVCXTPPopupItem@@PAV1@@@UAE@XZ
_TEXT	SEGMENT PARA USE32 PUBLIC 'CODE'
_TEXT	ENDS
;	COMDAT ?Serialize@?$CArray@PAVCXTPPopupItem@@PAV1@@@UAEXAAVCArchive@@@Z
_TEXT	SEGMENT PARA USE32 PUBLIC 'CODE'
_TEXT	ENDS
;	COMDAT ??1?$CMap@PAXPAXUCLRFONT@CXTPTreeBase@@AAU12@@@UAE@XZ
_TEXT	SEGMENT PARA USE32 PUBLIC 'CODE'
_TEXT	ENDS
;	COMDAT ?Serialize@?$CMap@PAXPAXUCLRFONT@CXTPTreeBase@@AAU12@@@UAEXAAVCArchive@@@Z
_TEXT	SEGMENT PARA USE32 PUBLIC 'CODE'
_TEXT	ENDS
;	COMDAT ??1?$CList@HAAH@@UAE@XZ
_TEXT	SEGMENT PARA USE32 PUBLIC 'CODE'
_TEXT	ENDS
;	COMDAT ?Serialize@?$CList@HAAH@@UAEXAAVCArchive@@@Z
_TEXT	SEGMENT PARA USE32 PUBLIC 'CODE'
_TEXT	ENDS
;	COMDAT ??1?$CList@UROWCOLOR@CXTPListBase@@AAU12@@@UAE@XZ
_TEXT	SEGMENT PARA USE32 PUBLIC 'CODE'
_TEXT	ENDS
;	COMDAT ?Serialize@?$CList@UROWCOLOR@CXTPListBase@@AAU12@@@UAEXAAVCArchive@@@Z
_TEXT	SEGMENT PARA USE32 PUBLIC 'CODE'
_TEXT	ENDS
;	COMDAT ??1?$CList@UTRAYICONDATA@CXTPTrayIcon@@AAU12@@@UAE@XZ
_TEXT	SEGMENT PARA USE32 PUBLIC 'CODE'
_TEXT	ENDS
;	COMDAT ?Serialize@?$CList@UTRAYICONDATA@CXTPTrayIcon@@AAU12@@@UAEXAAVCArchive@@@Z
_TEXT	SEGMENT PARA USE32 PUBLIC 'CODE'
_TEXT	ENDS
;	COMDAT ??1?$CList@PAVCResizeWnd@CXTPSearchOptionsView@@PAV12@@@UAE@XZ
_TEXT	SEGMENT PARA USE32 PUBLIC 'CODE'
_TEXT	ENDS
;	COMDAT ?Serialize@?$CList@PAVCResizeWnd@CXTPSearchOptionsView@@PAV12@@@UAEXAAVCArchive@@@Z
_TEXT	SEGMENT PARA USE32 PUBLIC 'CODE'
_TEXT	ENDS
;	COMDAT ?GetCount@?$CList@PAVCXTOutBarItem@@PAV1@@@QBEHXZ
_TEXT	SEGMENT PARA USE32 PUBLIC 'CODE'
_TEXT	ENDS
;	COMDAT ??1?$CList@PAVCXTOutBarItem@@PAV1@@@UAE@XZ
_TEXT	SEGMENT PARA USE32 PUBLIC 'CODE'
_TEXT	ENDS
;	COMDAT ?Serialize@?$CList@PAVCXTOutBarItem@@PAV1@@@UAEXAAVCArchive@@@Z
_TEXT	SEGMENT PARA USE32 PUBLIC 'CODE'
_TEXT	ENDS
;	COMDAT ??0?$CArray@PAVCXTPCommandBar@@PAV1@@@QAE@XZ
_TEXT	SEGMENT PARA USE32 PUBLIC 'CODE'
_TEXT	ENDS
;	COMDAT ?GetSize@?$CArray@PAVCXTPCommandBar@@PAV1@@@QBEHXZ
_TEXT	SEGMENT PARA USE32 PUBLIC 'CODE'
_TEXT	ENDS
;	COMDAT ?GetAt@?$CArray@PAVCXTPCommandBar@@PAV1@@@QBEPAVCXTPCommandBar@@H@Z
_TEXT	SEGMENT PARA USE32 PUBLIC 'CODE'
_TEXT	ENDS
;	COMDAT ??1?$CArray@PAVCXTPCommandBar@@PAV1@@@UAE@XZ
_TEXT	SEGMENT PARA USE32 PUBLIC 'CODE'
_TEXT	ENDS
;	COMDAT ?Serialize@?$CArray@PAVCXTPCommandBar@@PAV1@@@UAEXAAVCArchive@@@Z
_TEXT	SEGMENT PARA USE32 PUBLIC 'CODE'
_TEXT	ENDS
;	COMDAT ??1?$CMap@IIPAVCXTPMenuBarMDIMenuInfo@@PAV1@@@UAE@XZ
_TEXT	SEGMENT PARA USE32 PUBLIC 'CODE'
_TEXT	ENDS
;	COMDAT ?Serialize@?$CMap@IIPAVCXTPMenuBarMDIMenuInfo@@PAV1@@@UAEXAAVCArchive@@@Z
_TEXT	SEGMENT PARA USE32 PUBLIC 'CODE'
_TEXT	ENDS
;	COMDAT ?GetSize@?$CArray@PAVCXTPControl@@PAV1@@@QBEHXZ
_TEXT	SEGMENT PARA USE32 PUBLIC 'CODE'
_TEXT	ENDS
;	COMDAT ?GetAt@?$CArray@PAVCXTPControl@@PAV1@@@QBEPAVCXTPControl@@H@Z
_TEXT	SEGMENT PARA USE32 PUBLIC 'CODE'
_TEXT	ENDS
;	COMDAT ??1?$CArray@PAVCXTPControl@@PAV1@@@UAE@XZ
_TEXT	SEGMENT PARA USE32 PUBLIC 'CODE'
_TEXT	ENDS
;	COMDAT ?Serialize@?$CArray@PAVCXTPControl@@PAV1@@@UAEXAAVCArchive@@@Z
_TEXT	SEGMENT PARA USE32 PUBLIC 'CODE'
_TEXT	ENDS
;	COMDAT ??1?$CArray@PAVCXTPControlAction@@PAV1@@@UAE@XZ
_TEXT	SEGMENT PARA USE32 PUBLIC 'CODE'
_TEXT	ENDS
;	COMDAT ?Serialize@?$CArray@PAVCXTPControlAction@@PAV1@@@UAEXAAVCArchive@@@Z
_TEXT	SEGMENT PARA USE32 PUBLIC 'CODE'
_TEXT	ENDS
;	COMDAT ?SetAt@?$CMap@IIHH@@QAEXIH@Z
_TEXT	SEGMENT PARA USE32 PUBLIC 'CODE'
_TEXT	ENDS
;	COMDAT ??1?$CMap@IIHH@@UAE@XZ
_TEXT	SEGMENT PARA USE32 PUBLIC 'CODE'
_TEXT	ENDS
;	COMDAT ?Serialize@?$CMap@IIHH@@UAEXAAVCArchive@@@Z
_TEXT	SEGMENT PARA USE32 PUBLIC 'CODE'
_TEXT	ENDS
;	COMDAT ?GetSize@?$CArray@PAVCXTPStatusBarPane@@PAV1@@@QBEHXZ
_TEXT	SEGMENT PARA USE32 PUBLIC 'CODE'
_TEXT	ENDS
;	COMDAT ??1?$CArray@PAVCXTPStatusBarPane@@PAV1@@@UAE@XZ
_TEXT	SEGMENT PARA USE32 PUBLIC 'CODE'
_TEXT	ENDS
;	COMDAT ?Serialize@?$CArray@PAVCXTPStatusBarPane@@PAV1@@@UAEXAAVCArchive@@@Z
_TEXT	SEGMENT PARA USE32 PUBLIC 'CODE'
_TEXT	ENDS
;	COMDAT ??1?$CArray@PAUSWITCH@CXTPStatusBarSwitchPane@@PAU12@@@UAE@XZ
_TEXT	SEGMENT PARA USE32 PUBLIC 'CODE'
_TEXT	ENDS
;	COMDAT ?Serialize@?$CArray@PAUSWITCH@CXTPStatusBarSwitchPane@@PAU12@@@UAEXAAVCArchive@@@Z
_TEXT	SEGMENT PARA USE32 PUBLIC 'CODE'
_TEXT	ENDS
;	COMDAT ??1?$CArray@PAVCXTPMessageBarButton@@PAV1@@@UAE@XZ
_TEXT	SEGMENT PARA USE32 PUBLIC 'CODE'
_TEXT	ENDS
;	COMDAT ?Serialize@?$CArray@PAVCXTPMessageBarButton@@PAV1@@@UAEXAAVCArchive@@@Z
_TEXT	SEGMENT PARA USE32 PUBLIC 'CODE'
_TEXT	ENDS
;	COMDAT ??1?$CArray@PAVCXTPCommandBarKeyboardTip@@PAV1@@@UAE@XZ
_TEXT	SEGMENT PARA USE32 PUBLIC 'CODE'
_TEXT	ENDS
;	COMDAT ?Serialize@?$CArray@PAVCXTPCommandBarKeyboardTip@@PAV1@@@UAEXAAVCArchive@@@Z
_TEXT	SEGMENT PARA USE32 PUBLIC 'CODE'
_TEXT	ENDS
;	COMDAT ?GetSize@?$CArray@PAVCXTPToolBar@@PAV1@@@QBEHXZ
_TEXT	SEGMENT PARA USE32 PUBLIC 'CODE'
_TEXT	ENDS
;	COMDAT ??1?$CArray@PAVCXTPToolBar@@PAV1@@@UAE@XZ
_TEXT	SEGMENT PARA USE32 PUBLIC 'CODE'
_TEXT	ENDS
;	COMDAT ?Serialize@?$CArray@PAVCXTPToolBar@@PAV1@@@UAEXAAVCArchive@@@Z
_TEXT	SEGMENT PARA USE32 PUBLIC 'CODE'
_TEXT	ENDS
;	COMDAT ??1?$CArray@PAVCXTPShortcutManagerAccel@@PAV1@@@UAE@XZ
_TEXT	SEGMENT PARA USE32 PUBLIC 'CODE'
_TEXT	ENDS
;	COMDAT ?Serialize@?$CArray@PAVCXTPShortcutManagerAccel@@PAV1@@@UAEXAAVCArchive@@@Z
_TEXT	SEGMENT PARA USE32 PUBLIC 'CODE'
_TEXT	ENDS
;	COMDAT ??1?$CMap@GGVCString@@V1@@@UAE@XZ
_TEXT	SEGMENT PARA USE32 PUBLIC 'CODE'
_TEXT	ENDS
;	COMDAT ?Serialize@?$CMap@GGVCString@@V1@@@UAEXAAVCArchive@@@Z
_TEXT	SEGMENT PARA USE32 PUBLIC 'CODE'
_TEXT	ENDS
;	COMDAT ?GetSize@?$CArray@PAVCFontDesc@CXTPControlFontComboBoxList@@PAV12@@@QBEHXZ
_TEXT	SEGMENT PARA USE32 PUBLIC 'CODE'
_TEXT	ENDS
;	COMDAT ??A?$CArray@PAVCFontDesc@CXTPControlFontComboBoxList@@PAV12@@@QAEAAPAVCFontDesc@CXTPControlFontComboBoxList@@H@Z
_TEXT	SEGMENT PARA USE32 PUBLIC 'CODE'
_TEXT	ENDS
;	COMDAT ??1?$CArray@PAVCFontDesc@CXTPControlFontComboBoxList@@PAV12@@@UAE@XZ
_TEXT	SEGMENT PARA USE32 PUBLIC 'CODE'
_TEXT	ENDS
;	COMDAT ?Serialize@?$CArray@PAVCFontDesc@CXTPControlFontComboBoxList@@PAV12@@@UAEXAAVCArchive@@@Z
_TEXT	SEGMENT PARA USE32 PUBLIC 'CODE'
_TEXT	ENDS
;	COMDAT ??1?$CArray@PAVCXTPControlGalleryItem@@PAV1@@@UAE@XZ
_TEXT	SEGMENT PARA USE32 PUBLIC 'CODE'
_TEXT	ENDS
;	COMDAT ?Serialize@?$CArray@PAVCXTPControlGalleryItem@@PAV1@@@UAEXAAVCArchive@@@Z
_TEXT	SEGMENT PARA USE32 PUBLIC 'CODE'
_TEXT	ENDS
;	COMDAT ??1?$CArray@UGALLERYITEM_POSITION@CXTPControlGallery@@AAU12@@@UAE@XZ
_TEXT	SEGMENT PARA USE32 PUBLIC 'CODE'
_TEXT	ENDS
;	COMDAT ?Serialize@?$CArray@UGALLERYITEM_POSITION@CXTPControlGallery@@AAU12@@@UAEXAAVCArchive@@@Z
_TEXT	SEGMENT PARA USE32 PUBLIC 'CODE'
_TEXT	ENDS
;	COMDAT ?GetCount@?$CList@PAVCXTPHookManagerHookAble@@PAV1@@@QBEHXZ
_TEXT	SEGMENT PARA USE32 PUBLIC 'CODE'
_TEXT	ENDS
;	COMDAT ??1?$CList@PAVCXTPHookManagerHookAble@@PAV1@@@UAE@XZ
_TEXT	SEGMENT PARA USE32 PUBLIC 'CODE'
_TEXT	ENDS
;	COMDAT ?Serialize@?$CList@PAVCXTPHookManagerHookAble@@PAV1@@@UAEXAAVCArchive@@@Z
_TEXT	SEGMENT PARA USE32 PUBLIC 'CODE'
_TEXT	ENDS
;	COMDAT ??1?$CArray@PAVCWorkspace@CXTPTabClientWnd@@PAV12@@@UAE@XZ
_TEXT	SEGMENT PARA USE32 PUBLIC 'CODE'
_TEXT	ENDS
;	COMDAT ?Serialize@?$CArray@PAVCWorkspace@CXTPTabClientWnd@@PAV12@@@UAEXAAVCArchive@@@Z
_TEXT	SEGMENT PARA USE32 PUBLIC 'CODE'
_TEXT	ENDS
;	COMDAT ??1?$CList@PAVCAlphaBitmap@CXTPImageEditorPicture@@PAV12@@@UAE@XZ
_TEXT	SEGMENT PARA USE32 PUBLIC 'CODE'
_TEXT	ENDS
;	COMDAT ?Serialize@?$CList@PAVCAlphaBitmap@CXTPImageEditorPicture@@PAV12@@@UAEXAAVCArchive@@@Z
_TEXT	SEGMENT PARA USE32 PUBLIC 'CODE'
_TEXT	ENDS
;	COMDAT ??1?$CArray@PAUXTP_COMMANDBARS_CATEGORYINFO@@PAU1@@@UAE@XZ
_TEXT	SEGMENT PARA USE32 PUBLIC 'CODE'
_TEXT	ENDS
;	COMDAT ?Serialize@?$CArray@PAUXTP_COMMANDBARS_CATEGORYINFO@@PAU1@@@UAEXAAVCArchive@@@Z
_TEXT	SEGMENT PARA USE32 PUBLIC 'CODE'
_TEXT	ENDS
;	COMDAT ??1?$CArray@PAVCXTPDockingPaneCaptionButton@@PAV1@@@UAE@XZ
_TEXT	SEGMENT PARA USE32 PUBLIC 'CODE'
_TEXT	ENDS
;	COMDAT ?Serialize@?$CArray@PAVCXTPDockingPaneCaptionButton@@PAV1@@@UAEXAAVCArchive@@@Z
_TEXT	SEGMENT PARA USE32 PUBLIC 'CODE'
_TEXT	ENDS
;	COMDAT ?AddTail@?$CList@PAVCXTPDockingPaneBase@@PAV1@@@QAEPAU__POSITION@@PAVCXTPDockingPaneBase@@@Z
_TEXT	SEGMENT PARA USE32 PUBLIC 'CODE'
_TEXT	ENDS
;	COMDAT ??1?$CList@PAVCXTPDockingPaneBase@@PAV1@@@UAE@XZ
_TEXT	SEGMENT PARA USE32 PUBLIC 'CODE'
_TEXT	ENDS
;	COMDAT ?Serialize@?$CList@PAVCXTPDockingPaneBase@@PAV1@@@UAEXAAVCArchive@@@Z
_TEXT	SEGMENT PARA USE32 PUBLIC 'CODE'
_TEXT	ENDS
;	COMDAT ??1?$CArray@VCRect@@AAV1@@@UAE@XZ
_TEXT	SEGMENT PARA USE32 PUBLIC 'CODE'
_TEXT	ENDS
;	COMDAT ?Serialize@?$CArray@VCRect@@AAV1@@@UAEXAAVCArchive@@@Z
_TEXT	SEGMENT PARA USE32 PUBLIC 'CODE'
_TEXT	ENDS
;	COMDAT ??1?$CList@UXTP_DOCKINGPANE_INFO@@AAU1@@@UAE@XZ
_TEXT	SEGMENT PARA USE32 PUBLIC 'CODE'
_TEXT	ENDS
;	COMDAT ?Serialize@?$CList@UXTP_DOCKINGPANE_INFO@@AAU1@@@UAEXAAVCArchive@@@Z
_TEXT	SEGMENT PARA USE32 PUBLIC 'CODE'
_TEXT	ENDS
;	COMDAT ??1?$CList@PAVCXTPDockingPaneContextStickerWnd@@PAV1@@@UAE@XZ
_TEXT	SEGMENT PARA USE32 PUBLIC 'CODE'
_TEXT	ENDS
;	COMDAT ?Serialize@?$CList@PAVCXTPDockingPaneContextStickerWnd@@PAV1@@@UAEXAAVCArchive@@@Z
_TEXT	SEGMENT PARA USE32 PUBLIC 'CODE'
_TEXT	ENDS
;	COMDAT ??1?$CMap@IIPAVCRgn@@PAV1@@@UAE@XZ
_TEXT	SEGMENT PARA USE32 PUBLIC 'CODE'
_TEXT	ENDS
;	COMDAT ?Serialize@?$CMap@IIPAVCRgn@@PAV1@@@UAEXAAVCArchive@@@Z
_TEXT	SEGMENT PARA USE32 PUBLIC 'CODE'
_TEXT	ENDS
;	COMDAT ??1?$CList@PAVCXTPDockingPaneSplitterWnd@@PAV1@@@UAE@XZ
_TEXT	SEGMENT PARA USE32 PUBLIC 'CODE'
_TEXT	ENDS
;	COMDAT ?Serialize@?$CList@PAVCXTPDockingPaneSplitterWnd@@PAV1@@@UAEXAAVCArchive@@@Z
_TEXT	SEGMENT PARA USE32 PUBLIC 'CODE'
_TEXT	ENDS
;	COMDAT ??1?$CArray@PAVCXTPPropertyGridInplaceControl@@PAV1@@@UAE@XZ
_TEXT	SEGMENT PARA USE32 PUBLIC 'CODE'
_TEXT	ENDS
;	COMDAT ?Serialize@?$CArray@PAVCXTPPropertyGridInplaceControl@@PAV1@@@UAEXAAVCArchive@@@Z
_TEXT	SEGMENT PARA USE32 PUBLIC 'CODE'
_TEXT	ENDS
;	COMDAT ?GetSize@?$CArray@PAVCXTPPropertyGridInplaceButton@@PAV1@@@QBEHXZ
_TEXT	SEGMENT PARA USE32 PUBLIC 'CODE'
_TEXT	ENDS
;	COMDAT ?GetAt@?$CArray@PAVCXTPPropertyGridInplaceButton@@PAV1@@@QBEPAVCXTPPropertyGridInplaceButton@@H@Z
_TEXT	SEGMENT PARA USE32 PUBLIC 'CODE'
_TEXT	ENDS
;	COMDAT ??1?$CArray@PAVCXTPPropertyGridInplaceButton@@PAV1@@@UAE@XZ
_TEXT	SEGMENT PARA USE32 PUBLIC 'CODE'
_TEXT	ENDS
;	COMDAT ?Serialize@?$CArray@PAVCXTPPropertyGridInplaceButton@@PAV1@@@UAEXAAVCArchive@@@Z
_TEXT	SEGMENT PARA USE32 PUBLIC 'CODE'
_TEXT	ENDS
;	COMDAT ?GetSize@?$CArray@PAVCXTPPropertyGridItem@@PAV1@@@QBEHXZ
_TEXT	SEGMENT PARA USE32 PUBLIC 'CODE'
_TEXT	ENDS
;	COMDAT ?Add@?$CArray@PAVCXTPPropertyGridItem@@PAV1@@@QAEHPAVCXTPPropertyGridItem@@@Z
_TEXT	SEGMENT PARA USE32 PUBLIC 'CODE'
_TEXT	ENDS
;	COMDAT ?InsertAt@?$CArray@PAVCXTPPropertyGridItem@@PAV1@@@QAEXHPAVCXTPPropertyGridItem@@H@Z
_TEXT	SEGMENT PARA USE32 PUBLIC 'CODE'
_TEXT	ENDS
;	COMDAT ??1?$CArray@PAVCXTPPropertyGridItem@@PAV1@@@UAE@XZ
_TEXT	SEGMENT PARA USE32 PUBLIC 'CODE'
_TEXT	ENDS
;	COMDAT ?Serialize@?$CArray@PAVCXTPPropertyGridItem@@PAV1@@@UAEXAAVCArchive@@@Z
_TEXT	SEGMENT PARA USE32 PUBLIC 'CODE'
_TEXT	ENDS
;	COMDAT ?GetSize@?$CArray@PAVCXTPPropertyGridItemConstraint@@PAV1@@@QBEHXZ
_TEXT	SEGMENT PARA USE32 PUBLIC 'CODE'
_TEXT	ENDS
;	COMDAT ??1?$CArray@PAVCXTPPropertyGridItemConstraint@@PAV1@@@UAE@XZ
_TEXT	SEGMENT PARA USE32 PUBLIC 'CODE'
_TEXT	ENDS
;	COMDAT ?Serialize@?$CArray@PAVCXTPPropertyGridItemConstraint@@PAV1@@@UAEXAAVCArchive@@@Z
_TEXT	SEGMENT PARA USE32 PUBLIC 'CODE'
_TEXT	ENDS
;	COMDAT ?IsEmpty@?$CMap@IIHAAH@@QBEHXZ
_TEXT	SEGMENT PARA USE32 PUBLIC 'CODE'
_TEXT	ENDS
;	COMDAT ??1?$CMap@IIHAAH@@UAE@XZ
_TEXT	SEGMENT PARA USE32 PUBLIC 'CODE'
_TEXT	ENDS
;	COMDAT ?Serialize@?$CMap@IIHAAH@@UAEXAAVCArchive@@@Z
_TEXT	SEGMENT PARA USE32 PUBLIC 'CODE'
_TEXT	ENDS
;	COMDAT ?GetSize@?$CArray@PAVCXTPPropertyGridVerb@@PAV1@@@QBEHXZ
_TEXT	SEGMENT PARA USE32 PUBLIC 'CODE'
_TEXT	ENDS
;	COMDAT ?GetAt@?$CArray@PAVCXTPPropertyGridVerb@@PAV1@@@QBEPAVCXTPPropertyGridVerb@@H@Z
_TEXT	SEGMENT PARA USE32 PUBLIC 'CODE'
_TEXT	ENDS
;	COMDAT ??1?$CArray@PAVCXTPPropertyGridVerb@@PAV1@@@UAE@XZ
_TEXT	SEGMENT PARA USE32 PUBLIC 'CODE'
_TEXT	ENDS
;	COMDAT ?Serialize@?$CArray@PAVCXTPPropertyGridVerb@@PAV1@@@UAEXAAVCArchive@@@Z
_TEXT	SEGMENT PARA USE32 PUBLIC 'CODE'
_TEXT	ENDS
;	COMDAT ?GetSize@?$CArray@PAVCXTPReportColumn@@PAV1@@@QBEHXZ
_TEXT	SEGMENT PARA USE32 PUBLIC 'CODE'
_TEXT	ENDS
;	COMDAT ?GetAt@?$CArray@PAVCXTPReportColumn@@PAV1@@@QBEPAVCXTPReportColumn@@H@Z
_TEXT	SEGMENT PARA USE32 PUBLIC 'CODE'
_TEXT	ENDS
;	COMDAT ??1?$CArray@PAVCXTPReportColumn@@PAV1@@@UAE@XZ
_TEXT	SEGMENT PARA USE32 PUBLIC 'CODE'
_TEXT	ENDS
;	COMDAT ?Serialize@?$CArray@PAVCXTPReportColumn@@PAV1@@@UAEXAAVCArchive@@@Z
_TEXT	SEGMENT PARA USE32 PUBLIC 'CODE'
_TEXT	ENDS
;	COMDAT ?GetSize@?$CArray@PAVCXTPReportRow@@PAV1@@@QBEHXZ
_TEXT	SEGMENT PARA USE32 PUBLIC 'CODE'
_TEXT	ENDS
;	COMDAT ?SetSize@?$CArray@PAVCXTPReportRow@@PAV1@@@QAEXHH@Z
_TEXT	SEGMENT PARA USE32 PUBLIC 'CODE'
_TEXT	ENDS
;	COMDAT ?Add@?$CArray@PAVCXTPReportRow@@PAV1@@@QAEHPAVCXTPReportRow@@@Z
_TEXT	SEGMENT PARA USE32 PUBLIC 'CODE'
_TEXT	ENDS
;	COMDAT ??1?$CArray@PAVCXTPReportRow@@PAV1@@@UAE@XZ
_TEXT	SEGMENT PARA USE32 PUBLIC 'CODE'
_TEXT	ENDS
;	COMDAT ?Serialize@?$CArray@PAVCXTPReportRow@@PAV1@@@UAEXAAVCArchive@@@Z
_TEXT	SEGMENT PARA USE32 PUBLIC 'CODE'
_TEXT	ENDS
;	COMDAT ??1?$CArray@USELECTED_BLOCK@CXTPReportSelectedRows@@AAU12@@@UAE@XZ
_TEXT	SEGMENT PARA USE32 PUBLIC 'CODE'
_TEXT	ENDS
;	COMDAT ?Serialize@?$CArray@USELECTED_BLOCK@CXTPReportSelectedRows@@AAU12@@@UAEXAAVCArchive@@@Z
_TEXT	SEGMENT PARA USE32 PUBLIC 'CODE'
_TEXT	ENDS
;	COMDAT ??1?$CMap@PAVCXTPReportColumn@@PAV1@VCRect@@V2@@@UAE@XZ
_TEXT	SEGMENT PARA USE32 PUBLIC 'CODE'
_TEXT	ENDS
;	COMDAT ?Serialize@?$CMap@PAVCXTPReportColumn@@PAV1@VCRect@@V2@@@UAEXAAVCArchive@@@Z
_TEXT	SEGMENT PARA USE32 PUBLIC 'CODE'
_TEXT	ENDS
;	COMDAT ??1?$CArray@UXTP_TIMESPEC@CXTPReportControlLocale@@AAU12@@@UAE@XZ
_TEXT	SEGMENT PARA USE32 PUBLIC 'CODE'
_TEXT	ENDS
;	COMDAT ?Serialize@?$CArray@UXTP_TIMESPEC@CXTPReportControlLocale@@AAU12@@@UAEXAAVCArchive@@@Z
_TEXT	SEGMENT PARA USE32 PUBLIC 'CODE'
_TEXT	ENDS
;	COMDAT ??1?$CArray@PAVCXTPReportHyperlink@@PAV1@@@UAE@XZ
_TEXT	SEGMENT PARA USE32 PUBLIC 'CODE'
_TEXT	ENDS
;	COMDAT ?Serialize@?$CArray@PAVCXTPReportHyperlink@@PAV1@@@UAEXAAVCArchive@@@Z
_TEXT	SEGMENT PARA USE32 PUBLIC 'CODE'
_TEXT	ENDS
;	COMDAT ??1?$CXTPArrayT@PAVCXTPReportHyperlink@@PAV1@PAUIDispatch@@@@UAE@XZ
_TEXT	SEGMENT PARA USE32 PUBLIC 'CODE'
_TEXT	ENDS
;	COMDAT ?GetSize@?$CXTPArrayT@PAVCXTPReportHyperlink@@PAV1@PAUIDispatch@@@@UBEHXZ
_TEXT	SEGMENT PARA USE32 PUBLIC 'CODE'
_TEXT	ENDS
;	COMDAT ?SetSize@?$CXTPArrayT@PAVCXTPReportHyperlink@@PAV1@PAUIDispatch@@@@UAEXHH@Z
_TEXT	SEGMENT PARA USE32 PUBLIC 'CODE'
_TEXT	ENDS
;	COMDAT ?GetAt@?$CXTPArrayT@PAVCXTPReportHyperlink@@PAV1@PAUIDispatch@@@@UBEPAVCXTPReportHyperlink@@H@Z
_TEXT	SEGMENT PARA USE32 PUBLIC 'CODE'
_TEXT	ENDS
;	COMDAT ?SetAt@?$CXTPArrayT@PAVCXTPReportHyperlink@@PAV1@PAUIDispatch@@@@UAEXHPAVCXTPReportHyperlink@@@Z
_TEXT	SEGMENT PARA USE32 PUBLIC 'CODE'
_TEXT	ENDS
;	COMDAT ?ElementAt@?$CXTPArrayT@PAVCXTPReportHyperlink@@PAV1@PAUIDispatch@@@@UAEAAPAVCXTPReportHyperlink@@H@Z
_TEXT	SEGMENT PARA USE32 PUBLIC 'CODE'
_TEXT	ENDS
;	COMDAT ?GetData@?$CXTPArrayT@PAVCXTPReportHyperlink@@PAV1@PAUIDispatch@@@@UAEPAPAVCXTPReportHyperlink@@XZ
_TEXT	SEGMENT PARA USE32 PUBLIC 'CODE'
_TEXT	ENDS
;	COMDAT ?GetData@?$CXTPArrayT@PAVCXTPReportHyperlink@@PAV1@PAUIDispatch@@@@UBEPBQAVCXTPReportHyperlink@@XZ
_TEXT	SEGMENT PARA USE32 PUBLIC 'CODE'
_TEXT	ENDS
;	COMDAT ?SetAtGrow@?$CXTPArrayT@PAVCXTPReportHyperlink@@PAV1@PAUIDispatch@@@@UAEXHPAVCXTPReportHyperlink@@@Z
_TEXT	SEGMENT PARA USE32 PUBLIC 'CODE'
_TEXT	ENDS
;	COMDAT ?Add@?$CXTPArrayT@PAVCXTPReportHyperlink@@PAV1@PAUIDispatch@@@@UAEHPAVCXTPReportHyperlink@@@Z
_TEXT	SEGMENT PARA USE32 PUBLIC 'CODE'
_TEXT	ENDS
;	COMDAT ?Append@?$CXTPArrayT@PAVCXTPReportHyperlink@@PAV1@PAUIDispatch@@@@UAEHABV1@@Z
_TEXT	SEGMENT PARA USE32 PUBLIC 'CODE'
_TEXT	ENDS
;	COMDAT ?Copy@?$CXTPArrayT@PAVCXTPReportHyperlink@@PAV1@PAUIDispatch@@@@UAEXABV1@@Z
_TEXT	SEGMENT PARA USE32 PUBLIC 'CODE'
_TEXT	ENDS
;	COMDAT ?InsertAt@?$CXTPArrayT@PAVCXTPReportHyperlink@@PAV1@PAUIDispatch@@@@UAEXHPAV1@@Z
_TEXT	SEGMENT PARA USE32 PUBLIC 'CODE'
_TEXT	ENDS
;	COMDAT ?InsertAt@?$CXTPArrayT@PAVCXTPReportHyperlink@@PAV1@PAUIDispatch@@@@UAEXHPAVCXTPReportHyperlink@@H@Z
_TEXT	SEGMENT PARA USE32 PUBLIC 'CODE'
_TEXT	ENDS
;	COMDAT ?RemoveAt@?$CXTPArrayT@PAVCXTPReportHyperlink@@PAV1@PAUIDispatch@@@@UAEXHH@Z
_TEXT	SEGMENT PARA USE32 PUBLIC 'CODE'
_TEXT	ENDS
;	COMDAT ?RemoveAll@?$CXTPArrayT@PAVCXTPReportHyperlink@@PAV1@PAUIDispatch@@@@UAEXXZ
_TEXT	SEGMENT PARA USE32 PUBLIC 'CODE'
_TEXT	ENDS
;	COMDAT ?FindElement@?$CXTPArrayT@PAVCXTPReportHyperlink@@PAV1@PAUIDispatch@@@@UBEHPAVCXTPReportHyperlink@@@Z
_TEXT	SEGMENT PARA USE32 PUBLIC 'CODE'
_TEXT	ENDS
;	COMDAT ?AddIfNeed@?$CXTPArrayT@PAVCXTPReportHyperlink@@PAV1@PAUIDispatch@@@@UAEXPAVCXTPReportHyperlink@@@Z
_TEXT	SEGMENT PARA USE32 PUBLIC 'CODE'
_TEXT	ENDS
;	COMDAT ?RemoveElement@?$CXTPArrayT@PAVCXTPReportHyperlink@@PAV1@PAUIDispatch@@@@UAEHPAVCXTPReportHyperlink@@@Z
_TEXT	SEGMENT PARA USE32 PUBLIC 'CODE'
_TEXT	ENDS
;	COMDAT ?OleGetItemCount@?$CXTPArrayT@PAVCXTPReportHyperlink@@PAV1@PAUIDispatch@@@@MAEJXZ
_TEXT	SEGMENT PARA USE32 PUBLIC 'CODE'
_TEXT	ENDS
;	COMDAT ?OleGetItem@?$CXTPArrayT@PAVCXTPReportHyperlink@@PAV1@PAUIDispatch@@@@MAEPAUIDispatch@@J@Z
_TEXT	SEGMENT PARA USE32 PUBLIC 'CODE'
_TEXT	ENDS
;	COMDAT ?OleSetItem@?$CXTPArrayT@PAVCXTPReportHyperlink@@PAV1@PAUIDispatch@@@@MAEXJPAUIDispatch@@@Z
_TEXT	SEGMENT PARA USE32 PUBLIC 'CODE'
_TEXT	ENDS
;	COMDAT ?OleAdd@?$CXTPArrayT@PAVCXTPReportHyperlink@@PAV1@PAUIDispatch@@@@MAEXPAUIDispatch@@@Z
_TEXT	SEGMENT PARA USE32 PUBLIC 'CODE'
_TEXT	ENDS
;	COMDAT ?OleRemove@?$CXTPArrayT@PAVCXTPReportHyperlink@@PAV1@PAUIDispatch@@@@MAEXJ@Z
_TEXT	SEGMENT PARA USE32 PUBLIC 'CODE'
_TEXT	ENDS
;	COMDAT ?OleRemoveAll@?$CXTPArrayT@PAVCXTPReportHyperlink@@PAV1@PAUIDispatch@@@@MAEXXZ
_TEXT	SEGMENT PARA USE32 PUBLIC 'CODE'
_TEXT	ENDS
;	COMDAT ?GetSize@?$CArray@PAVCXTPReportRecordItem@@PAV1@@@QBEHXZ
_TEXT	SEGMENT PARA USE32 PUBLIC 'CODE'
_TEXT	ENDS
;	COMDAT ?GetAt@?$CArray@PAVCXTPReportRecordItem@@PAV1@@@QBEPAVCXTPReportRecordItem@@H@Z
_TEXT	SEGMENT PARA USE32 PUBLIC 'CODE'
_TEXT	ENDS
;	COMDAT ??1?$CArray@PAVCXTPReportRecordItem@@PAV1@@@UAE@XZ
_TEXT	SEGMENT PARA USE32 PUBLIC 'CODE'
_TEXT	ENDS
;	COMDAT ?Serialize@?$CArray@PAVCXTPReportRecordItem@@PAV1@@@UAEXAAVCArchive@@@Z
_TEXT	SEGMENT PARA USE32 PUBLIC 'CODE'
_TEXT	ENDS
;	COMDAT ??1?$CArray@PAVCXTPReportRecordItemConstraint@@PAV1@@@UAE@XZ
_TEXT	SEGMENT PARA USE32 PUBLIC 'CODE'
_TEXT	ENDS
;	COMDAT ?Serialize@?$CArray@PAVCXTPReportRecordItemConstraint@@PAV1@@@UAEXAAVCArchive@@@Z
_TEXT	SEGMENT PARA USE32 PUBLIC 'CODE'
_TEXT	ENDS
;	COMDAT ??1?$CArray@PAVCXTPReportInplaceButton@@PAV1@@@UAE@XZ
_TEXT	SEGMENT PARA USE32 PUBLIC 'CODE'
_TEXT	ENDS
;	COMDAT ?Serialize@?$CArray@PAVCXTPReportInplaceButton@@PAV1@@@UAEXAAVCArchive@@@Z
_TEXT	SEGMENT PARA USE32 PUBLIC 'CODE'
_TEXT	ENDS
;	COMDAT ??1?$CArray@PAVCXTPReportRecord@@PAV1@@@UAE@XZ
_TEXT	SEGMENT PARA USE32 PUBLIC 'CODE'
_TEXT	ENDS
;	COMDAT ?Serialize@?$CArray@PAVCXTPReportRecord@@PAV1@@@UAEXAAVCArchive@@@Z
_TEXT	SEGMENT PARA USE32 PUBLIC 'CODE'
_TEXT	ENDS
;	COMDAT ?SetAt@?$CMap@HHHH@@QAEXHH@Z
_TEXT	SEGMENT PARA USE32 PUBLIC 'CODE'
_TEXT	ENDS
;	COMDAT ??1?$CMap@HHHH@@UAE@XZ
_TEXT	SEGMENT PARA USE32 PUBLIC 'CODE'
_TEXT	ENDS
;	COMDAT ?Serialize@?$CMap@HHHH@@UAEXAAVCArchive@@@Z
_TEXT	SEGMENT PARA USE32 PUBLIC 'CODE'
_TEXT	ENDS
;	COMDAT ??1?$CArray@PAVCXTPReportRecordItemControl@@PAV1@@@UAE@XZ
_TEXT	SEGMENT PARA USE32 PUBLIC 'CODE'
_TEXT	ENDS
;	COMDAT ?Serialize@?$CArray@PAVCXTPReportRecordItemControl@@PAV1@@@UAEXAAVCArchive@@@Z
_TEXT	SEGMENT PARA USE32 PUBLIC 'CODE'
_TEXT	ENDS
;	COMDAT ??1?$CXTPArrayT@PAVCXTPReportRecordItemControl@@PAV1@PAUIDispatch@@@@UAE@XZ
_TEXT	SEGMENT PARA USE32 PUBLIC 'CODE'
_TEXT	ENDS
;	COMDAT ?GetSize@?$CXTPArrayT@PAVCXTPReportRecordItemControl@@PAV1@PAUIDispatch@@@@UBEHXZ
_TEXT	SEGMENT PARA USE32 PUBLIC 'CODE'
_TEXT	ENDS
;	COMDAT ?SetSize@?$CXTPArrayT@PAVCXTPReportRecordItemControl@@PAV1@PAUIDispatch@@@@UAEXHH@Z
_TEXT	SEGMENT PARA USE32 PUBLIC 'CODE'
_TEXT	ENDS
;	COMDAT ?GetAt@?$CXTPArrayT@PAVCXTPReportRecordItemControl@@PAV1@PAUIDispatch@@@@UBEPAVCXTPReportRecordItemControl@@H@Z
_TEXT	SEGMENT PARA USE32 PUBLIC 'CODE'
_TEXT	ENDS
;	COMDAT ?SetAt@?$CXTPArrayT@PAVCXTPReportRecordItemControl@@PAV1@PAUIDispatch@@@@UAEXHPAVCXTPReportRecordItemControl@@@Z
_TEXT	SEGMENT PARA USE32 PUBLIC 'CODE'
_TEXT	ENDS
;	COMDAT ?ElementAt@?$CXTPArrayT@PAVCXTPReportRecordItemControl@@PAV1@PAUIDispatch@@@@UAEAAPAVCXTPReportRecordItemControl@@H@Z
_TEXT	SEGMENT PARA USE32 PUBLIC 'CODE'
_TEXT	ENDS
;	COMDAT ?GetData@?$CXTPArrayT@PAVCXTPReportRecordItemControl@@PAV1@PAUIDispatch@@@@UAEPAPAVCXTPReportRecordItemControl@@XZ
_TEXT	SEGMENT PARA USE32 PUBLIC 'CODE'
_TEXT	ENDS
;	COMDAT ?GetData@?$CXTPArrayT@PAVCXTPReportRecordItemControl@@PAV1@PAUIDispatch@@@@UBEPBQAVCXTPReportRecordItemControl@@XZ
_TEXT	SEGMENT PARA USE32 PUBLIC 'CODE'
_TEXT	ENDS
;	COMDAT ?SetAtGrow@?$CXTPArrayT@PAVCXTPReportRecordItemControl@@PAV1@PAUIDispatch@@@@UAEXHPAVCXTPReportRecordItemControl@@@Z
_TEXT	SEGMENT PARA USE32 PUBLIC 'CODE'
_TEXT	ENDS
;	COMDAT ?Add@?$CXTPArrayT@PAVCXTPReportRecordItemControl@@PAV1@PAUIDispatch@@@@UAEHPAVCXTPReportRecordItemControl@@@Z
_TEXT	SEGMENT PARA USE32 PUBLIC 'CODE'
_TEXT	ENDS
;	COMDAT ?Append@?$CXTPArrayT@PAVCXTPReportRecordItemControl@@PAV1@PAUIDispatch@@@@UAEHABV1@@Z
_TEXT	SEGMENT PARA USE32 PUBLIC 'CODE'
_TEXT	ENDS
;	COMDAT ?Copy@?$CXTPArrayT@PAVCXTPReportRecordItemControl@@PAV1@PAUIDispatch@@@@UAEXABV1@@Z
_TEXT	SEGMENT PARA USE32 PUBLIC 'CODE'
_TEXT	ENDS
;	COMDAT ?InsertAt@?$CXTPArrayT@PAVCXTPReportRecordItemControl@@PAV1@PAUIDispatch@@@@UAEXHPAV1@@Z
_TEXT	SEGMENT PARA USE32 PUBLIC 'CODE'
_TEXT	ENDS
;	COMDAT ?InsertAt@?$CXTPArrayT@PAVCXTPReportRecordItemControl@@PAV1@PAUIDispatch@@@@UAEXHPAVCXTPReportRecordItemControl@@H@Z
_TEXT	SEGMENT PARA USE32 PUBLIC 'CODE'
_TEXT	ENDS
;	COMDAT ?RemoveAt@?$CXTPArrayT@PAVCXTPReportRecordItemControl@@PAV1@PAUIDispatch@@@@UAEXHH@Z
_TEXT	SEGMENT PARA USE32 PUBLIC 'CODE'
_TEXT	ENDS
;	COMDAT ?RemoveAll@?$CXTPArrayT@PAVCXTPReportRecordItemControl@@PAV1@PAUIDispatch@@@@UAEXXZ
_TEXT	SEGMENT PARA USE32 PUBLIC 'CODE'
_TEXT	ENDS
;	COMDAT ?FindElement@?$CXTPArrayT@PAVCXTPReportRecordItemControl@@PAV1@PAUIDispatch@@@@UBEHPAVCXTPReportRecordItemControl@@@Z
_TEXT	SEGMENT PARA USE32 PUBLIC 'CODE'
_TEXT	ENDS
;	COMDAT ?AddIfNeed@?$CXTPArrayT@PAVCXTPReportRecordItemControl@@PAV1@PAUIDispatch@@@@UAEXPAVCXTPReportRecordItemControl@@@Z
_TEXT	SEGMENT PARA USE32 PUBLIC 'CODE'
_TEXT	ENDS
;	COMDAT ?RemoveElement@?$CXTPArrayT@PAVCXTPReportRecordItemControl@@PAV1@PAUIDispatch@@@@UAEHPAVCXTPReportRecordItemControl@@@Z
_TEXT	SEGMENT PARA USE32 PUBLIC 'CODE'
_TEXT	ENDS
;	COMDAT ?OleGetItemCount@?$CXTPArrayT@PAVCXTPReportRecordItemControl@@PAV1@PAUIDispatch@@@@MAEJXZ
_TEXT	SEGMENT PARA USE32 PUBLIC 'CODE'
_TEXT	ENDS
;	COMDAT ?OleGetItem@?$CXTPArrayT@PAVCXTPReportRecordItemControl@@PAV1@PAUIDispatch@@@@MAEPAUIDispatch@@J@Z
_TEXT	SEGMENT PARA USE32 PUBLIC 'CODE'
_TEXT	ENDS
;	COMDAT ?OleSetItem@?$CXTPArrayT@PAVCXTPReportRecordItemControl@@PAV1@PAUIDispatch@@@@MAEXJPAUIDispatch@@@Z
_TEXT	SEGMENT PARA USE32 PUBLIC 'CODE'
_TEXT	ENDS
;	COMDAT ?OleAdd@?$CXTPArrayT@PAVCXTPReportRecordItemControl@@PAV1@PAUIDispatch@@@@MAEXPAUIDispatch@@@Z
_TEXT	SEGMENT PARA USE32 PUBLIC 'CODE'
_TEXT	ENDS
;	COMDAT ?OleRemove@?$CXTPArrayT@PAVCXTPReportRecordItemControl@@PAV1@PAUIDispatch@@@@MAEXJ@Z
_TEXT	SEGMENT PARA USE32 PUBLIC 'CODE'
_TEXT	ENDS
;	COMDAT ?OleRemoveAll@?$CXTPArrayT@PAVCXTPReportRecordItemControl@@PAV1@PAUIDispatch@@@@MAEXXZ
_TEXT	SEGMENT PARA USE32 PUBLIC 'CODE'
_TEXT	ENDS
;	COMDAT ??1?$CArray@W4EventReasonEnum@XTPREPORTADODB@@AAW412@@@UAE@XZ
_TEXT	SEGMENT PARA USE32 PUBLIC 'CODE'
_TEXT	ENDS
;	COMDAT ?Serialize@?$CArray@W4EventReasonEnum@XTPREPORTADODB@@AAW412@@@UAEXAAVCArchive@@@Z
_TEXT	SEGMENT PARA USE32 PUBLIC 'CODE'
_TEXT	ENDS
;	COMDAT ??1?$CArray@PAUXTP_REPORTDATAMANAGER_COM_ERROR@@PAU1@@@UAE@XZ
_TEXT	SEGMENT PARA USE32 PUBLIC 'CODE'
_TEXT	ENDS
;	COMDAT ?Serialize@?$CArray@PAUXTP_REPORTDATAMANAGER_COM_ERROR@@PAU1@@@UAEXAAVCArchive@@@Z
_TEXT	SEGMENT PARA USE32 PUBLIC 'CODE'
_TEXT	ENDS
;	COMDAT ??1?$CArray@PAVCXTPTrackMarker@@PAV1@@@UAE@XZ
_TEXT	SEGMENT PARA USE32 PUBLIC 'CODE'
_TEXT	ENDS
;	COMDAT ?Serialize@?$CArray@PAVCXTPTrackMarker@@PAV1@@@UAEXAAVCArchive@@@Z
_TEXT	SEGMENT PARA USE32 PUBLIC 'CODE'
_TEXT	ENDS
;	COMDAT ?GetSize@?$CArray@PAVCXTPTrackBlock@@PAV1@@@QBEHXZ
_TEXT	SEGMENT PARA USE32 PUBLIC 'CODE'
_TEXT	ENDS
;	COMDAT ??A?$CArray@PAVCXTPTrackBlock@@PAV1@@@QBEPAVCXTPTrackBlock@@H@Z
_TEXT	SEGMENT PARA USE32 PUBLIC 'CODE'
_TEXT	ENDS
;	COMDAT ??1?$CArray@PAVCXTPTrackBlock@@PAV1@@@UAE@XZ
_TEXT	SEGMENT PARA USE32 PUBLIC 'CODE'
_TEXT	ENDS
;	COMDAT ?Serialize@?$CArray@PAVCXTPTrackBlock@@PAV1@@@UAEXAAVCArchive@@@Z
_TEXT	SEGMENT PARA USE32 PUBLIC 'CODE'
_TEXT	ENDS
;	COMDAT ??1?$CArray@UDRAGBLOCK@CXTPTrackControl@@AAU12@@@UAE@XZ
_TEXT	SEGMENT PARA USE32 PUBLIC 'CODE'
_TEXT	ENDS
;	COMDAT ?Serialize@?$CArray@UDRAGBLOCK@CXTPTrackControl@@AAU12@@@UAEXAAVCArchive@@@Z
_TEXT	SEGMENT PARA USE32 PUBLIC 'CODE'
_TEXT	ENDS
;	COMDAT ??1?$CArray@PAVCXTPTrackUndoCommand@@PAV1@@@UAE@XZ
_TEXT	SEGMENT PARA USE32 PUBLIC 'CODE'
_TEXT	ENDS
;	COMDAT ?Serialize@?$CArray@PAVCXTPTrackUndoCommand@@PAV1@@@UAEXAAVCArchive@@@Z
_TEXT	SEGMENT PARA USE32 PUBLIC 'CODE'
_TEXT	ENDS
;	COMDAT ??1?$CMap@JJUXTPDayInfo@CXTPDayInfoCache@CXTPCalendarController@@AAU123@@@UAE@XZ
_TEXT	SEGMENT PARA USE32 PUBLIC 'CODE'
_TEXT	ENDS
;	COMDAT ?Serialize@?$CMap@JJUXTPDayInfo@CXTPDayInfoCache@CXTPCalendarController@@AAU123@@@UAEXAAVCArchive@@@Z
_TEXT	SEGMENT PARA USE32 PUBLIC 'CODE'
_TEXT	ENDS
;	COMDAT ??1?$CMap@JJII@@UAE@XZ
_TEXT	SEGMENT PARA USE32 PUBLIC 'CODE'
_TEXT	ENDS
;	COMDAT ?Serialize@?$CMap@JJII@@UAEXAAVCArchive@@@Z
_TEXT	SEGMENT PARA USE32 PUBLIC 'CODE'
_TEXT	ENDS
;	COMDAT ??1?$CMap@IIPAVCXTPDayInfoCache@CXTPCalendarController@@PAV12@@@UAE@XZ
_TEXT	SEGMENT PARA USE32 PUBLIC 'CODE'
_TEXT	ENDS
;	COMDAT ?Serialize@?$CMap@IIPAVCXTPDayInfoCache@CXTPCalendarController@@PAV12@@@UAEXAAVCArchive@@@Z
_TEXT	SEGMENT PARA USE32 PUBLIC 'CODE'
_TEXT	ENDS
;	COMDAT ??1?$CMap@HHII@@UAE@XZ
_TEXT	SEGMENT PARA USE32 PUBLIC 'CODE'
_TEXT	ENDS
;	COMDAT ?Serialize@?$CMap@HHII@@UAEXAAVCArchive@@@Z
_TEXT	SEGMENT PARA USE32 PUBLIC 'CODE'
_TEXT	ENDS
;	COMDAT ?GetSize@?$CArray@PAVCXTPDatePickerButton@@PAV1@@@QBEHXZ
_TEXT	SEGMENT PARA USE32 PUBLIC 'CODE'
_TEXT	ENDS
;	COMDAT ??A?$CArray@PAVCXTPDatePickerButton@@PAV1@@@QBEPAVCXTPDatePickerButton@@H@Z
_TEXT	SEGMENT PARA USE32 PUBLIC 'CODE'
_TEXT	ENDS
;	COMDAT ??1?$CArray@PAVCXTPDatePickerButton@@PAV1@@@UAE@XZ
_TEXT	SEGMENT PARA USE32 PUBLIC 'CODE'
_TEXT	ENDS
;	COMDAT ?Serialize@?$CArray@PAVCXTPDatePickerButton@@PAV1@@@UAEXAAVCArchive@@@Z
_TEXT	SEGMENT PARA USE32 PUBLIC 'CODE'
_TEXT	ENDS
;	COMDAT ??1?$CArray@PAVCXTPDatePickerItemMonth@@PAV1@@@UAE@XZ
_TEXT	SEGMENT PARA USE32 PUBLIC 'CODE'
_TEXT	ENDS
;	COMDAT ?Serialize@?$CArray@PAVCXTPDatePickerItemMonth@@PAV1@@@UAEXAAVCArchive@@@Z
_TEXT	SEGMENT PARA USE32 PUBLIC 'CODE'
_TEXT	ENDS
;	COMDAT ?GetSize@?$CArray@USELECTED_BLOCK@CXTPDatePickerDaysCollection@@AAU12@@@QBEHXZ
_TEXT	SEGMENT PARA USE32 PUBLIC 'CODE'
_TEXT	ENDS
;	COMDAT ??A?$CArray@USELECTED_BLOCK@CXTPDatePickerDaysCollection@@AAU12@@@QAEAAUSELECTED_BLOCK@CXTPDatePickerDaysCollection@@H@Z
_TEXT	SEGMENT PARA USE32 PUBLIC 'CODE'
_TEXT	ENDS
;	COMDAT ??1?$CArray@USELECTED_BLOCK@CXTPDatePickerDaysCollection@@AAU12@@@UAE@XZ
_TEXT	SEGMENT PARA USE32 PUBLIC 'CODE'
_TEXT	ENDS
;	COMDAT ?Serialize@?$CArray@USELECTED_BLOCK@CXTPDatePickerDaysCollection@@AAU12@@@UAEXAAVCArchive@@@Z
_TEXT	SEGMENT PARA USE32 PUBLIC 'CODE'
_TEXT	ENDS
;	COMDAT ??1?$CArray@PAVCXTPDatePickerItemDay@@PAV1@@@UAE@XZ
_TEXT	SEGMENT PARA USE32 PUBLIC 'CODE'
_TEXT	ENDS
;	COMDAT ?Serialize@?$CArray@PAVCXTPDatePickerItemDay@@PAV1@@@UAEXAAVCArchive@@@Z
_TEXT	SEGMENT PARA USE32 PUBLIC 'CODE'
_TEXT	ENDS
;	COMDAT ??1?$CArray@V?$CXTPSmartPtrInternalT@VCXTPDatePickerThemePart@@@@AAV1@@@UAE@XZ
_TEXT	SEGMENT PARA USE32 PUBLIC 'CODE'
_TEXT	ENDS
;	COMDAT ?Serialize@?$CArray@V?$CXTPSmartPtrInternalT@VCXTPDatePickerThemePart@@@@AAV1@@@UAEXAAVCArchive@@@Z
_TEXT	SEGMENT PARA USE32 PUBLIC 'CODE'
_TEXT	ENDS
;	COMDAT ??0?$CXTPCalendarPtrCollectionT@VCXTPDatePickerThemePart@@@@QAE@XZ
_TEXT	SEGMENT PARA USE32 PUBLIC 'CODE'
_TEXT	ENDS
;	COMDAT ??1?$CXTPCalendarPtrCollectionT@VCXTPDatePickerThemePart@@@@UAE@XZ
_TEXT	SEGMENT PARA USE32 PUBLIC 'CODE'
_TEXT	ENDS
;	COMDAT ?GetCount@?$CXTPCalendarPtrCollectionT@VCXTPDatePickerThemePart@@@@UBEHXZ
_TEXT	SEGMENT PARA USE32 PUBLIC 'CODE'
_TEXT	ENDS
;	COMDAT ?Add@?$CXTPCalendarPtrCollectionT@VCXTPDatePickerThemePart@@@@UAEXPAVCXTPDatePickerThemePart@@H@Z
_TEXT	SEGMENT PARA USE32 PUBLIC 'CODE'
_TEXT	ENDS
;	COMDAT ?Add@?$CXTPCalendarPtrCollectionT@VCXTPDatePickerThemePart@@@@UAEXPAVCXTPDatePickerThemePart@@@Z
_TEXT	SEGMENT PARA USE32 PUBLIC 'CODE'
_TEXT	ENDS
;	COMDAT ?SetAt@?$CXTPCalendarPtrCollectionT@VCXTPDatePickerThemePart@@@@UAEXHPAVCXTPDatePickerThemePart@@@Z
_TEXT	SEGMENT PARA USE32 PUBLIC 'CODE'
_TEXT	ENDS
;	COMDAT ?Find@?$CXTPCalendarPtrCollectionT@VCXTPDatePickerThemePart@@@@UAEHPBVCXTPDatePickerThemePart@@@Z
_TEXT	SEGMENT PARA USE32 PUBLIC 'CODE'
_TEXT	ENDS
;	COMDAT ?InsertAt@?$CXTPCalendarPtrCollectionT@VCXTPDatePickerThemePart@@@@UAEXHPAVCXTPDatePickerThemePart@@@Z
_TEXT	SEGMENT PARA USE32 PUBLIC 'CODE'
_TEXT	ENDS
;	COMDAT ?Append@?$CXTPCalendarPtrCollectionT@VCXTPDatePickerThemePart@@@@UAEXPAV1@@Z
_TEXT	SEGMENT PARA USE32 PUBLIC 'CODE'
_TEXT	ENDS
;	COMDAT ?SetSize@?$CXTPCalendarPtrCollectionT@VCXTPDatePickerThemePart@@@@UAEXH@Z
_TEXT	SEGMENT PARA USE32 PUBLIC 'CODE'
_TEXT	ENDS
;	COMDAT ?GetAt@?$CXTPCalendarPtrCollectionT@VCXTPDatePickerThemePart@@@@UBEPAVCXTPDatePickerThemePart@@HH@Z
_TEXT	SEGMENT PARA USE32 PUBLIC 'CODE'
_TEXT	ENDS
;	COMDAT ?GetAt@?$CXTPCalendarPtrCollectionT@VCXTPDatePickerThemePart@@@@UBEPAVCXTPDatePickerThemePart@@H@Z
_TEXT	SEGMENT PARA USE32 PUBLIC 'CODE'
_TEXT	ENDS
;	COMDAT ?RemoveAt@?$CXTPCalendarPtrCollectionT@VCXTPDatePickerThemePart@@@@UAEXH@Z
_TEXT	SEGMENT PARA USE32 PUBLIC 'CODE'
_TEXT	ENDS
;	COMDAT ?Remove@?$CXTPCalendarPtrCollectionT@VCXTPDatePickerThemePart@@@@UAEXPAVCXTPDatePickerThemePart@@@Z
_TEXT	SEGMENT PARA USE32 PUBLIC 'CODE'
_TEXT	ENDS
;	COMDAT ?RemoveAll@?$CXTPCalendarPtrCollectionT@VCXTPDatePickerThemePart@@@@UAEXXZ
_TEXT	SEGMENT PARA USE32 PUBLIC 'CODE'
_TEXT	ENDS
;	COMDAT ?GetSize@?$CArray@PAVCXTPCalendarEvent@@PAV1@@@QBEHXZ
_TEXT	SEGMENT PARA USE32 PUBLIC 'CODE'
_TEXT	ENDS
;	COMDAT ?SetSize@?$CArray@PAVCXTPCalendarEvent@@PAV1@@@QAEXHH@Z
_TEXT	SEGMENT PARA USE32 PUBLIC 'CODE'
_TEXT	ENDS
;	COMDAT ??1?$CArray@PAVCXTPCalendarEvent@@PAV1@@@UAE@XZ
_TEXT	SEGMENT PARA USE32 PUBLIC 'CODE'
_TEXT	ENDS
;	COMDAT ?Serialize@?$CArray@PAVCXTPCalendarEvent@@PAV1@@@UAEXAAVCArchive@@@Z
_TEXT	SEGMENT PARA USE32 PUBLIC 'CODE'
_TEXT	ENDS
;	COMDAT ??1?$CArray@VCXTPCalendarReminderForOccurrence@@ABV1@@@UAE@XZ
_TEXT	SEGMENT PARA USE32 PUBLIC 'CODE'
_TEXT	ENDS
;	COMDAT ?Serialize@?$CArray@VCXTPCalendarReminderForOccurrence@@ABV1@@@UAEXAAVCArchive@@@Z
_TEXT	SEGMENT PARA USE32 PUBLIC 'CODE'
_TEXT	ENDS
;	COMDAT ??1?$CArray@V?$CXTPSmartPtrInternalT@VCXTPCalendarEventLabel@@@@AAV1@@@UAE@XZ
_TEXT	SEGMENT PARA USE32 PUBLIC 'CODE'
_TEXT	ENDS
;	COMDAT ?Serialize@?$CArray@V?$CXTPSmartPtrInternalT@VCXTPCalendarEventLabel@@@@AAV1@@@UAEXAAVCArchive@@@Z
_TEXT	SEGMENT PARA USE32 PUBLIC 'CODE'
_TEXT	ENDS
;	COMDAT ??1?$CXTPCalendarPtrCollectionT@VCXTPCalendarEventLabel@@@@UAE@XZ
_TEXT	SEGMENT PARA USE32 PUBLIC 'CODE'
_TEXT	ENDS
;	COMDAT ?GetCount@?$CXTPCalendarPtrCollectionT@VCXTPCalendarEventLabel@@@@UBEHXZ
_TEXT	SEGMENT PARA USE32 PUBLIC 'CODE'
_TEXT	ENDS
;	COMDAT ?Add@?$CXTPCalendarPtrCollectionT@VCXTPCalendarEventLabel@@@@UAEXPAVCXTPCalendarEventLabel@@H@Z
_TEXT	SEGMENT PARA USE32 PUBLIC 'CODE'
_TEXT	ENDS
;	COMDAT ?Add@?$CXTPCalendarPtrCollectionT@VCXTPCalendarEventLabel@@@@UAEXPAVCXTPCalendarEventLabel@@@Z
_TEXT	SEGMENT PARA USE32 PUBLIC 'CODE'
_TEXT	ENDS
;	COMDAT ?SetAt@?$CXTPCalendarPtrCollectionT@VCXTPCalendarEventLabel@@@@UAEXHPAVCXTPCalendarEventLabel@@@Z
_TEXT	SEGMENT PARA USE32 PUBLIC 'CODE'
_TEXT	ENDS
;	COMDAT ?Find@?$CXTPCalendarPtrCollectionT@VCXTPCalendarEventLabel@@@@UAEHPBVCXTPCalendarEventLabel@@@Z
_TEXT	SEGMENT PARA USE32 PUBLIC 'CODE'
_TEXT	ENDS
;	COMDAT ?InsertAt@?$CXTPCalendarPtrCollectionT@VCXTPCalendarEventLabel@@@@UAEXHPAVCXTPCalendarEventLabel@@@Z
_TEXT	SEGMENT PARA USE32 PUBLIC 'CODE'
_TEXT	ENDS
;	COMDAT ?Append@?$CXTPCalendarPtrCollectionT@VCXTPCalendarEventLabel@@@@UAEXPAV1@@Z
_TEXT	SEGMENT PARA USE32 PUBLIC 'CODE'
_TEXT	ENDS
;	COMDAT ?SetSize@?$CXTPCalendarPtrCollectionT@VCXTPCalendarEventLabel@@@@UAEXH@Z
_TEXT	SEGMENT PARA USE32 PUBLIC 'CODE'
_TEXT	ENDS
;	COMDAT ?GetAt@?$CXTPCalendarPtrCollectionT@VCXTPCalendarEventLabel@@@@UBEPAVCXTPCalendarEventLabel@@HH@Z
_TEXT	SEGMENT PARA USE32 PUBLIC 'CODE'
_TEXT	ENDS
;	COMDAT ?GetAt@?$CXTPCalendarPtrCollectionT@VCXTPCalendarEventLabel@@@@UBEPAVCXTPCalendarEventLabel@@H@Z
_TEXT	SEGMENT PARA USE32 PUBLIC 'CODE'
_TEXT	ENDS
;	COMDAT ?RemoveAt@?$CXTPCalendarPtrCollectionT@VCXTPCalendarEventLabel@@@@UAEXH@Z
_TEXT	SEGMENT PARA USE32 PUBLIC 'CODE'
_TEXT	ENDS
;	COMDAT ?Remove@?$CXTPCalendarPtrCollectionT@VCXTPCalendarEventLabel@@@@UAEXPAVCXTPCalendarEventLabel@@@Z
_TEXT	SEGMENT PARA USE32 PUBLIC 'CODE'
_TEXT	ENDS
;	COMDAT ?RemoveAll@?$CXTPCalendarPtrCollectionT@VCXTPCalendarEventLabel@@@@UAEXXZ
_TEXT	SEGMENT PARA USE32 PUBLIC 'CODE'
_TEXT	ENDS
;	COMDAT ??1?$CArray@V?$CXTPSmartPtrInternalT@VCXTPCalendarEventCategory@@@@AAV1@@@UAE@XZ
_TEXT	SEGMENT PARA USE32 PUBLIC 'CODE'
_TEXT	ENDS
;	COMDAT ?Serialize@?$CArray@V?$CXTPSmartPtrInternalT@VCXTPCalendarEventCategory@@@@AAV1@@@UAEXAAVCArchive@@@Z
_TEXT	SEGMENT PARA USE32 PUBLIC 'CODE'
_TEXT	ENDS
;	COMDAT ??1?$CXTPCalendarPtrCollectionT@VCXTPCalendarEventCategory@@@@UAE@XZ
_TEXT	SEGMENT PARA USE32 PUBLIC 'CODE'
_TEXT	ENDS
;	COMDAT ?GetCount@?$CXTPCalendarPtrCollectionT@VCXTPCalendarEventCategory@@@@UBEHXZ
_TEXT	SEGMENT PARA USE32 PUBLIC 'CODE'
_TEXT	ENDS
;	COMDAT ?Add@?$CXTPCalendarPtrCollectionT@VCXTPCalendarEventCategory@@@@UAEXPAVCXTPCalendarEventCategory@@H@Z
_TEXT	SEGMENT PARA USE32 PUBLIC 'CODE'
_TEXT	ENDS
;	COMDAT ?Add@?$CXTPCalendarPtrCollectionT@VCXTPCalendarEventCategory@@@@UAEXPAVCXTPCalendarEventCategory@@@Z
_TEXT	SEGMENT PARA USE32 PUBLIC 'CODE'
_TEXT	ENDS
;	COMDAT ?SetAt@?$CXTPCalendarPtrCollectionT@VCXTPCalendarEventCategory@@@@UAEXHPAVCXTPCalendarEventCategory@@@Z
_TEXT	SEGMENT PARA USE32 PUBLIC 'CODE'
_TEXT	ENDS
;	COMDAT ?Find@?$CXTPCalendarPtrCollectionT@VCXTPCalendarEventCategory@@@@UAEHPBVCXTPCalendarEventCategory@@@Z
_TEXT	SEGMENT PARA USE32 PUBLIC 'CODE'
_TEXT	ENDS
;	COMDAT ?InsertAt@?$CXTPCalendarPtrCollectionT@VCXTPCalendarEventCategory@@@@UAEXHPAVCXTPCalendarEventCategory@@@Z
_TEXT	SEGMENT PARA USE32 PUBLIC 'CODE'
_TEXT	ENDS
;	COMDAT ?Append@?$CXTPCalendarPtrCollectionT@VCXTPCalendarEventCategory@@@@UAEXPAV1@@Z
_TEXT	SEGMENT PARA USE32 PUBLIC 'CODE'
_TEXT	ENDS
;	COMDAT ?SetSize@?$CXTPCalendarPtrCollectionT@VCXTPCalendarEventCategory@@@@UAEXH@Z
_TEXT	SEGMENT PARA USE32 PUBLIC 'CODE'
_TEXT	ENDS
;	COMDAT ?GetAt@?$CXTPCalendarPtrCollectionT@VCXTPCalendarEventCategory@@@@UBEPAVCXTPCalendarEventCategory@@HH@Z
_TEXT	SEGMENT PARA USE32 PUBLIC 'CODE'
_TEXT	ENDS
;	COMDAT ?GetAt@?$CXTPCalendarPtrCollectionT@VCXTPCalendarEventCategory@@@@UBEPAVCXTPCalendarEventCategory@@H@Z
_TEXT	SEGMENT PARA USE32 PUBLIC 'CODE'
_TEXT	ENDS
;	COMDAT ?RemoveAt@?$CXTPCalendarPtrCollectionT@VCXTPCalendarEventCategory@@@@UAEXH@Z
_TEXT	SEGMENT PARA USE32 PUBLIC 'CODE'
_TEXT	ENDS
;	COMDAT ?Remove@?$CXTPCalendarPtrCollectionT@VCXTPCalendarEventCategory@@@@UAEXPAVCXTPCalendarEventCategory@@@Z
_TEXT	SEGMENT PARA USE32 PUBLIC 'CODE'
_TEXT	ENDS
;	COMDAT ?RemoveAll@?$CXTPCalendarPtrCollectionT@VCXTPCalendarEventCategory@@@@UAEXXZ
_TEXT	SEGMENT PARA USE32 PUBLIC 'CODE'
_TEXT	ENDS
;	COMDAT ??1?$CArray@II@@UAE@XZ
_TEXT	SEGMENT PARA USE32 PUBLIC 'CODE'
_TEXT	ENDS
;	COMDAT ?Serialize@?$CArray@II@@UAEXAAVCArchive@@@Z
_TEXT	SEGMENT PARA USE32 PUBLIC 'CODE'
_TEXT	ENDS
;	COMDAT ??1?$CXTPArrayT@IIJ@@UAE@XZ
_TEXT	SEGMENT PARA USE32 PUBLIC 'CODE'
_TEXT	ENDS
;	COMDAT ?GetSize@?$CXTPArrayT@IIJ@@UBEHXZ
_TEXT	SEGMENT PARA USE32 PUBLIC 'CODE'
_TEXT	ENDS
;	COMDAT ?SetSize@?$CXTPArrayT@IIJ@@UAEXHH@Z
_TEXT	SEGMENT PARA USE32 PUBLIC 'CODE'
_TEXT	ENDS
;	COMDAT ?GetAt@?$CXTPArrayT@IIJ@@UBEIH@Z
_TEXT	SEGMENT PARA USE32 PUBLIC 'CODE'
_TEXT	ENDS
;	COMDAT ?SetAt@?$CXTPArrayT@IIJ@@UAEXHI@Z
_TEXT	SEGMENT PARA USE32 PUBLIC 'CODE'
_TEXT	ENDS
;	COMDAT ?ElementAt@?$CXTPArrayT@IIJ@@UAEAAIH@Z
_TEXT	SEGMENT PARA USE32 PUBLIC 'CODE'
_TEXT	ENDS
;	COMDAT ?GetData@?$CXTPArrayT@IIJ@@UAEPAIXZ
_TEXT	SEGMENT PARA USE32 PUBLIC 'CODE'
_TEXT	ENDS
;	COMDAT ?GetData@?$CXTPArrayT@IIJ@@UBEPBIXZ
_TEXT	SEGMENT PARA USE32 PUBLIC 'CODE'
_TEXT	ENDS
;	COMDAT ?SetAtGrow@?$CXTPArrayT@IIJ@@UAEXHI@Z
_TEXT	SEGMENT PARA USE32 PUBLIC 'CODE'
_TEXT	ENDS
;	COMDAT ?Add@?$CXTPArrayT@IIJ@@UAEHI@Z
_TEXT	SEGMENT PARA USE32 PUBLIC 'CODE'
_TEXT	ENDS
;	COMDAT ?Append@?$CXTPArrayT@IIJ@@UAEHABV1@@Z
_TEXT	SEGMENT PARA USE32 PUBLIC 'CODE'
_TEXT	ENDS
;	COMDAT ?Copy@?$CXTPArrayT@IIJ@@UAEXABV1@@Z
_TEXT	SEGMENT PARA USE32 PUBLIC 'CODE'
_TEXT	ENDS
;	COMDAT ?InsertAt@?$CXTPArrayT@IIJ@@UAEXHPAV1@@Z
_TEXT	SEGMENT PARA USE32 PUBLIC 'CODE'
_TEXT	ENDS
;	COMDAT ?InsertAt@?$CXTPArrayT@IIJ@@UAEXHIH@Z
_TEXT	SEGMENT PARA USE32 PUBLIC 'CODE'
_TEXT	ENDS
;	COMDAT ?RemoveAt@?$CXTPArrayT@IIJ@@UAEXHH@Z
_TEXT	SEGMENT PARA USE32 PUBLIC 'CODE'
_TEXT	ENDS
;	COMDAT ?RemoveAll@?$CXTPArrayT@IIJ@@UAEXXZ
_TEXT	SEGMENT PARA USE32 PUBLIC 'CODE'
_TEXT	ENDS
;	COMDAT ?FindElement@?$CXTPArrayT@IIJ@@UBEHI@Z
_TEXT	SEGMENT PARA USE32 PUBLIC 'CODE'
_TEXT	ENDS
;	COMDAT ?AddIfNeed@?$CXTPArrayT@IIJ@@UAEXI@Z
_TEXT	SEGMENT PARA USE32 PUBLIC 'CODE'
_TEXT	ENDS
;	COMDAT ?RemoveElement@?$CXTPArrayT@IIJ@@UAEHI@Z
_TEXT	SEGMENT PARA USE32 PUBLIC 'CODE'
_TEXT	ENDS
;	COMDAT ?OleGetItemCount@?$CXTPArrayT@IIJ@@MAEJXZ
_TEXT	SEGMENT PARA USE32 PUBLIC 'CODE'
_TEXT	ENDS
;	COMDAT ?OleGetItem@?$CXTPArrayT@IIJ@@MAEJJ@Z
_TEXT	SEGMENT PARA USE32 PUBLIC 'CODE'
_TEXT	ENDS
;	COMDAT ?OleSetItem@?$CXTPArrayT@IIJ@@MAEXJJ@Z
_TEXT	SEGMENT PARA USE32 PUBLIC 'CODE'
_TEXT	ENDS
;	COMDAT ?OleAdd@?$CXTPArrayT@IIJ@@MAEXJ@Z
_TEXT	SEGMENT PARA USE32 PUBLIC 'CODE'
_TEXT	ENDS
;	COMDAT ?OleRemove@?$CXTPArrayT@IIJ@@MAEXJ@Z
_TEXT	SEGMENT PARA USE32 PUBLIC 'CODE'
_TEXT	ENDS
;	COMDAT ?OleRemoveAll@?$CXTPArrayT@IIJ@@MAEXXZ
_TEXT	SEGMENT PARA USE32 PUBLIC 'CODE'
_TEXT	ENDS
;	COMDAT ??0?$CArray@USUndoAction@CUndoBuffer@CXTPCalendarView@@ABU123@@@QAE@XZ
_TEXT	SEGMENT PARA USE32 PUBLIC 'CODE'
_TEXT	ENDS
;	COMDAT ?GetSize@?$CArray@USUndoAction@CUndoBuffer@CXTPCalendarView@@ABU123@@@QBEHXZ
_TEXT	SEGMENT PARA USE32 PUBLIC 'CODE'
_TEXT	ENDS
;	COMDAT ?RemoveAll@?$CArray@USUndoAction@CUndoBuffer@CXTPCalendarView@@ABU123@@@QAEXXZ
_TEXT	SEGMENT PARA USE32 PUBLIC 'CODE'
_TEXT	ENDS
;	COMDAT ?ElementAt@?$CArray@USUndoAction@CUndoBuffer@CXTPCalendarView@@ABU123@@@QAEAAUSUndoAction@CUndoBuffer@CXTPCalendarView@@H@Z
_TEXT	SEGMENT PARA USE32 PUBLIC 'CODE'
_TEXT	ENDS
;	COMDAT ?Add@?$CArray@USUndoAction@CUndoBuffer@CXTPCalendarView@@ABU123@@@QAEHABUSUndoAction@CUndoBuffer@CXTPCalendarView@@@Z
_TEXT	SEGMENT PARA USE32 PUBLIC 'CODE'
_TEXT	ENDS
;	COMDAT ?Append@?$CArray@USUndoAction@CUndoBuffer@CXTPCalendarView@@ABU123@@@QAEHABV1@@Z
_TEXT	SEGMENT PARA USE32 PUBLIC 'CODE'
_TEXT	ENDS
;	COMDAT ??1?$CArray@USUndoAction@CUndoBuffer@CXTPCalendarView@@ABU123@@@UAE@XZ
_TEXT	SEGMENT PARA USE32 PUBLIC 'CODE'
_TEXT	ENDS
;	COMDAT ?Serialize@?$CArray@USUndoAction@CUndoBuffer@CXTPCalendarView@@ABU123@@@UAEXAAVCArchive@@@Z
_TEXT	SEGMENT PARA USE32 PUBLIC 'CODE'
_TEXT	ENDS
;	COMDAT ??1?$CArray@V?$CXTPSmartPtrInternalT@VCXTPCalendarViewEvent@@@@AAV1@@@UAE@XZ
_TEXT	SEGMENT PARA USE32 PUBLIC 'CODE'
_TEXT	ENDS
;	COMDAT ?Serialize@?$CArray@V?$CXTPSmartPtrInternalT@VCXTPCalendarViewEvent@@@@AAV1@@@UAEXAAVCArchive@@@Z
_TEXT	SEGMENT PARA USE32 PUBLIC 'CODE'
_TEXT	ENDS
;	COMDAT ??1?$CXTPCalendarPtrCollectionT@VCXTPCalendarViewEvent@@@@UAE@XZ
_TEXT	SEGMENT PARA USE32 PUBLIC 'CODE'
_TEXT	ENDS
;	COMDAT ?GetCount@?$CXTPCalendarPtrCollectionT@VCXTPCalendarViewEvent@@@@UBEHXZ
_TEXT	SEGMENT PARA USE32 PUBLIC 'CODE'
_TEXT	ENDS
;	COMDAT ?Add@?$CXTPCalendarPtrCollectionT@VCXTPCalendarViewEvent@@@@UAEXPAVCXTPCalendarViewEvent@@H@Z
_TEXT	SEGMENT PARA USE32 PUBLIC 'CODE'
_TEXT	ENDS
;	COMDAT ?Add@?$CXTPCalendarPtrCollectionT@VCXTPCalendarViewEvent@@@@UAEXPAVCXTPCalendarViewEvent@@@Z
_TEXT	SEGMENT PARA USE32 PUBLIC 'CODE'
_TEXT	ENDS
;	COMDAT ?SetAt@?$CXTPCalendarPtrCollectionT@VCXTPCalendarViewEvent@@@@UAEXHPAVCXTPCalendarViewEvent@@@Z
_TEXT	SEGMENT PARA USE32 PUBLIC 'CODE'
_TEXT	ENDS
;	COMDAT ?Find@?$CXTPCalendarPtrCollectionT@VCXTPCalendarViewEvent@@@@UAEHPBVCXTPCalendarViewEvent@@@Z
_TEXT	SEGMENT PARA USE32 PUBLIC 'CODE'
_TEXT	ENDS
;	COMDAT ?InsertAt@?$CXTPCalendarPtrCollectionT@VCXTPCalendarViewEvent@@@@UAEXHPAVCXTPCalendarViewEvent@@@Z
_TEXT	SEGMENT PARA USE32 PUBLIC 'CODE'
_TEXT	ENDS
;	COMDAT ?Append@?$CXTPCalendarPtrCollectionT@VCXTPCalendarViewEvent@@@@UAEXPAV1@@Z
_TEXT	SEGMENT PARA USE32 PUBLIC 'CODE'
_TEXT	ENDS
;	COMDAT ?SetSize@?$CXTPCalendarPtrCollectionT@VCXTPCalendarViewEvent@@@@UAEXH@Z
_TEXT	SEGMENT PARA USE32 PUBLIC 'CODE'
_TEXT	ENDS
;	COMDAT ?GetAt@?$CXTPCalendarPtrCollectionT@VCXTPCalendarViewEvent@@@@UBEPAVCXTPCalendarViewEvent@@HH@Z
_TEXT	SEGMENT PARA USE32 PUBLIC 'CODE'
_TEXT	ENDS
;	COMDAT ?GetAt@?$CXTPCalendarPtrCollectionT@VCXTPCalendarViewEvent@@@@UBEPAVCXTPCalendarViewEvent@@H@Z
_TEXT	SEGMENT PARA USE32 PUBLIC 'CODE'
_TEXT	ENDS
;	COMDAT ?RemoveAt@?$CXTPCalendarPtrCollectionT@VCXTPCalendarViewEvent@@@@UAEXH@Z
_TEXT	SEGMENT PARA USE32 PUBLIC 'CODE'
_TEXT	ENDS
;	COMDAT ?Remove@?$CXTPCalendarPtrCollectionT@VCXTPCalendarViewEvent@@@@UAEXPAVCXTPCalendarViewEvent@@@Z
_TEXT	SEGMENT PARA USE32 PUBLIC 'CODE'
_TEXT	ENDS
;	COMDAT ?RemoveAll@?$CXTPCalendarPtrCollectionT@VCXTPCalendarViewEvent@@@@UAEXXZ
_TEXT	SEGMENT PARA USE32 PUBLIC 'CODE'
_TEXT	ENDS
;	COMDAT ?AddTail@?$CList@PAVCXTPCalendarViewPart@@PAV1@@@QAEPAU__POSITION@@PAVCXTPCalendarViewPart@@@Z
_TEXT	SEGMENT PARA USE32 PUBLIC 'CODE'
_TEXT	ENDS
;	COMDAT ?RemoveAt@?$CList@PAVCXTPCalendarViewPart@@PAV1@@@QAEXPAU__POSITION@@@Z
_TEXT	SEGMENT PARA USE32 PUBLIC 'CODE'
_TEXT	ENDS
;	COMDAT ?Find@?$CList@PAVCXTPCalendarViewPart@@PAV1@@@QBEPAU__POSITION@@PAVCXTPCalendarViewPart@@PAU2@@Z
_TEXT	SEGMENT PARA USE32 PUBLIC 'CODE'
_TEXT	ENDS
;	COMDAT ??1?$CList@PAVCXTPCalendarViewPart@@PAV1@@@UAE@XZ
_TEXT	SEGMENT PARA USE32 PUBLIC 'CODE'
_TEXT	ENDS
;	COMDAT ?Serialize@?$CList@PAVCXTPCalendarViewPart@@PAV1@@@UAEXAAVCArchive@@@Z
_TEXT	SEGMENT PARA USE32 PUBLIC 'CODE'
_TEXT	ENDS
;	COMDAT ??1?$CArray@V?$CXTPSmartPtrInternalT@VCXTPCalendarSchedule@@@@AAV1@@@UAE@XZ
_TEXT	SEGMENT PARA USE32 PUBLIC 'CODE'
_TEXT	ENDS
;	COMDAT ?Serialize@?$CArray@V?$CXTPSmartPtrInternalT@VCXTPCalendarSchedule@@@@AAV1@@@UAEXAAVCArchive@@@Z
_TEXT	SEGMENT PARA USE32 PUBLIC 'CODE'
_TEXT	ENDS
;	COMDAT ??1?$CXTPCalendarPtrCollectionT@VCXTPCalendarSchedule@@@@UAE@XZ
_TEXT	SEGMENT PARA USE32 PUBLIC 'CODE'
_TEXT	ENDS
;	COMDAT ?GetCount@?$CXTPCalendarPtrCollectionT@VCXTPCalendarSchedule@@@@UBEHXZ
_TEXT	SEGMENT PARA USE32 PUBLIC 'CODE'
_TEXT	ENDS
;	COMDAT ?Add@?$CXTPCalendarPtrCollectionT@VCXTPCalendarSchedule@@@@UAEXPAVCXTPCalendarSchedule@@H@Z
_TEXT	SEGMENT PARA USE32 PUBLIC 'CODE'
_TEXT	ENDS
;	COMDAT ?Add@?$CXTPCalendarPtrCollectionT@VCXTPCalendarSchedule@@@@UAEXPAVCXTPCalendarSchedule@@@Z
_TEXT	SEGMENT PARA USE32 PUBLIC 'CODE'
_TEXT	ENDS
;	COMDAT ?SetAt@?$CXTPCalendarPtrCollectionT@VCXTPCalendarSchedule@@@@UAEXHPAVCXTPCalendarSchedule@@@Z
_TEXT	SEGMENT PARA USE32 PUBLIC 'CODE'
_TEXT	ENDS
;	COMDAT ?Find@?$CXTPCalendarPtrCollectionT@VCXTPCalendarSchedule@@@@UAEHPBVCXTPCalendarSchedule@@@Z
_TEXT	SEGMENT PARA USE32 PUBLIC 'CODE'
_TEXT	ENDS
;	COMDAT ?InsertAt@?$CXTPCalendarPtrCollectionT@VCXTPCalendarSchedule@@@@UAEXHPAVCXTPCalendarSchedule@@@Z
_TEXT	SEGMENT PARA USE32 PUBLIC 'CODE'
_TEXT	ENDS
;	COMDAT ?Append@?$CXTPCalendarPtrCollectionT@VCXTPCalendarSchedule@@@@UAEXPAV1@@Z
_TEXT	SEGMENT PARA USE32 PUBLIC 'CODE'
_TEXT	ENDS
;	COMDAT ?SetSize@?$CXTPCalendarPtrCollectionT@VCXTPCalendarSchedule@@@@UAEXH@Z
_TEXT	SEGMENT PARA USE32 PUBLIC 'CODE'
_TEXT	ENDS
;	COMDAT ?GetAt@?$CXTPCalendarPtrCollectionT@VCXTPCalendarSchedule@@@@UBEPAVCXTPCalendarSchedule@@HH@Z
_TEXT	SEGMENT PARA USE32 PUBLIC 'CODE'
_TEXT	ENDS
;	COMDAT ?GetAt@?$CXTPCalendarPtrCollectionT@VCXTPCalendarSchedule@@@@UBEPAVCXTPCalendarSchedule@@H@Z
_TEXT	SEGMENT PARA USE32 PUBLIC 'CODE'
_TEXT	ENDS
;	COMDAT ?RemoveAt@?$CXTPCalendarPtrCollectionT@VCXTPCalendarSchedule@@@@UAEXH@Z
_TEXT	SEGMENT PARA USE32 PUBLIC 'CODE'
_TEXT	ENDS
;	COMDAT ?Remove@?$CXTPCalendarPtrCollectionT@VCXTPCalendarSchedule@@@@UAEXPAVCXTPCalendarSchedule@@@Z
_TEXT	SEGMENT PARA USE32 PUBLIC 'CODE'
_TEXT	ENDS
;	COMDAT ?RemoveAll@?$CXTPCalendarPtrCollectionT@VCXTPCalendarSchedule@@@@UAEXXZ
_TEXT	SEGMENT PARA USE32 PUBLIC 'CODE'
_TEXT	ENDS
;	COMDAT ??1?$CArray@V?$CXTPSmartPtrInternalT@VCXTPCalendarResource@@@@AAV1@@@UAE@XZ
_TEXT	SEGMENT PARA USE32 PUBLIC 'CODE'
_TEXT	ENDS
;	COMDAT ?Serialize@?$CArray@V?$CXTPSmartPtrInternalT@VCXTPCalendarResource@@@@AAV1@@@UAEXAAVCArchive@@@Z
_TEXT	SEGMENT PARA USE32 PUBLIC 'CODE'
_TEXT	ENDS
;	COMDAT ??1?$CXTPCalendarPtrCollectionT@VCXTPCalendarResource@@@@UAE@XZ
_TEXT	SEGMENT PARA USE32 PUBLIC 'CODE'
_TEXT	ENDS
;	COMDAT ?GetCount@?$CXTPCalendarPtrCollectionT@VCXTPCalendarResource@@@@UBEHXZ
_TEXT	SEGMENT PARA USE32 PUBLIC 'CODE'
_TEXT	ENDS
;	COMDAT ?Add@?$CXTPCalendarPtrCollectionT@VCXTPCalendarResource@@@@UAEXPAVCXTPCalendarResource@@H@Z
_TEXT	SEGMENT PARA USE32 PUBLIC 'CODE'
_TEXT	ENDS
;	COMDAT ?Add@?$CXTPCalendarPtrCollectionT@VCXTPCalendarResource@@@@UAEXPAVCXTPCalendarResource@@@Z
_TEXT	SEGMENT PARA USE32 PUBLIC 'CODE'
_TEXT	ENDS
;	COMDAT ?SetAt@?$CXTPCalendarPtrCollectionT@VCXTPCalendarResource@@@@UAEXHPAVCXTPCalendarResource@@@Z
_TEXT	SEGMENT PARA USE32 PUBLIC 'CODE'
_TEXT	ENDS
;	COMDAT ?Find@?$CXTPCalendarPtrCollectionT@VCXTPCalendarResource@@@@UAEHPBVCXTPCalendarResource@@@Z
_TEXT	SEGMENT PARA USE32 PUBLIC 'CODE'
_TEXT	ENDS
;	COMDAT ?InsertAt@?$CXTPCalendarPtrCollectionT@VCXTPCalendarResource@@@@UAEXHPAVCXTPCalendarResource@@@Z
_TEXT	SEGMENT PARA USE32 PUBLIC 'CODE'
_TEXT	ENDS
;	COMDAT ?Append@?$CXTPCalendarPtrCollectionT@VCXTPCalendarResource@@@@UAEXPAV1@@Z
_TEXT	SEGMENT PARA USE32 PUBLIC 'CODE'
_TEXT	ENDS
;	COMDAT ?SetSize@?$CXTPCalendarPtrCollectionT@VCXTPCalendarResource@@@@UAEXH@Z
_TEXT	SEGMENT PARA USE32 PUBLIC 'CODE'
_TEXT	ENDS
;	COMDAT ?GetAt@?$CXTPCalendarPtrCollectionT@VCXTPCalendarResource@@@@UBEPAVCXTPCalendarResource@@HH@Z
_TEXT	SEGMENT PARA USE32 PUBLIC 'CODE'
_TEXT	ENDS
;	COMDAT ?GetAt@?$CXTPCalendarPtrCollectionT@VCXTPCalendarResource@@@@UBEPAVCXTPCalendarResource@@H@Z
_TEXT	SEGMENT PARA USE32 PUBLIC 'CODE'
_TEXT	ENDS
;	COMDAT ?RemoveAt@?$CXTPCalendarPtrCollectionT@VCXTPCalendarResource@@@@UAEXH@Z
_TEXT	SEGMENT PARA USE32 PUBLIC 'CODE'
_TEXT	ENDS
;	COMDAT ?Remove@?$CXTPCalendarPtrCollectionT@VCXTPCalendarResource@@@@UAEXPAVCXTPCalendarResource@@@Z
_TEXT	SEGMENT PARA USE32 PUBLIC 'CODE'
_TEXT	ENDS
;	COMDAT ?RemoveAll@?$CXTPCalendarPtrCollectionT@VCXTPCalendarResource@@@@UAEXXZ
_TEXT	SEGMENT PARA USE32 PUBLIC 'CODE'
_TEXT	ENDS
;	COMDAT ??1?$CArray@V?$CXTPSmartPtrInternalT@VCXTPCalendarTimeZone@@@@AAV1@@@UAE@XZ
_TEXT	SEGMENT PARA USE32 PUBLIC 'CODE'
_TEXT	ENDS
;	COMDAT ?Serialize@?$CArray@V?$CXTPSmartPtrInternalT@VCXTPCalendarTimeZone@@@@AAV1@@@UAEXAAVCArchive@@@Z
_TEXT	SEGMENT PARA USE32 PUBLIC 'CODE'
_TEXT	ENDS
;	COMDAT ??1?$CXTPCalendarPtrCollectionT@VCXTPCalendarTimeZone@@@@UAE@XZ
_TEXT	SEGMENT PARA USE32 PUBLIC 'CODE'
_TEXT	ENDS
;	COMDAT ?GetCount@?$CXTPCalendarPtrCollectionT@VCXTPCalendarTimeZone@@@@UBEHXZ
_TEXT	SEGMENT PARA USE32 PUBLIC 'CODE'
_TEXT	ENDS
;	COMDAT ?Add@?$CXTPCalendarPtrCollectionT@VCXTPCalendarTimeZone@@@@UAEXPAVCXTPCalendarTimeZone@@H@Z
_TEXT	SEGMENT PARA USE32 PUBLIC 'CODE'
_TEXT	ENDS
;	COMDAT ?Add@?$CXTPCalendarPtrCollectionT@VCXTPCalendarTimeZone@@@@UAEXPAVCXTPCalendarTimeZone@@@Z
_TEXT	SEGMENT PARA USE32 PUBLIC 'CODE'
_TEXT	ENDS
;	COMDAT ?SetAt@?$CXTPCalendarPtrCollectionT@VCXTPCalendarTimeZone@@@@UAEXHPAVCXTPCalendarTimeZone@@@Z
_TEXT	SEGMENT PARA USE32 PUBLIC 'CODE'
_TEXT	ENDS
;	COMDAT ?Find@?$CXTPCalendarPtrCollectionT@VCXTPCalendarTimeZone@@@@UAEHPBVCXTPCalendarTimeZone@@@Z
_TEXT	SEGMENT PARA USE32 PUBLIC 'CODE'
_TEXT	ENDS
;	COMDAT ?InsertAt@?$CXTPCalendarPtrCollectionT@VCXTPCalendarTimeZone@@@@UAEXHPAVCXTPCalendarTimeZone@@@Z
_TEXT	SEGMENT PARA USE32 PUBLIC 'CODE'
_TEXT	ENDS
;	COMDAT ?Append@?$CXTPCalendarPtrCollectionT@VCXTPCalendarTimeZone@@@@UAEXPAV1@@Z
_TEXT	SEGMENT PARA USE32 PUBLIC 'CODE'
_TEXT	ENDS
;	COMDAT ?SetSize@?$CXTPCalendarPtrCollectionT@VCXTPCalendarTimeZone@@@@UAEXH@Z
_TEXT	SEGMENT PARA USE32 PUBLIC 'CODE'
_TEXT	ENDS
;	COMDAT ?GetAt@?$CXTPCalendarPtrCollectionT@VCXTPCalendarTimeZone@@@@UBEPAVCXTPCalendarTimeZone@@HH@Z
_TEXT	SEGMENT PARA USE32 PUBLIC 'CODE'
_TEXT	ENDS
;	COMDAT ?GetAt@?$CXTPCalendarPtrCollectionT@VCXTPCalendarTimeZone@@@@UBEPAVCXTPCalendarTimeZone@@H@Z
_TEXT	SEGMENT PARA USE32 PUBLIC 'CODE'
_TEXT	ENDS
;	COMDAT ?RemoveAt@?$CXTPCalendarPtrCollectionT@VCXTPCalendarTimeZone@@@@UAEXH@Z
_TEXT	SEGMENT PARA USE32 PUBLIC 'CODE'
_TEXT	ENDS
;	COMDAT ?Remove@?$CXTPCalendarPtrCollectionT@VCXTPCalendarTimeZone@@@@UAEXPAVCXTPCalendarTimeZone@@@Z
_TEXT	SEGMENT PARA USE32 PUBLIC 'CODE'
_TEXT	ENDS
;	COMDAT ?RemoveAll@?$CXTPCalendarPtrCollectionT@VCXTPCalendarTimeZone@@@@UAEXXZ
_TEXT	SEGMENT PARA USE32 PUBLIC 'CODE'
_TEXT	ENDS
;	COMDAT ??1?$CArray@V?$CXTPSmartPtrInternalT@VCXTPCalendarDayViewEvent@@@@AAV1@@@UAE@XZ
_TEXT	SEGMENT PARA USE32 PUBLIC 'CODE'
_TEXT	ENDS
;	COMDAT ?Serialize@?$CArray@V?$CXTPSmartPtrInternalT@VCXTPCalendarDayViewEvent@@@@AAV1@@@UAEXAAVCArchive@@@Z
_TEXT	SEGMENT PARA USE32 PUBLIC 'CODE'
_TEXT	ENDS
;	COMDAT ??1?$CXTPCalendarPtrCollectionT@VCXTPCalendarDayViewEvent@@@@UAE@XZ
_TEXT	SEGMENT PARA USE32 PUBLIC 'CODE'
_TEXT	ENDS
;	COMDAT ?GetCount@?$CXTPCalendarPtrCollectionT@VCXTPCalendarDayViewEvent@@@@UBEHXZ
_TEXT	SEGMENT PARA USE32 PUBLIC 'CODE'
_TEXT	ENDS
;	COMDAT ?Add@?$CXTPCalendarPtrCollectionT@VCXTPCalendarDayViewEvent@@@@UAEXPAVCXTPCalendarDayViewEvent@@H@Z
_TEXT	SEGMENT PARA USE32 PUBLIC 'CODE'
_TEXT	ENDS
;	COMDAT ?Add@?$CXTPCalendarPtrCollectionT@VCXTPCalendarDayViewEvent@@@@UAEXPAVCXTPCalendarDayViewEvent@@@Z
_TEXT	SEGMENT PARA USE32 PUBLIC 'CODE'
_TEXT	ENDS
;	COMDAT ?SetAt@?$CXTPCalendarPtrCollectionT@VCXTPCalendarDayViewEvent@@@@UAEXHPAVCXTPCalendarDayViewEvent@@@Z
_TEXT	SEGMENT PARA USE32 PUBLIC 'CODE'
_TEXT	ENDS
;	COMDAT ?Find@?$CXTPCalendarPtrCollectionT@VCXTPCalendarDayViewEvent@@@@UAEHPBVCXTPCalendarDayViewEvent@@@Z
_TEXT	SEGMENT PARA USE32 PUBLIC 'CODE'
_TEXT	ENDS
;	COMDAT ?InsertAt@?$CXTPCalendarPtrCollectionT@VCXTPCalendarDayViewEvent@@@@UAEXHPAVCXTPCalendarDayViewEvent@@@Z
_TEXT	SEGMENT PARA USE32 PUBLIC 'CODE'
_TEXT	ENDS
;	COMDAT ?Append@?$CXTPCalendarPtrCollectionT@VCXTPCalendarDayViewEvent@@@@UAEXPAV1@@Z
_TEXT	SEGMENT PARA USE32 PUBLIC 'CODE'
_TEXT	ENDS
;	COMDAT ?SetSize@?$CXTPCalendarPtrCollectionT@VCXTPCalendarDayViewEvent@@@@UAEXH@Z
_TEXT	SEGMENT PARA USE32 PUBLIC 'CODE'
_TEXT	ENDS
;	COMDAT ?GetAt@?$CXTPCalendarPtrCollectionT@VCXTPCalendarDayViewEvent@@@@UBEPAVCXTPCalendarDayViewEvent@@HH@Z
_TEXT	SEGMENT PARA USE32 PUBLIC 'CODE'
_TEXT	ENDS
;	COMDAT ?GetAt@?$CXTPCalendarPtrCollectionT@VCXTPCalendarDayViewEvent@@@@UBEPAVCXTPCalendarDayViewEvent@@H@Z
_TEXT	SEGMENT PARA USE32 PUBLIC 'CODE'
_TEXT	ENDS
;	COMDAT ?RemoveAt@?$CXTPCalendarPtrCollectionT@VCXTPCalendarDayViewEvent@@@@UAEXH@Z
_TEXT	SEGMENT PARA USE32 PUBLIC 'CODE'
_TEXT	ENDS
;	COMDAT ?Remove@?$CXTPCalendarPtrCollectionT@VCXTPCalendarDayViewEvent@@@@UAEXPAVCXTPCalendarDayViewEvent@@@Z
_TEXT	SEGMENT PARA USE32 PUBLIC 'CODE'
_TEXT	ENDS
;	COMDAT ?RemoveAll@?$CXTPCalendarPtrCollectionT@VCXTPCalendarDayViewEvent@@@@UAEXXZ
_TEXT	SEGMENT PARA USE32 PUBLIC 'CODE'
_TEXT	ENDS
;	COMDAT ??1?$CArray@V?$CXTPSmartPtrInternalT@VCXTPCalendarDayViewGroup@@@@AAV1@@@UAE@XZ
_TEXT	SEGMENT PARA USE32 PUBLIC 'CODE'
_TEXT	ENDS
;	COMDAT ?Serialize@?$CArray@V?$CXTPSmartPtrInternalT@VCXTPCalendarDayViewGroup@@@@AAV1@@@UAEXAAVCArchive@@@Z
_TEXT	SEGMENT PARA USE32 PUBLIC 'CODE'
_TEXT	ENDS
;	COMDAT ??1?$CXTPCalendarPtrCollectionT@VCXTPCalendarDayViewGroup@@@@UAE@XZ
_TEXT	SEGMENT PARA USE32 PUBLIC 'CODE'
_TEXT	ENDS
;	COMDAT ?GetCount@?$CXTPCalendarPtrCollectionT@VCXTPCalendarDayViewGroup@@@@UBEHXZ
_TEXT	SEGMENT PARA USE32 PUBLIC 'CODE'
_TEXT	ENDS
;	COMDAT ?Add@?$CXTPCalendarPtrCollectionT@VCXTPCalendarDayViewGroup@@@@UAEXPAVCXTPCalendarDayViewGroup@@H@Z
_TEXT	SEGMENT PARA USE32 PUBLIC 'CODE'
_TEXT	ENDS
;	COMDAT ?Add@?$CXTPCalendarPtrCollectionT@VCXTPCalendarDayViewGroup@@@@UAEXPAVCXTPCalendarDayViewGroup@@@Z
_TEXT	SEGMENT PARA USE32 PUBLIC 'CODE'
_TEXT	ENDS
;	COMDAT ?SetAt@?$CXTPCalendarPtrCollectionT@VCXTPCalendarDayViewGroup@@@@UAEXHPAVCXTPCalendarDayViewGroup@@@Z
_TEXT	SEGMENT PARA USE32 PUBLIC 'CODE'
_TEXT	ENDS
;	COMDAT ?Find@?$CXTPCalendarPtrCollectionT@VCXTPCalendarDayViewGroup@@@@UAEHPBVCXTPCalendarDayViewGroup@@@Z
_TEXT	SEGMENT PARA USE32 PUBLIC 'CODE'
_TEXT	ENDS
;	COMDAT ?InsertAt@?$CXTPCalendarPtrCollectionT@VCXTPCalendarDayViewGroup@@@@UAEXHPAVCXTPCalendarDayViewGroup@@@Z
_TEXT	SEGMENT PARA USE32 PUBLIC 'CODE'
_TEXT	ENDS
;	COMDAT ?Append@?$CXTPCalendarPtrCollectionT@VCXTPCalendarDayViewGroup@@@@UAEXPAV1@@Z
_TEXT	SEGMENT PARA USE32 PUBLIC 'CODE'
_TEXT	ENDS
;	COMDAT ?SetSize@?$CXTPCalendarPtrCollectionT@VCXTPCalendarDayViewGroup@@@@UAEXH@Z
_TEXT	SEGMENT PARA USE32 PUBLIC 'CODE'
_TEXT	ENDS
;	COMDAT ?GetAt@?$CXTPCalendarPtrCollectionT@VCXTPCalendarDayViewGroup@@@@UBEPAVCXTPCalendarDayViewGroup@@HH@Z
_TEXT	SEGMENT PARA USE32 PUBLIC 'CODE'
_TEXT	ENDS
;	COMDAT ?GetAt@?$CXTPCalendarPtrCollectionT@VCXTPCalendarDayViewGroup@@@@UBEPAVCXTPCalendarDayViewGroup@@H@Z
_TEXT	SEGMENT PARA USE32 PUBLIC 'CODE'
_TEXT	ENDS
;	COMDAT ?RemoveAt@?$CXTPCalendarPtrCollectionT@VCXTPCalendarDayViewGroup@@@@UAEXH@Z
_TEXT	SEGMENT PARA USE32 PUBLIC 'CODE'
_TEXT	ENDS
;	COMDAT ?Remove@?$CXTPCalendarPtrCollectionT@VCXTPCalendarDayViewGroup@@@@UAEXPAVCXTPCalendarDayViewGroup@@@Z
_TEXT	SEGMENT PARA USE32 PUBLIC 'CODE'
_TEXT	ENDS
;	COMDAT ?RemoveAll@?$CXTPCalendarPtrCollectionT@VCXTPCalendarDayViewGroup@@@@UAEXXZ
_TEXT	SEGMENT PARA USE32 PUBLIC 'CODE'
_TEXT	ENDS
;	COMDAT ??1?$CArray@V?$CXTPSmartPtrInternalT@VCXTPCalendarDayViewDay@@@@AAV1@@@UAE@XZ
_TEXT	SEGMENT PARA USE32 PUBLIC 'CODE'
_TEXT	ENDS
;	COMDAT ?Serialize@?$CArray@V?$CXTPSmartPtrInternalT@VCXTPCalendarDayViewDay@@@@AAV1@@@UAEXAAVCArchive@@@Z
_TEXT	SEGMENT PARA USE32 PUBLIC 'CODE'
_TEXT	ENDS
;	COMDAT ??1?$CXTPCalendarPtrCollectionT@VCXTPCalendarDayViewDay@@@@UAE@XZ
_TEXT	SEGMENT PARA USE32 PUBLIC 'CODE'
_TEXT	ENDS
;	COMDAT ?GetCount@?$CXTPCalendarPtrCollectionT@VCXTPCalendarDayViewDay@@@@UBEHXZ
_TEXT	SEGMENT PARA USE32 PUBLIC 'CODE'
_TEXT	ENDS
;	COMDAT ?Add@?$CXTPCalendarPtrCollectionT@VCXTPCalendarDayViewDay@@@@UAEXPAVCXTPCalendarDayViewDay@@H@Z
_TEXT	SEGMENT PARA USE32 PUBLIC 'CODE'
_TEXT	ENDS
;	COMDAT ?Add@?$CXTPCalendarPtrCollectionT@VCXTPCalendarDayViewDay@@@@UAEXPAVCXTPCalendarDayViewDay@@@Z
_TEXT	SEGMENT PARA USE32 PUBLIC 'CODE'
_TEXT	ENDS
;	COMDAT ?SetAt@?$CXTPCalendarPtrCollectionT@VCXTPCalendarDayViewDay@@@@UAEXHPAVCXTPCalendarDayViewDay@@@Z
_TEXT	SEGMENT PARA USE32 PUBLIC 'CODE'
_TEXT	ENDS
;	COMDAT ?Find@?$CXTPCalendarPtrCollectionT@VCXTPCalendarDayViewDay@@@@UAEHPBVCXTPCalendarDayViewDay@@@Z
_TEXT	SEGMENT PARA USE32 PUBLIC 'CODE'
_TEXT	ENDS
;	COMDAT ?InsertAt@?$CXTPCalendarPtrCollectionT@VCXTPCalendarDayViewDay@@@@UAEXHPAVCXTPCalendarDayViewDay@@@Z
_TEXT	SEGMENT PARA USE32 PUBLIC 'CODE'
_TEXT	ENDS
;	COMDAT ?Append@?$CXTPCalendarPtrCollectionT@VCXTPCalendarDayViewDay@@@@UAEXPAV1@@Z
_TEXT	SEGMENT PARA USE32 PUBLIC 'CODE'
_TEXT	ENDS
;	COMDAT ?SetSize@?$CXTPCalendarPtrCollectionT@VCXTPCalendarDayViewDay@@@@UAEXH@Z
_TEXT	SEGMENT PARA USE32 PUBLIC 'CODE'
_TEXT	ENDS
;	COMDAT ?GetAt@?$CXTPCalendarPtrCollectionT@VCXTPCalendarDayViewDay@@@@UBEPAVCXTPCalendarDayViewDay@@HH@Z
_TEXT	SEGMENT PARA USE32 PUBLIC 'CODE'
_TEXT	ENDS
;	COMDAT ?GetAt@?$CXTPCalendarPtrCollectionT@VCXTPCalendarDayViewDay@@@@UBEPAVCXTPCalendarDayViewDay@@H@Z
_TEXT	SEGMENT PARA USE32 PUBLIC 'CODE'
_TEXT	ENDS
;	COMDAT ?RemoveAt@?$CXTPCalendarPtrCollectionT@VCXTPCalendarDayViewDay@@@@UAEXH@Z
_TEXT	SEGMENT PARA USE32 PUBLIC 'CODE'
_TEXT	ENDS
;	COMDAT ?Remove@?$CXTPCalendarPtrCollectionT@VCXTPCalendarDayViewDay@@@@UAEXPAVCXTPCalendarDayViewDay@@@Z
_TEXT	SEGMENT PARA USE32 PUBLIC 'CODE'
_TEXT	ENDS
;	COMDAT ?RemoveAll@?$CXTPCalendarPtrCollectionT@VCXTPCalendarDayViewDay@@@@UAEXXZ
_TEXT	SEGMENT PARA USE32 PUBLIC 'CODE'
_TEXT	ENDS
;	COMDAT ??1?$CArray@V?$CXTPSmartPtrInternalT@VCXTPCalendarCaptionBarThemePart@@@@AAV1@@@UAE@XZ
_TEXT	SEGMENT PARA USE32 PUBLIC 'CODE'
_TEXT	ENDS
;	COMDAT ?Serialize@?$CArray@V?$CXTPSmartPtrInternalT@VCXTPCalendarCaptionBarThemePart@@@@AAV1@@@UAEXAAVCArchive@@@Z
_TEXT	SEGMENT PARA USE32 PUBLIC 'CODE'
_TEXT	ENDS
;	COMDAT ??1?$CXTPCalendarPtrCollectionT@VCXTPCalendarCaptionBarThemePart@@@@UAE@XZ
_TEXT	SEGMENT PARA USE32 PUBLIC 'CODE'
_TEXT	ENDS
;	COMDAT ?GetCount@?$CXTPCalendarPtrCollectionT@VCXTPCalendarCaptionBarThemePart@@@@UBEHXZ
_TEXT	SEGMENT PARA USE32 PUBLIC 'CODE'
_TEXT	ENDS
;	COMDAT ?Add@?$CXTPCalendarPtrCollectionT@VCXTPCalendarCaptionBarThemePart@@@@UAEXPAVCXTPCalendarCaptionBarThemePart@@H@Z
_TEXT	SEGMENT PARA USE32 PUBLIC 'CODE'
_TEXT	ENDS
;	COMDAT ?Add@?$CXTPCalendarPtrCollectionT@VCXTPCalendarCaptionBarThemePart@@@@UAEXPAVCXTPCalendarCaptionBarThemePart@@@Z
_TEXT	SEGMENT PARA USE32 PUBLIC 'CODE'
_TEXT	ENDS
;	COMDAT ?SetAt@?$CXTPCalendarPtrCollectionT@VCXTPCalendarCaptionBarThemePart@@@@UAEXHPAVCXTPCalendarCaptionBarThemePart@@@Z
_TEXT	SEGMENT PARA USE32 PUBLIC 'CODE'
_TEXT	ENDS
;	COMDAT ?Find@?$CXTPCalendarPtrCollectionT@VCXTPCalendarCaptionBarThemePart@@@@UAEHPBVCXTPCalendarCaptionBarThemePart@@@Z
_TEXT	SEGMENT PARA USE32 PUBLIC 'CODE'
_TEXT	ENDS
;	COMDAT ?InsertAt@?$CXTPCalendarPtrCollectionT@VCXTPCalendarCaptionBarThemePart@@@@UAEXHPAVCXTPCalendarCaptionBarThemePart@@@Z
_TEXT	SEGMENT PARA USE32 PUBLIC 'CODE'
_TEXT	ENDS
;	COMDAT ?Append@?$CXTPCalendarPtrCollectionT@VCXTPCalendarCaptionBarThemePart@@@@UAEXPAV1@@Z
_TEXT	SEGMENT PARA USE32 PUBLIC 'CODE'
_TEXT	ENDS
;	COMDAT ?SetSize@?$CXTPCalendarPtrCollectionT@VCXTPCalendarCaptionBarThemePart@@@@UAEXH@Z
_TEXT	SEGMENT PARA USE32 PUBLIC 'CODE'
_TEXT	ENDS
;	COMDAT ?GetAt@?$CXTPCalendarPtrCollectionT@VCXTPCalendarCaptionBarThemePart@@@@UBEPAVCXTPCalendarCaptionBarThemePart@@HH@Z
_TEXT	SEGMENT PARA USE32 PUBLIC 'CODE'
_TEXT	ENDS
;	COMDAT ?GetAt@?$CXTPCalendarPtrCollectionT@VCXTPCalendarCaptionBarThemePart@@@@UBEPAVCXTPCalendarCaptionBarThemePart@@H@Z
_TEXT	SEGMENT PARA USE32 PUBLIC 'CODE'
_TEXT	ENDS
;	COMDAT ?RemoveAt@?$CXTPCalendarPtrCollectionT@VCXTPCalendarCaptionBarThemePart@@@@UAEXH@Z
_TEXT	SEGMENT PARA USE32 PUBLIC 'CODE'
_TEXT	ENDS
;	COMDAT ?Remove@?$CXTPCalendarPtrCollectionT@VCXTPCalendarCaptionBarThemePart@@@@UAEXPAVCXTPCalendarCaptionBarThemePart@@@Z
_TEXT	SEGMENT PARA USE32 PUBLIC 'CODE'
_TEXT	ENDS
;	COMDAT ?RemoveAll@?$CXTPCalendarPtrCollectionT@VCXTPCalendarCaptionBarThemePart@@@@UAEXXZ
_TEXT	SEGMENT PARA USE32 PUBLIC 'CODE'
_TEXT	ENDS
;	COMDAT ??1?$CMap@KKHH@@UAE@XZ
_TEXT	SEGMENT PARA USE32 PUBLIC 'CODE'
_TEXT	ENDS
;	COMDAT ?Serialize@?$CMap@KKHH@@UAEXAAVCArchive@@@Z
_TEXT	SEGMENT PARA USE32 PUBLIC 'CODE'
_TEXT	ENDS
;	COMDAT ??1?$CMap@KKV?$CXTPSmartPtrInternalT@VCCmdTarget@@@@AAV1@@@UAE@XZ
_TEXT	SEGMENT PARA USE32 PUBLIC 'CODE'
_TEXT	ENDS
;	COMDAT ?Serialize@?$CMap@KKV?$CXTPSmartPtrInternalT@VCCmdTarget@@@@AAV1@@@UAEXAAVCArchive@@@Z
_TEXT	SEGMENT PARA USE32 PUBLIC 'CODE'
_TEXT	ENDS
;	COMDAT ??1?$CMap@KKPAVCXTPCalendarEvent@@PAV1@@@UAE@XZ
_TEXT	SEGMENT PARA USE32 PUBLIC 'CODE'
_TEXT	ENDS
;	COMDAT ?Serialize@?$CMap@KKPAVCXTPCalendarEvent@@PAV1@@@UAEXAAVCArchive@@@Z
_TEXT	SEGMENT PARA USE32 PUBLIC 'CODE'
_TEXT	ENDS
;	COMDAT ??1?$CArray@V?$CXTPSmartPtrInternalT@VCXTPCalendarMonthViewEvent@@@@AAV1@@@UAE@XZ
_TEXT	SEGMENT PARA USE32 PUBLIC 'CODE'
_TEXT	ENDS
;	COMDAT ?Serialize@?$CArray@V?$CXTPSmartPtrInternalT@VCXTPCalendarMonthViewEvent@@@@AAV1@@@UAEXAAVCArchive@@@Z
_TEXT	SEGMENT PARA USE32 PUBLIC 'CODE'
_TEXT	ENDS
;	COMDAT ??1?$CXTPCalendarPtrCollectionT@VCXTPCalendarMonthViewEvent@@@@UAE@XZ
_TEXT	SEGMENT PARA USE32 PUBLIC 'CODE'
_TEXT	ENDS
;	COMDAT ?GetCount@?$CXTPCalendarPtrCollectionT@VCXTPCalendarMonthViewEvent@@@@UBEHXZ
_TEXT	SEGMENT PARA USE32 PUBLIC 'CODE'
_TEXT	ENDS
;	COMDAT ?Add@?$CXTPCalendarPtrCollectionT@VCXTPCalendarMonthViewEvent@@@@UAEXPAVCXTPCalendarMonthViewEvent@@H@Z
_TEXT	SEGMENT PARA USE32 PUBLIC 'CODE'
_TEXT	ENDS
;	COMDAT ?Add@?$CXTPCalendarPtrCollectionT@VCXTPCalendarMonthViewEvent@@@@UAEXPAVCXTPCalendarMonthViewEvent@@@Z
_TEXT	SEGMENT PARA USE32 PUBLIC 'CODE'
_TEXT	ENDS
;	COMDAT ?SetAt@?$CXTPCalendarPtrCollectionT@VCXTPCalendarMonthViewEvent@@@@UAEXHPAVCXTPCalendarMonthViewEvent@@@Z
_TEXT	SEGMENT PARA USE32 PUBLIC 'CODE'
_TEXT	ENDS
;	COMDAT ?Find@?$CXTPCalendarPtrCollectionT@VCXTPCalendarMonthViewEvent@@@@UAEHPBVCXTPCalendarMonthViewEvent@@@Z
_TEXT	SEGMENT PARA USE32 PUBLIC 'CODE'
_TEXT	ENDS
;	COMDAT ?InsertAt@?$CXTPCalendarPtrCollectionT@VCXTPCalendarMonthViewEvent@@@@UAEXHPAVCXTPCalendarMonthViewEvent@@@Z
_TEXT	SEGMENT PARA USE32 PUBLIC 'CODE'
_TEXT	ENDS
;	COMDAT ?Append@?$CXTPCalendarPtrCollectionT@VCXTPCalendarMonthViewEvent@@@@UAEXPAV1@@Z
_TEXT	SEGMENT PARA USE32 PUBLIC 'CODE'
_TEXT	ENDS
;	COMDAT ?SetSize@?$CXTPCalendarPtrCollectionT@VCXTPCalendarMonthViewEvent@@@@UAEXH@Z
_TEXT	SEGMENT PARA USE32 PUBLIC 'CODE'
_TEXT	ENDS
;	COMDAT ?GetAt@?$CXTPCalendarPtrCollectionT@VCXTPCalendarMonthViewEvent@@@@UBEPAVCXTPCalendarMonthViewEvent@@HH@Z
_TEXT	SEGMENT PARA USE32 PUBLIC 'CODE'
_TEXT	ENDS
;	COMDAT ?GetAt@?$CXTPCalendarPtrCollectionT@VCXTPCalendarMonthViewEvent@@@@UBEPAVCXTPCalendarMonthViewEvent@@H@Z
_TEXT	SEGMENT PARA USE32 PUBLIC 'CODE'
_TEXT	ENDS
;	COMDAT ?RemoveAt@?$CXTPCalendarPtrCollectionT@VCXTPCalendarMonthViewEvent@@@@UAEXH@Z
_TEXT	SEGMENT PARA USE32 PUBLIC 'CODE'
_TEXT	ENDS
;	COMDAT ?Remove@?$CXTPCalendarPtrCollectionT@VCXTPCalendarMonthViewEvent@@@@UAEXPAVCXTPCalendarMonthViewEvent@@@Z
_TEXT	SEGMENT PARA USE32 PUBLIC 'CODE'
_TEXT	ENDS
;	COMDAT ?RemoveAll@?$CXTPCalendarPtrCollectionT@VCXTPCalendarMonthViewEvent@@@@UAEXXZ
_TEXT	SEGMENT PARA USE32 PUBLIC 'CODE'
_TEXT	ENDS
;	COMDAT ??1?$CArray@V?$CXTPSmartPtrInternalT@VCXTPCalendarMonthViewGroup@@@@AAV1@@@UAE@XZ
_TEXT	SEGMENT PARA USE32 PUBLIC 'CODE'
_TEXT	ENDS
;	COMDAT ?Serialize@?$CArray@V?$CXTPSmartPtrInternalT@VCXTPCalendarMonthViewGroup@@@@AAV1@@@UAEXAAVCArchive@@@Z
_TEXT	SEGMENT PARA USE32 PUBLIC 'CODE'
_TEXT	ENDS
;	COMDAT ??1?$CXTPCalendarPtrCollectionT@VCXTPCalendarMonthViewGroup@@@@UAE@XZ
_TEXT	SEGMENT PARA USE32 PUBLIC 'CODE'
_TEXT	ENDS
;	COMDAT ?GetCount@?$CXTPCalendarPtrCollectionT@VCXTPCalendarMonthViewGroup@@@@UBEHXZ
_TEXT	SEGMENT PARA USE32 PUBLIC 'CODE'
_TEXT	ENDS
;	COMDAT ?Add@?$CXTPCalendarPtrCollectionT@VCXTPCalendarMonthViewGroup@@@@UAEXPAVCXTPCalendarMonthViewGroup@@H@Z
_TEXT	SEGMENT PARA USE32 PUBLIC 'CODE'
_TEXT	ENDS
;	COMDAT ?Add@?$CXTPCalendarPtrCollectionT@VCXTPCalendarMonthViewGroup@@@@UAEXPAVCXTPCalendarMonthViewGroup@@@Z
_TEXT	SEGMENT PARA USE32 PUBLIC 'CODE'
_TEXT	ENDS
;	COMDAT ?SetAt@?$CXTPCalendarPtrCollectionT@VCXTPCalendarMonthViewGroup@@@@UAEXHPAVCXTPCalendarMonthViewGroup@@@Z
_TEXT	SEGMENT PARA USE32 PUBLIC 'CODE'
_TEXT	ENDS
;	COMDAT ?Find@?$CXTPCalendarPtrCollectionT@VCXTPCalendarMonthViewGroup@@@@UAEHPBVCXTPCalendarMonthViewGroup@@@Z
_TEXT	SEGMENT PARA USE32 PUBLIC 'CODE'
_TEXT	ENDS
;	COMDAT ?InsertAt@?$CXTPCalendarPtrCollectionT@VCXTPCalendarMonthViewGroup@@@@UAEXHPAVCXTPCalendarMonthViewGroup@@@Z
_TEXT	SEGMENT PARA USE32 PUBLIC 'CODE'
_TEXT	ENDS
;	COMDAT ?Append@?$CXTPCalendarPtrCollectionT@VCXTPCalendarMonthViewGroup@@@@UAEXPAV1@@Z
_TEXT	SEGMENT PARA USE32 PUBLIC 'CODE'
_TEXT	ENDS
;	COMDAT ?SetSize@?$CXTPCalendarPtrCollectionT@VCXTPCalendarMonthViewGroup@@@@UAEXH@Z
_TEXT	SEGMENT PARA USE32 PUBLIC 'CODE'
_TEXT	ENDS
;	COMDAT ?GetAt@?$CXTPCalendarPtrCollectionT@VCXTPCalendarMonthViewGroup@@@@UBEPAVCXTPCalendarMonthViewGroup@@HH@Z
_TEXT	SEGMENT PARA USE32 PUBLIC 'CODE'
_TEXT	ENDS
;	COMDAT ?GetAt@?$CXTPCalendarPtrCollectionT@VCXTPCalendarMonthViewGroup@@@@UBEPAVCXTPCalendarMonthViewGroup@@H@Z
_TEXT	SEGMENT PARA USE32 PUBLIC 'CODE'
_TEXT	ENDS
;	COMDAT ?RemoveAt@?$CXTPCalendarPtrCollectionT@VCXTPCalendarMonthViewGroup@@@@UAEXH@Z
_TEXT	SEGMENT PARA USE32 PUBLIC 'CODE'
_TEXT	ENDS
;	COMDAT ?Remove@?$CXTPCalendarPtrCollectionT@VCXTPCalendarMonthViewGroup@@@@UAEXPAVCXTPCalendarMonthViewGroup@@@Z
_TEXT	SEGMENT PARA USE32 PUBLIC 'CODE'
_TEXT	ENDS
;	COMDAT ?RemoveAll@?$CXTPCalendarPtrCollectionT@VCXTPCalendarMonthViewGroup@@@@UAEXXZ
_TEXT	SEGMENT PARA USE32 PUBLIC 'CODE'
_TEXT	ENDS
;	COMDAT ??1?$CArray@V?$CXTPSmartPtrInternalT@VCXTPCalendarMonthViewDay@@@@AAV1@@@UAE@XZ
_TEXT	SEGMENT PARA USE32 PUBLIC 'CODE'
_TEXT	ENDS
;	COMDAT ?Serialize@?$CArray@V?$CXTPSmartPtrInternalT@VCXTPCalendarMonthViewDay@@@@AAV1@@@UAEXAAVCArchive@@@Z
_TEXT	SEGMENT PARA USE32 PUBLIC 'CODE'
_TEXT	ENDS
;	COMDAT ??1?$CXTPCalendarPtrCollectionT@VCXTPCalendarMonthViewDay@@@@UAE@XZ
_TEXT	SEGMENT PARA USE32 PUBLIC 'CODE'
_TEXT	ENDS
;	COMDAT ?GetCount@?$CXTPCalendarPtrCollectionT@VCXTPCalendarMonthViewDay@@@@UBEHXZ
_TEXT	SEGMENT PARA USE32 PUBLIC 'CODE'
_TEXT	ENDS
;	COMDAT ?Add@?$CXTPCalendarPtrCollectionT@VCXTPCalendarMonthViewDay@@@@UAEXPAVCXTPCalendarMonthViewDay@@H@Z
_TEXT	SEGMENT PARA USE32 PUBLIC 'CODE'
_TEXT	ENDS
;	COMDAT ?Add@?$CXTPCalendarPtrCollectionT@VCXTPCalendarMonthViewDay@@@@UAEXPAVCXTPCalendarMonthViewDay@@@Z
_TEXT	SEGMENT PARA USE32 PUBLIC 'CODE'
_TEXT	ENDS
;	COMDAT ?SetAt@?$CXTPCalendarPtrCollectionT@VCXTPCalendarMonthViewDay@@@@UAEXHPAVCXTPCalendarMonthViewDay@@@Z
_TEXT	SEGMENT PARA USE32 PUBLIC 'CODE'
_TEXT	ENDS
;	COMDAT ?Find@?$CXTPCalendarPtrCollectionT@VCXTPCalendarMonthViewDay@@@@UAEHPBVCXTPCalendarMonthViewDay@@@Z
_TEXT	SEGMENT PARA USE32 PUBLIC 'CODE'
_TEXT	ENDS
;	COMDAT ?InsertAt@?$CXTPCalendarPtrCollectionT@VCXTPCalendarMonthViewDay@@@@UAEXHPAVCXTPCalendarMonthViewDay@@@Z
_TEXT	SEGMENT PARA USE32 PUBLIC 'CODE'
_TEXT	ENDS
;	COMDAT ?Append@?$CXTPCalendarPtrCollectionT@VCXTPCalendarMonthViewDay@@@@UAEXPAV1@@Z
_TEXT	SEGMENT PARA USE32 PUBLIC 'CODE'
_TEXT	ENDS
;	COMDAT ?SetSize@?$CXTPCalendarPtrCollectionT@VCXTPCalendarMonthViewDay@@@@UAEXH@Z
_TEXT	SEGMENT PARA USE32 PUBLIC 'CODE'
_TEXT	ENDS
;	COMDAT ?GetAt@?$CXTPCalendarPtrCollectionT@VCXTPCalendarMonthViewDay@@@@UBEPAVCXTPCalendarMonthViewDay@@HH@Z
_TEXT	SEGMENT PARA USE32 PUBLIC 'CODE'
_TEXT	ENDS
;	COMDAT ?GetAt@?$CXTPCalendarPtrCollectionT@VCXTPCalendarMonthViewDay@@@@UBEPAVCXTPCalendarMonthViewDay@@H@Z
_TEXT	SEGMENT PARA USE32 PUBLIC 'CODE'
_TEXT	ENDS
;	COMDAT ?RemoveAt@?$CXTPCalendarPtrCollectionT@VCXTPCalendarMonthViewDay@@@@UAEXH@Z
_TEXT	SEGMENT PARA USE32 PUBLIC 'CODE'
_TEXT	ENDS
;	COMDAT ?Remove@?$CXTPCalendarPtrCollectionT@VCXTPCalendarMonthViewDay@@@@UAEXPAVCXTPCalendarMonthViewDay@@@Z
_TEXT	SEGMENT PARA USE32 PUBLIC 'CODE'
_TEXT	ENDS
;	COMDAT ?RemoveAll@?$CXTPCalendarPtrCollectionT@VCXTPCalendarMonthViewDay@@@@UAEXXZ
_TEXT	SEGMENT PARA USE32 PUBLIC 'CODE'
_TEXT	ENDS
;	COMDAT ??1?$CArray@V?$CXTPSmartPtrInternalT@VCXTPCalendarWeekViewEvent@@@@AAV1@@@UAE@XZ
_TEXT	SEGMENT PARA USE32 PUBLIC 'CODE'
_TEXT	ENDS
;	COMDAT ?Serialize@?$CArray@V?$CXTPSmartPtrInternalT@VCXTPCalendarWeekViewEvent@@@@AAV1@@@UAEXAAVCArchive@@@Z
_TEXT	SEGMENT PARA USE32 PUBLIC 'CODE'
_TEXT	ENDS
;	COMDAT ??1?$CXTPCalendarPtrCollectionT@VCXTPCalendarWeekViewEvent@@@@UAE@XZ
_TEXT	SEGMENT PARA USE32 PUBLIC 'CODE'
_TEXT	ENDS
;	COMDAT ?GetCount@?$CXTPCalendarPtrCollectionT@VCXTPCalendarWeekViewEvent@@@@UBEHXZ
_TEXT	SEGMENT PARA USE32 PUBLIC 'CODE'
_TEXT	ENDS
;	COMDAT ?Add@?$CXTPCalendarPtrCollectionT@VCXTPCalendarWeekViewEvent@@@@UAEXPAVCXTPCalendarWeekViewEvent@@H@Z
_TEXT	SEGMENT PARA USE32 PUBLIC 'CODE'
_TEXT	ENDS
;	COMDAT ?Add@?$CXTPCalendarPtrCollectionT@VCXTPCalendarWeekViewEvent@@@@UAEXPAVCXTPCalendarWeekViewEvent@@@Z
_TEXT	SEGMENT PARA USE32 PUBLIC 'CODE'
_TEXT	ENDS
;	COMDAT ?SetAt@?$CXTPCalendarPtrCollectionT@VCXTPCalendarWeekViewEvent@@@@UAEXHPAVCXTPCalendarWeekViewEvent@@@Z
_TEXT	SEGMENT PARA USE32 PUBLIC 'CODE'
_TEXT	ENDS
;	COMDAT ?Find@?$CXTPCalendarPtrCollectionT@VCXTPCalendarWeekViewEvent@@@@UAEHPBVCXTPCalendarWeekViewEvent@@@Z
_TEXT	SEGMENT PARA USE32 PUBLIC 'CODE'
_TEXT	ENDS
;	COMDAT ?InsertAt@?$CXTPCalendarPtrCollectionT@VCXTPCalendarWeekViewEvent@@@@UAEXHPAVCXTPCalendarWeekViewEvent@@@Z
_TEXT	SEGMENT PARA USE32 PUBLIC 'CODE'
_TEXT	ENDS
;	COMDAT ?Append@?$CXTPCalendarPtrCollectionT@VCXTPCalendarWeekViewEvent@@@@UAEXPAV1@@Z
_TEXT	SEGMENT PARA USE32 PUBLIC 'CODE'
_TEXT	ENDS
;	COMDAT ?SetSize@?$CXTPCalendarPtrCollectionT@VCXTPCalendarWeekViewEvent@@@@UAEXH@Z
_TEXT	SEGMENT PARA USE32 PUBLIC 'CODE'
_TEXT	ENDS
;	COMDAT ?GetAt@?$CXTPCalendarPtrCollectionT@VCXTPCalendarWeekViewEvent@@@@UBEPAVCXTPCalendarWeekViewEvent@@HH@Z
_TEXT	SEGMENT PARA USE32 PUBLIC 'CODE'
_TEXT	ENDS
;	COMDAT ?GetAt@?$CXTPCalendarPtrCollectionT@VCXTPCalendarWeekViewEvent@@@@UBEPAVCXTPCalendarWeekViewEvent@@H@Z
_TEXT	SEGMENT PARA USE32 PUBLIC 'CODE'
_TEXT	ENDS
;	COMDAT ?RemoveAt@?$CXTPCalendarPtrCollectionT@VCXTPCalendarWeekViewEvent@@@@UAEXH@Z
_TEXT	SEGMENT PARA USE32 PUBLIC 'CODE'
_TEXT	ENDS
;	COMDAT ?Remove@?$CXTPCalendarPtrCollectionT@VCXTPCalendarWeekViewEvent@@@@UAEXPAVCXTPCalendarWeekViewEvent@@@Z
_TEXT	SEGMENT PARA USE32 PUBLIC 'CODE'
_TEXT	ENDS
;	COMDAT ?RemoveAll@?$CXTPCalendarPtrCollectionT@VCXTPCalendarWeekViewEvent@@@@UAEXXZ
_TEXT	SEGMENT PARA USE32 PUBLIC 'CODE'
_TEXT	ENDS
;	COMDAT ??1?$CArray@V?$CXTPSmartPtrInternalT@VCXTPCalendarWeekViewGroup@@@@AAV1@@@UAE@XZ
_TEXT	SEGMENT PARA USE32 PUBLIC 'CODE'
_TEXT	ENDS
;	COMDAT ?Serialize@?$CArray@V?$CXTPSmartPtrInternalT@VCXTPCalendarWeekViewGroup@@@@AAV1@@@UAEXAAVCArchive@@@Z
_TEXT	SEGMENT PARA USE32 PUBLIC 'CODE'
_TEXT	ENDS
;	COMDAT ??1?$CXTPCalendarPtrCollectionT@VCXTPCalendarWeekViewGroup@@@@UAE@XZ
_TEXT	SEGMENT PARA USE32 PUBLIC 'CODE'
_TEXT	ENDS
;	COMDAT ?GetCount@?$CXTPCalendarPtrCollectionT@VCXTPCalendarWeekViewGroup@@@@UBEHXZ
_TEXT	SEGMENT PARA USE32 PUBLIC 'CODE'
_TEXT	ENDS
;	COMDAT ?Add@?$CXTPCalendarPtrCollectionT@VCXTPCalendarWeekViewGroup@@@@UAEXPAVCXTPCalendarWeekViewGroup@@H@Z
_TEXT	SEGMENT PARA USE32 PUBLIC 'CODE'
_TEXT	ENDS
;	COMDAT ?Add@?$CXTPCalendarPtrCollectionT@VCXTPCalendarWeekViewGroup@@@@UAEXPAVCXTPCalendarWeekViewGroup@@@Z
_TEXT	SEGMENT PARA USE32 PUBLIC 'CODE'
_TEXT	ENDS
;	COMDAT ?SetAt@?$CXTPCalendarPtrCollectionT@VCXTPCalendarWeekViewGroup@@@@UAEXHPAVCXTPCalendarWeekViewGroup@@@Z
_TEXT	SEGMENT PARA USE32 PUBLIC 'CODE'
_TEXT	ENDS
;	COMDAT ?Find@?$CXTPCalendarPtrCollectionT@VCXTPCalendarWeekViewGroup@@@@UAEHPBVCXTPCalendarWeekViewGroup@@@Z
_TEXT	SEGMENT PARA USE32 PUBLIC 'CODE'
_TEXT	ENDS
;	COMDAT ?InsertAt@?$CXTPCalendarPtrCollectionT@VCXTPCalendarWeekViewGroup@@@@UAEXHPAVCXTPCalendarWeekViewGroup@@@Z
_TEXT	SEGMENT PARA USE32 PUBLIC 'CODE'
_TEXT	ENDS
;	COMDAT ?Append@?$CXTPCalendarPtrCollectionT@VCXTPCalendarWeekViewGroup@@@@UAEXPAV1@@Z
_TEXT	SEGMENT PARA USE32 PUBLIC 'CODE'
_TEXT	ENDS
;	COMDAT ?SetSize@?$CXTPCalendarPtrCollectionT@VCXTPCalendarWeekViewGroup@@@@UAEXH@Z
_TEXT	SEGMENT PARA USE32 PUBLIC 'CODE'
_TEXT	ENDS
;	COMDAT ?GetAt@?$CXTPCalendarPtrCollectionT@VCXTPCalendarWeekViewGroup@@@@UBEPAVCXTPCalendarWeekViewGroup@@HH@Z
_TEXT	SEGMENT PARA USE32 PUBLIC 'CODE'
_TEXT	ENDS
;	COMDAT ?GetAt@?$CXTPCalendarPtrCollectionT@VCXTPCalendarWeekViewGroup@@@@UBEPAVCXTPCalendarWeekViewGroup@@H@Z
_TEXT	SEGMENT PARA USE32 PUBLIC 'CODE'
_TEXT	ENDS
;	COMDAT ?RemoveAt@?$CXTPCalendarPtrCollectionT@VCXTPCalendarWeekViewGroup@@@@UAEXH@Z
_TEXT	SEGMENT PARA USE32 PUBLIC 'CODE'
_TEXT	ENDS
;	COMDAT ?Remove@?$CXTPCalendarPtrCollectionT@VCXTPCalendarWeekViewGroup@@@@UAEXPAVCXTPCalendarWeekViewGroup@@@Z
_TEXT	SEGMENT PARA USE32 PUBLIC 'CODE'
_TEXT	ENDS
;	COMDAT ?RemoveAll@?$CXTPCalendarPtrCollectionT@VCXTPCalendarWeekViewGroup@@@@UAEXXZ
_TEXT	SEGMENT PARA USE32 PUBLIC 'CODE'
_TEXT	ENDS
;	COMDAT ??1?$CArray@V?$CXTPSmartPtrInternalT@VCXTPCalendarWeekViewDay@@@@AAV1@@@UAE@XZ
_TEXT	SEGMENT PARA USE32 PUBLIC 'CODE'
_TEXT	ENDS
;	COMDAT ?Serialize@?$CArray@V?$CXTPSmartPtrInternalT@VCXTPCalendarWeekViewDay@@@@AAV1@@@UAEXAAVCArchive@@@Z
_TEXT	SEGMENT PARA USE32 PUBLIC 'CODE'
_TEXT	ENDS
;	COMDAT ??1?$CXTPCalendarPtrCollectionT@VCXTPCalendarWeekViewDay@@@@UAE@XZ
_TEXT	SEGMENT PARA USE32 PUBLIC 'CODE'
_TEXT	ENDS
;	COMDAT ?GetCount@?$CXTPCalendarPtrCollectionT@VCXTPCalendarWeekViewDay@@@@UBEHXZ
_TEXT	SEGMENT PARA USE32 PUBLIC 'CODE'
_TEXT	ENDS
;	COMDAT ?Add@?$CXTPCalendarPtrCollectionT@VCXTPCalendarWeekViewDay@@@@UAEXPAVCXTPCalendarWeekViewDay@@H@Z
_TEXT	SEGMENT PARA USE32 PUBLIC 'CODE'
_TEXT	ENDS
;	COMDAT ?Add@?$CXTPCalendarPtrCollectionT@VCXTPCalendarWeekViewDay@@@@UAEXPAVCXTPCalendarWeekViewDay@@@Z
_TEXT	SEGMENT PARA USE32 PUBLIC 'CODE'
_TEXT	ENDS
;	COMDAT ?SetAt@?$CXTPCalendarPtrCollectionT@VCXTPCalendarWeekViewDay@@@@UAEXHPAVCXTPCalendarWeekViewDay@@@Z
_TEXT	SEGMENT PARA USE32 PUBLIC 'CODE'
_TEXT	ENDS
;	COMDAT ?Find@?$CXTPCalendarPtrCollectionT@VCXTPCalendarWeekViewDay@@@@UAEHPBVCXTPCalendarWeekViewDay@@@Z
_TEXT	SEGMENT PARA USE32 PUBLIC 'CODE'
_TEXT	ENDS
;	COMDAT ?InsertAt@?$CXTPCalendarPtrCollectionT@VCXTPCalendarWeekViewDay@@@@UAEXHPAVCXTPCalendarWeekViewDay@@@Z
_TEXT	SEGMENT PARA USE32 PUBLIC 'CODE'
_TEXT	ENDS
;	COMDAT ?Append@?$CXTPCalendarPtrCollectionT@VCXTPCalendarWeekViewDay@@@@UAEXPAV1@@Z
_TEXT	SEGMENT PARA USE32 PUBLIC 'CODE'
_TEXT	ENDS
;	COMDAT ?SetSize@?$CXTPCalendarPtrCollectionT@VCXTPCalendarWeekViewDay@@@@UAEXH@Z
_TEXT	SEGMENT PARA USE32 PUBLIC 'CODE'
_TEXT	ENDS
;	COMDAT ?GetAt@?$CXTPCalendarPtrCollectionT@VCXTPCalendarWeekViewDay@@@@UBEPAVCXTPCalendarWeekViewDay@@HH@Z
_TEXT	SEGMENT PARA USE32 PUBLIC 'CODE'
_TEXT	ENDS
;	COMDAT ?GetAt@?$CXTPCalendarPtrCollectionT@VCXTPCalendarWeekViewDay@@@@UBEPAVCXTPCalendarWeekViewDay@@H@Z
_TEXT	SEGMENT PARA USE32 PUBLIC 'CODE'
_TEXT	ENDS
;	COMDAT ?RemoveAt@?$CXTPCalendarPtrCollectionT@VCXTPCalendarWeekViewDay@@@@UAEXH@Z
_TEXT	SEGMENT PARA USE32 PUBLIC 'CODE'
_TEXT	ENDS
;	COMDAT ?Remove@?$CXTPCalendarPtrCollectionT@VCXTPCalendarWeekViewDay@@@@UAEXPAVCXTPCalendarWeekViewDay@@@Z
_TEXT	SEGMENT PARA USE32 PUBLIC 'CODE'
_TEXT	ENDS
;	COMDAT ?RemoveAll@?$CXTPCalendarPtrCollectionT@VCXTPCalendarWeekViewDay@@@@UAEXXZ
_TEXT	SEGMENT PARA USE32 PUBLIC 'CODE'
_TEXT	ENDS
;	COMDAT ??1?$CArray@V?$CXTPSmartPtrInternalT@VCXTPCalendarTimeLineViewEvent@@@@AAV1@@@UAE@XZ
_TEXT	SEGMENT PARA USE32 PUBLIC 'CODE'
_TEXT	ENDS
;	COMDAT ?Serialize@?$CArray@V?$CXTPSmartPtrInternalT@VCXTPCalendarTimeLineViewEvent@@@@AAV1@@@UAEXAAVCArchive@@@Z
_TEXT	SEGMENT PARA USE32 PUBLIC 'CODE'
_TEXT	ENDS
;	COMDAT ??1?$CXTPCalendarPtrCollectionT@VCXTPCalendarTimeLineViewEvent@@@@UAE@XZ
_TEXT	SEGMENT PARA USE32 PUBLIC 'CODE'
_TEXT	ENDS
;	COMDAT ?GetCount@?$CXTPCalendarPtrCollectionT@VCXTPCalendarTimeLineViewEvent@@@@UBEHXZ
_TEXT	SEGMENT PARA USE32 PUBLIC 'CODE'
_TEXT	ENDS
;	COMDAT ?Add@?$CXTPCalendarPtrCollectionT@VCXTPCalendarTimeLineViewEvent@@@@UAEXPAVCXTPCalendarTimeLineViewEvent@@H@Z
_TEXT	SEGMENT PARA USE32 PUBLIC 'CODE'
_TEXT	ENDS
;	COMDAT ?Add@?$CXTPCalendarPtrCollectionT@VCXTPCalendarTimeLineViewEvent@@@@UAEXPAVCXTPCalendarTimeLineViewEvent@@@Z
_TEXT	SEGMENT PARA USE32 PUBLIC 'CODE'
_TEXT	ENDS
;	COMDAT ?SetAt@?$CXTPCalendarPtrCollectionT@VCXTPCalendarTimeLineViewEvent@@@@UAEXHPAVCXTPCalendarTimeLineViewEvent@@@Z
_TEXT	SEGMENT PARA USE32 PUBLIC 'CODE'
_TEXT	ENDS
;	COMDAT ?Find@?$CXTPCalendarPtrCollectionT@VCXTPCalendarTimeLineViewEvent@@@@UAEHPBVCXTPCalendarTimeLineViewEvent@@@Z
_TEXT	SEGMENT PARA USE32 PUBLIC 'CODE'
_TEXT	ENDS
;	COMDAT ?InsertAt@?$CXTPCalendarPtrCollectionT@VCXTPCalendarTimeLineViewEvent@@@@UAEXHPAVCXTPCalendarTimeLineViewEvent@@@Z
_TEXT	SEGMENT PARA USE32 PUBLIC 'CODE'
_TEXT	ENDS
;	COMDAT ?Append@?$CXTPCalendarPtrCollectionT@VCXTPCalendarTimeLineViewEvent@@@@UAEXPAV1@@Z
_TEXT	SEGMENT PARA USE32 PUBLIC 'CODE'
_TEXT	ENDS
;	COMDAT ?SetSize@?$CXTPCalendarPtrCollectionT@VCXTPCalendarTimeLineViewEvent@@@@UAEXH@Z
_TEXT	SEGMENT PARA USE32 PUBLIC 'CODE'
_TEXT	ENDS
;	COMDAT ?GetAt@?$CXTPCalendarPtrCollectionT@VCXTPCalendarTimeLineViewEvent@@@@UBEPAVCXTPCalendarTimeLineViewEvent@@HH@Z
_TEXT	SEGMENT PARA USE32 PUBLIC 'CODE'
_TEXT	ENDS
;	COMDAT ?GetAt@?$CXTPCalendarPtrCollectionT@VCXTPCalendarTimeLineViewEvent@@@@UBEPAVCXTPCalendarTimeLineViewEvent@@H@Z
_TEXT	SEGMENT PARA USE32 PUBLIC 'CODE'
_TEXT	ENDS
;	COMDAT ?RemoveAt@?$CXTPCalendarPtrCollectionT@VCXTPCalendarTimeLineViewEvent@@@@UAEXH@Z
_TEXT	SEGMENT PARA USE32 PUBLIC 'CODE'
_TEXT	ENDS
;	COMDAT ?Remove@?$CXTPCalendarPtrCollectionT@VCXTPCalendarTimeLineViewEvent@@@@UAEXPAVCXTPCalendarTimeLineViewEvent@@@Z
_TEXT	SEGMENT PARA USE32 PUBLIC 'CODE'
_TEXT	ENDS
;	COMDAT ?RemoveAll@?$CXTPCalendarPtrCollectionT@VCXTPCalendarTimeLineViewEvent@@@@UAEXXZ
_TEXT	SEGMENT PARA USE32 PUBLIC 'CODE'
_TEXT	ENDS
;	COMDAT ??1?$CArray@V?$CXTPSmartPtrInternalT@VCXTPCalendarTimeLineViewGroup@@@@AAV1@@@UAE@XZ
_TEXT	SEGMENT PARA USE32 PUBLIC 'CODE'
_TEXT	ENDS
;	COMDAT ?Serialize@?$CArray@V?$CXTPSmartPtrInternalT@VCXTPCalendarTimeLineViewGroup@@@@AAV1@@@UAEXAAVCArchive@@@Z
_TEXT	SEGMENT PARA USE32 PUBLIC 'CODE'
_TEXT	ENDS
;	COMDAT ??1?$CXTPCalendarPtrCollectionT@VCXTPCalendarTimeLineViewGroup@@@@UAE@XZ
_TEXT	SEGMENT PARA USE32 PUBLIC 'CODE'
_TEXT	ENDS
;	COMDAT ?GetCount@?$CXTPCalendarPtrCollectionT@VCXTPCalendarTimeLineViewGroup@@@@UBEHXZ
_TEXT	SEGMENT PARA USE32 PUBLIC 'CODE'
_TEXT	ENDS
;	COMDAT ?Add@?$CXTPCalendarPtrCollectionT@VCXTPCalendarTimeLineViewGroup@@@@UAEXPAVCXTPCalendarTimeLineViewGroup@@H@Z
_TEXT	SEGMENT PARA USE32 PUBLIC 'CODE'
_TEXT	ENDS
;	COMDAT ?Add@?$CXTPCalendarPtrCollectionT@VCXTPCalendarTimeLineViewGroup@@@@UAEXPAVCXTPCalendarTimeLineViewGroup@@@Z
_TEXT	SEGMENT PARA USE32 PUBLIC 'CODE'
_TEXT	ENDS
;	COMDAT ?SetAt@?$CXTPCalendarPtrCollectionT@VCXTPCalendarTimeLineViewGroup@@@@UAEXHPAVCXTPCalendarTimeLineViewGroup@@@Z
_TEXT	SEGMENT PARA USE32 PUBLIC 'CODE'
_TEXT	ENDS
;	COMDAT ?Find@?$CXTPCalendarPtrCollectionT@VCXTPCalendarTimeLineViewGroup@@@@UAEHPBVCXTPCalendarTimeLineViewGroup@@@Z
_TEXT	SEGMENT PARA USE32 PUBLIC 'CODE'
_TEXT	ENDS
;	COMDAT ?InsertAt@?$CXTPCalendarPtrCollectionT@VCXTPCalendarTimeLineViewGroup@@@@UAEXHPAVCXTPCalendarTimeLineViewGroup@@@Z
_TEXT	SEGMENT PARA USE32 PUBLIC 'CODE'
_TEXT	ENDS
;	COMDAT ?Append@?$CXTPCalendarPtrCollectionT@VCXTPCalendarTimeLineViewGroup@@@@UAEXPAV1@@Z
_TEXT	SEGMENT PARA USE32 PUBLIC 'CODE'
_TEXT	ENDS
;	COMDAT ?SetSize@?$CXTPCalendarPtrCollectionT@VCXTPCalendarTimeLineViewGroup@@@@UAEXH@Z
_TEXT	SEGMENT PARA USE32 PUBLIC 'CODE'
_TEXT	ENDS
;	COMDAT ?GetAt@?$CXTPCalendarPtrCollectionT@VCXTPCalendarTimeLineViewGroup@@@@UBEPAVCXTPCalendarTimeLineViewGroup@@HH@Z
_TEXT	SEGMENT PARA USE32 PUBLIC 'CODE'
_TEXT	ENDS
;	COMDAT ?GetAt@?$CXTPCalendarPtrCollectionT@VCXTPCalendarTimeLineViewGroup@@@@UBEPAVCXTPCalendarTimeLineViewGroup@@H@Z
_TEXT	SEGMENT PARA USE32 PUBLIC 'CODE'
_TEXT	ENDS
;	COMDAT ?RemoveAt@?$CXTPCalendarPtrCollectionT@VCXTPCalendarTimeLineViewGroup@@@@UAEXH@Z
_TEXT	SEGMENT PARA USE32 PUBLIC 'CODE'
_TEXT	ENDS
;	COMDAT ?Remove@?$CXTPCalendarPtrCollectionT@VCXTPCalendarTimeLineViewGroup@@@@UAEXPAVCXTPCalendarTimeLineViewGroup@@@Z
_TEXT	SEGMENT PARA USE32 PUBLIC 'CODE'
_TEXT	ENDS
;	COMDAT ?RemoveAll@?$CXTPCalendarPtrCollectionT@VCXTPCalendarTimeLineViewGroup@@@@UAEXXZ
_TEXT	SEGMENT PARA USE32 PUBLIC 'CODE'
_TEXT	ENDS
;	COMDAT ??1?$CArray@V?$CXTPSmartPtrInternalT@VCXTPCalendarThemePart@@@@AAV1@@@UAE@XZ
_TEXT	SEGMENT PARA USE32 PUBLIC 'CODE'
_TEXT	ENDS
;	COMDAT ?Serialize@?$CArray@V?$CXTPSmartPtrInternalT@VCXTPCalendarThemePart@@@@AAV1@@@UAEXAAVCArchive@@@Z
_TEXT	SEGMENT PARA USE32 PUBLIC 'CODE'
_TEXT	ENDS
;	COMDAT ??1?$CXTPCalendarPtrCollectionT@VCXTPCalendarThemePart@@@@UAE@XZ
_TEXT	SEGMENT PARA USE32 PUBLIC 'CODE'
_TEXT	ENDS
;	COMDAT ?GetCount@?$CXTPCalendarPtrCollectionT@VCXTPCalendarThemePart@@@@UBEHXZ
_TEXT	SEGMENT PARA USE32 PUBLIC 'CODE'
_TEXT	ENDS
;	COMDAT ?Add@?$CXTPCalendarPtrCollectionT@VCXTPCalendarThemePart@@@@UAEXPAVCXTPCalendarThemePart@@H@Z
_TEXT	SEGMENT PARA USE32 PUBLIC 'CODE'
_TEXT	ENDS
;	COMDAT ?Add@?$CXTPCalendarPtrCollectionT@VCXTPCalendarThemePart@@@@UAEXPAVCXTPCalendarThemePart@@@Z
_TEXT	SEGMENT PARA USE32 PUBLIC 'CODE'
_TEXT	ENDS
;	COMDAT ?SetAt@?$CXTPCalendarPtrCollectionT@VCXTPCalendarThemePart@@@@UAEXHPAVCXTPCalendarThemePart@@@Z
_TEXT	SEGMENT PARA USE32 PUBLIC 'CODE'
_TEXT	ENDS
;	COMDAT ?Find@?$CXTPCalendarPtrCollectionT@VCXTPCalendarThemePart@@@@UAEHPBVCXTPCalendarThemePart@@@Z
_TEXT	SEGMENT PARA USE32 PUBLIC 'CODE'
_TEXT	ENDS
;	COMDAT ?InsertAt@?$CXTPCalendarPtrCollectionT@VCXTPCalendarThemePart@@@@UAEXHPAVCXTPCalendarThemePart@@@Z
_TEXT	SEGMENT PARA USE32 PUBLIC 'CODE'
_TEXT	ENDS
;	COMDAT ?Append@?$CXTPCalendarPtrCollectionT@VCXTPCalendarThemePart@@@@UAEXPAV1@@Z
_TEXT	SEGMENT PARA USE32 PUBLIC 'CODE'
_TEXT	ENDS
;	COMDAT ?SetSize@?$CXTPCalendarPtrCollectionT@VCXTPCalendarThemePart@@@@UAEXH@Z
_TEXT	SEGMENT PARA USE32 PUBLIC 'CODE'
_TEXT	ENDS
;	COMDAT ?GetAt@?$CXTPCalendarPtrCollectionT@VCXTPCalendarThemePart@@@@UBEPAVCXTPCalendarThemePart@@HH@Z
_TEXT	SEGMENT PARA USE32 PUBLIC 'CODE'
_TEXT	ENDS
;	COMDAT ?GetAt@?$CXTPCalendarPtrCollectionT@VCXTPCalendarThemePart@@@@UBEPAVCXTPCalendarThemePart@@H@Z
_TEXT	SEGMENT PARA USE32 PUBLIC 'CODE'
_TEXT	ENDS
;	COMDAT ?RemoveAt@?$CXTPCalendarPtrCollectionT@VCXTPCalendarThemePart@@@@UAEXH@Z
_TEXT	SEGMENT PARA USE32 PUBLIC 'CODE'
_TEXT	ENDS
;	COMDAT ?Remove@?$CXTPCalendarPtrCollectionT@VCXTPCalendarThemePart@@@@UAEXPAVCXTPCalendarThemePart@@@Z
_TEXT	SEGMENT PARA USE32 PUBLIC 'CODE'
_TEXT	ENDS
;	COMDAT ?RemoveAll@?$CXTPCalendarPtrCollectionT@VCXTPCalendarThemePart@@@@UAEXXZ
_TEXT	SEGMENT PARA USE32 PUBLIC 'CODE'
_TEXT	ENDS
;	COMDAT ??1?$CMap@IIIAAI@@UAE@XZ
_TEXT	SEGMENT PARA USE32 PUBLIC 'CODE'
_TEXT	ENDS
;	COMDAT ?Serialize@?$CMap@IIIAAI@@UAEXAAVCArchive@@@Z
_TEXT	SEGMENT PARA USE32 PUBLIC 'CODE'
_TEXT	ENDS
;	COMDAT ??0?$CMap@HHPAVCXTPCalendarViewPartBrushValue@@PAV1@@@QAE@H@Z
_TEXT	SEGMENT PARA USE32 PUBLIC 'CODE'
_TEXT	ENDS
;	COMDAT ?Lookup@?$CMap@HHPAVCXTPCalendarViewPartBrushValue@@PAV1@@@QBEHHAAPAVCXTPCalendarViewPartBrushValue@@@Z
_TEXT	SEGMENT PARA USE32 PUBLIC 'CODE'
_TEXT	ENDS
;	COMDAT ?SetAt@?$CMap@HHPAVCXTPCalendarViewPartBrushValue@@PAV1@@@QAEXHPAVCXTPCalendarViewPartBrushValue@@@Z
_TEXT	SEGMENT PARA USE32 PUBLIC 'CODE'
_TEXT	ENDS
;	COMDAT ?RemoveKey@?$CMap@HHPAVCXTPCalendarViewPartBrushValue@@PAV1@@@QAEHH@Z
_TEXT	SEGMENT PARA USE32 PUBLIC 'CODE'
_TEXT	ENDS
;	COMDAT ?RemoveAll@?$CMap@HHPAVCXTPCalendarViewPartBrushValue@@PAV1@@@QAEXXZ
_TEXT	SEGMENT PARA USE32 PUBLIC 'CODE'
_TEXT	ENDS
;	COMDAT ?GetStartPosition@?$CMap@HHPAVCXTPCalendarViewPartBrushValue@@PAV1@@@QBEPAU__POSITION@@XZ
_TEXT	SEGMENT PARA USE32 PUBLIC 'CODE'
_TEXT	ENDS
;	COMDAT ?GetNextAssoc@?$CMap@HHPAVCXTPCalendarViewPartBrushValue@@PAV1@@@QBEXAAPAU__POSITION@@AAHAAPAVCXTPCalendarViewPartBrushValue@@@Z
_TEXT	SEGMENT PARA USE32 PUBLIC 'CODE'
_TEXT	ENDS
;	COMDAT ??1?$CMap@HHPAVCXTPCalendarViewPartBrushValue@@PAV1@@@UAE@XZ
_TEXT	SEGMENT PARA USE32 PUBLIC 'CODE'
_TEXT	ENDS
;	COMDAT ?Serialize@?$CMap@HHPAVCXTPCalendarViewPartBrushValue@@PAV1@@@UAEXAAVCArchive@@@Z
_TEXT	SEGMENT PARA USE32 PUBLIC 'CODE'
_TEXT	ENDS
;	COMDAT ??1?$CMap@HHUSColorInfo@CTOColorsSet@CXTPCalendarTheme@@AAU123@@@UAE@XZ
_TEXT	SEGMENT PARA USE32 PUBLIC 'CODE'
_TEXT	ENDS
;	COMDAT ?Serialize@?$CMap@HHUSColorInfo@CTOColorsSet@CXTPCalendarTheme@@AAU123@@@UAEXAAVCArchive@@@Z
_TEXT	SEGMENT PARA USE32 PUBLIC 'CODE'
_TEXT	ENDS
;	COMDAT ?GetData@?$CArray@DD@@QAEPADXZ
_TEXT	SEGMENT PARA USE32 PUBLIC 'CODE'
_TEXT	ENDS
;	COMDAT ??1?$CArray@DD@@UAE@XZ
_TEXT	SEGMENT PARA USE32 PUBLIC 'CODE'
_TEXT	ENDS
;	COMDAT ?Serialize@?$CArray@DD@@UAEXAAVCArchive@@@Z
_TEXT	SEGMENT PARA USE32 PUBLIC 'CODE'
_TEXT	ENDS
;	COMDAT ?Lookup@?$CMap@KKV?$XTP_MAPHANDLER_T@$0M@@@AAV1@@@QBEHKAAV?$XTP_MAPHANDLER_T@$0M@@@@Z
_TEXT	SEGMENT PARA USE32 PUBLIC 'CODE'
_TEXT	ENDS
;	COMDAT ??1?$CMap@KKV?$XTP_MAPHANDLER_T@$0M@@@AAV1@@@UAE@XZ
_TEXT	SEGMENT PARA USE32 PUBLIC 'CODE'
_TEXT	ENDS
;	COMDAT ?Serialize@?$CMap@KKV?$XTP_MAPHANDLER_T@$0M@@@AAV1@@@UAEXAAVCArchive@@@Z
_TEXT	SEGMENT PARA USE32 PUBLIC 'CODE'
_TEXT	ENDS
;	COMDAT ??1?$CArray@V?$CXTPSmartPtrInternalT@VCXTPCalendarReminder@@@@AAV1@@@UAE@XZ
_TEXT	SEGMENT PARA USE32 PUBLIC 'CODE'
_TEXT	ENDS
;	COMDAT ?Serialize@?$CArray@V?$CXTPSmartPtrInternalT@VCXTPCalendarReminder@@@@AAV1@@@UAEXAAVCArchive@@@Z
_TEXT	SEGMENT PARA USE32 PUBLIC 'CODE'
_TEXT	ENDS
;	COMDAT ??1?$CXTPCalendarPtrCollectionT@VCXTPCalendarReminder@@@@UAE@XZ
_TEXT	SEGMENT PARA USE32 PUBLIC 'CODE'
_TEXT	ENDS
;	COMDAT ?GetCount@?$CXTPCalendarPtrCollectionT@VCXTPCalendarReminder@@@@UBEHXZ
_TEXT	SEGMENT PARA USE32 PUBLIC 'CODE'
_TEXT	ENDS
;	COMDAT ?Add@?$CXTPCalendarPtrCollectionT@VCXTPCalendarReminder@@@@UAEXPAVCXTPCalendarReminder@@H@Z
_TEXT	SEGMENT PARA USE32 PUBLIC 'CODE'
_TEXT	ENDS
;	COMDAT ?Add@?$CXTPCalendarPtrCollectionT@VCXTPCalendarReminder@@@@UAEXPAVCXTPCalendarReminder@@@Z
_TEXT	SEGMENT PARA USE32 PUBLIC 'CODE'
_TEXT	ENDS
;	COMDAT ?SetAt@?$CXTPCalendarPtrCollectionT@VCXTPCalendarReminder@@@@UAEXHPAVCXTPCalendarReminder@@@Z
_TEXT	SEGMENT PARA USE32 PUBLIC 'CODE'
_TEXT	ENDS
;	COMDAT ?Find@?$CXTPCalendarPtrCollectionT@VCXTPCalendarReminder@@@@UAEHPBVCXTPCalendarReminder@@@Z
_TEXT	SEGMENT PARA USE32 PUBLIC 'CODE'
_TEXT	ENDS
;	COMDAT ?InsertAt@?$CXTPCalendarPtrCollectionT@VCXTPCalendarReminder@@@@UAEXHPAVCXTPCalendarReminder@@@Z
_TEXT	SEGMENT PARA USE32 PUBLIC 'CODE'
_TEXT	ENDS
;	COMDAT ?Append@?$CXTPCalendarPtrCollectionT@VCXTPCalendarReminder@@@@UAEXPAV1@@Z
_TEXT	SEGMENT PARA USE32 PUBLIC 'CODE'
_TEXT	ENDS
;	COMDAT ?SetSize@?$CXTPCalendarPtrCollectionT@VCXTPCalendarReminder@@@@UAEXH@Z
_TEXT	SEGMENT PARA USE32 PUBLIC 'CODE'
_TEXT	ENDS
;	COMDAT ?GetAt@?$CXTPCalendarPtrCollectionT@VCXTPCalendarReminder@@@@UBEPAVCXTPCalendarReminder@@HH@Z
_TEXT	SEGMENT PARA USE32 PUBLIC 'CODE'
_TEXT	ENDS
;	COMDAT ?GetAt@?$CXTPCalendarPtrCollectionT@VCXTPCalendarReminder@@@@UBEPAVCXTPCalendarReminder@@H@Z
_TEXT	SEGMENT PARA USE32 PUBLIC 'CODE'
_TEXT	ENDS
;	COMDAT ?RemoveAt@?$CXTPCalendarPtrCollectionT@VCXTPCalendarReminder@@@@UAEXH@Z
_TEXT	SEGMENT PARA USE32 PUBLIC 'CODE'
_TEXT	ENDS
;	COMDAT ?Remove@?$CXTPCalendarPtrCollectionT@VCXTPCalendarReminder@@@@UAEXPAVCXTPCalendarReminder@@@Z
_TEXT	SEGMENT PARA USE32 PUBLIC 'CODE'
_TEXT	ENDS
;	COMDAT ?RemoveAll@?$CXTPCalendarPtrCollectionT@VCXTPCalendarReminder@@@@UAEXXZ
_TEXT	SEGMENT PARA USE32 PUBLIC 'CODE'
_TEXT	ENDS
;	COMDAT ??1?$CArray@V?$CXTPSmartPtrInternalT@VCXTPCalendarData@@@@AAV1@@@UAE@XZ
_TEXT	SEGMENT PARA USE32 PUBLIC 'CODE'
_TEXT	ENDS
;	COMDAT ?Serialize@?$CArray@V?$CXTPSmartPtrInternalT@VCXTPCalendarData@@@@AAV1@@@UAEXAAVCArchive@@@Z
_TEXT	SEGMENT PARA USE32 PUBLIC 'CODE'
_TEXT	ENDS
;	COMDAT ??1?$CXTPCalendarPtrCollectionT@VCXTPCalendarData@@@@UAE@XZ
_TEXT	SEGMENT PARA USE32 PUBLIC 'CODE'
_TEXT	ENDS
;	COMDAT ?GetCount@?$CXTPCalendarPtrCollectionT@VCXTPCalendarData@@@@UBEHXZ
_TEXT	SEGMENT PARA USE32 PUBLIC 'CODE'
_TEXT	ENDS
;	COMDAT ?Add@?$CXTPCalendarPtrCollectionT@VCXTPCalendarData@@@@UAEXPAVCXTPCalendarData@@H@Z
_TEXT	SEGMENT PARA USE32 PUBLIC 'CODE'
_TEXT	ENDS
;	COMDAT ?Add@?$CXTPCalendarPtrCollectionT@VCXTPCalendarData@@@@UAEXPAVCXTPCalendarData@@@Z
_TEXT	SEGMENT PARA USE32 PUBLIC 'CODE'
_TEXT	ENDS
;	COMDAT ?SetAt@?$CXTPCalendarPtrCollectionT@VCXTPCalendarData@@@@UAEXHPAVCXTPCalendarData@@@Z
_TEXT	SEGMENT PARA USE32 PUBLIC 'CODE'
_TEXT	ENDS
;	COMDAT ?Find@?$CXTPCalendarPtrCollectionT@VCXTPCalendarData@@@@UAEHPBVCXTPCalendarData@@@Z
_TEXT	SEGMENT PARA USE32 PUBLIC 'CODE'
_TEXT	ENDS
;	COMDAT ?InsertAt@?$CXTPCalendarPtrCollectionT@VCXTPCalendarData@@@@UAEXHPAVCXTPCalendarData@@@Z
_TEXT	SEGMENT PARA USE32 PUBLIC 'CODE'
_TEXT	ENDS
;	COMDAT ?Append@?$CXTPCalendarPtrCollectionT@VCXTPCalendarData@@@@UAEXPAV1@@Z
_TEXT	SEGMENT PARA USE32 PUBLIC 'CODE'
_TEXT	ENDS
;	COMDAT ?SetSize@?$CXTPCalendarPtrCollectionT@VCXTPCalendarData@@@@UAEXH@Z
_TEXT	SEGMENT PARA USE32 PUBLIC 'CODE'
_TEXT	ENDS
;	COMDAT ?GetAt@?$CXTPCalendarPtrCollectionT@VCXTPCalendarData@@@@UBEPAVCXTPCalendarData@@HH@Z
_TEXT	SEGMENT PARA USE32 PUBLIC 'CODE'
_TEXT	ENDS
;	COMDAT ?GetAt@?$CXTPCalendarPtrCollectionT@VCXTPCalendarData@@@@UBEPAVCXTPCalendarData@@H@Z
_TEXT	SEGMENT PARA USE32 PUBLIC 'CODE'
_TEXT	ENDS
;	COMDAT ?RemoveAt@?$CXTPCalendarPtrCollectionT@VCXTPCalendarData@@@@UAEXH@Z
_TEXT	SEGMENT PARA USE32 PUBLIC 'CODE'
_TEXT	ENDS
;	COMDAT ?Remove@?$CXTPCalendarPtrCollectionT@VCXTPCalendarData@@@@UAEXPAVCXTPCalendarData@@@Z
_TEXT	SEGMENT PARA USE32 PUBLIC 'CODE'
_TEXT	ENDS
;	COMDAT ?RemoveAll@?$CXTPCalendarPtrCollectionT@VCXTPCalendarData@@@@UAEXXZ
_TEXT	SEGMENT PARA USE32 PUBLIC 'CODE'
_TEXT	ENDS
;	COMDAT ??1?$CArray@V?$CXTPSmartPtrInternalT@VCXTPCalendarResourceDescription@@@@AAV1@@@UAE@XZ
_TEXT	SEGMENT PARA USE32 PUBLIC 'CODE'
_TEXT	ENDS
;	COMDAT ?Serialize@?$CArray@V?$CXTPSmartPtrInternalT@VCXTPCalendarResourceDescription@@@@AAV1@@@UAEXAAVCArchive@@@Z
_TEXT	SEGMENT PARA USE32 PUBLIC 'CODE'
_TEXT	ENDS
;	COMDAT ??1?$CXTPCalendarPtrCollectionT@VCXTPCalendarResourceDescription@@@@UAE@XZ
_TEXT	SEGMENT PARA USE32 PUBLIC 'CODE'
_TEXT	ENDS
;	COMDAT ?GetCount@?$CXTPCalendarPtrCollectionT@VCXTPCalendarResourceDescription@@@@UBEHXZ
_TEXT	SEGMENT PARA USE32 PUBLIC 'CODE'
_TEXT	ENDS
;	COMDAT ?Add@?$CXTPCalendarPtrCollectionT@VCXTPCalendarResourceDescription@@@@UAEXPAVCXTPCalendarResourceDescription@@H@Z
_TEXT	SEGMENT PARA USE32 PUBLIC 'CODE'
_TEXT	ENDS
;	COMDAT ?Add@?$CXTPCalendarPtrCollectionT@VCXTPCalendarResourceDescription@@@@UAEXPAVCXTPCalendarResourceDescription@@@Z
_TEXT	SEGMENT PARA USE32 PUBLIC 'CODE'
_TEXT	ENDS
;	COMDAT ?SetAt@?$CXTPCalendarPtrCollectionT@VCXTPCalendarResourceDescription@@@@UAEXHPAVCXTPCalendarResourceDescription@@@Z
_TEXT	SEGMENT PARA USE32 PUBLIC 'CODE'
_TEXT	ENDS
;	COMDAT ?Find@?$CXTPCalendarPtrCollectionT@VCXTPCalendarResourceDescription@@@@UAEHPBVCXTPCalendarResourceDescription@@@Z
_TEXT	SEGMENT PARA USE32 PUBLIC 'CODE'
_TEXT	ENDS
;	COMDAT ?InsertAt@?$CXTPCalendarPtrCollectionT@VCXTPCalendarResourceDescription@@@@UAEXHPAVCXTPCalendarResourceDescription@@@Z
_TEXT	SEGMENT PARA USE32 PUBLIC 'CODE'
_TEXT	ENDS
;	COMDAT ?Append@?$CXTPCalendarPtrCollectionT@VCXTPCalendarResourceDescription@@@@UAEXPAV1@@Z
_TEXT	SEGMENT PARA USE32 PUBLIC 'CODE'
_TEXT	ENDS
;	COMDAT ?SetSize@?$CXTPCalendarPtrCollectionT@VCXTPCalendarResourceDescription@@@@UAEXH@Z
_TEXT	SEGMENT PARA USE32 PUBLIC 'CODE'
_TEXT	ENDS
;	COMDAT ?GetAt@?$CXTPCalendarPtrCollectionT@VCXTPCalendarResourceDescription@@@@UBEPAVCXTPCalendarResourceDescription@@HH@Z
_TEXT	SEGMENT PARA USE32 PUBLIC 'CODE'
_TEXT	ENDS
;	COMDAT ?GetAt@?$CXTPCalendarPtrCollectionT@VCXTPCalendarResourceDescription@@@@UBEPAVCXTPCalendarResourceDescription@@H@Z
_TEXT	SEGMENT PARA USE32 PUBLIC 'CODE'
_TEXT	ENDS
;	COMDAT ?RemoveAt@?$CXTPCalendarPtrCollectionT@VCXTPCalendarResourceDescription@@@@UAEXH@Z
_TEXT	SEGMENT PARA USE32 PUBLIC 'CODE'
_TEXT	ENDS
;	COMDAT ?Remove@?$CXTPCalendarPtrCollectionT@VCXTPCalendarResourceDescription@@@@UAEXPAVCXTPCalendarResourceDescription@@@Z
_TEXT	SEGMENT PARA USE32 PUBLIC 'CODE'
_TEXT	ENDS
;	COMDAT ?RemoveAll@?$CXTPCalendarPtrCollectionT@VCXTPCalendarResourceDescription@@@@UAEXXZ
_TEXT	SEGMENT PARA USE32 PUBLIC 'CODE'
_TEXT	ENDS
;	COMDAT ??1?$CMap@VCString@@PBDVCOleVariant@@AAV2@@@UAE@XZ
_TEXT	SEGMENT PARA USE32 PUBLIC 'CODE'
_TEXT	ENDS
;	COMDAT ?Serialize@?$CMap@VCString@@PBDVCOleVariant@@AAV2@@@UAEXAAVCArchive@@@Z
_TEXT	SEGMENT PARA USE32 PUBLIC 'CODE'
_TEXT	ENDS
;	COMDAT ?GetSize@?$CArray@PAVCXTPTaskPanelItem@@PAV1@@@QBEHXZ
_TEXT	SEGMENT PARA USE32 PUBLIC 'CODE'
_TEXT	ENDS
;	COMDAT ?GetAt@?$CArray@PAVCXTPTaskPanelItem@@PAV1@@@QBEPAVCXTPTaskPanelItem@@H@Z
_TEXT	SEGMENT PARA USE32 PUBLIC 'CODE'
_TEXT	ENDS
;	COMDAT ??1?$CArray@PAVCXTPTaskPanelItem@@PAV1@@@UAE@XZ
_TEXT	SEGMENT PARA USE32 PUBLIC 'CODE'
_TEXT	ENDS
;	COMDAT ?Serialize@?$CArray@PAVCXTPTaskPanelItem@@PAV1@@@UAEXAAVCArchive@@@Z
_TEXT	SEGMENT PARA USE32 PUBLIC 'CODE'
_TEXT	ENDS
;	COMDAT ??1?$CArray@PAVCXTPShortcutBarItem@@PAV1@@@UAE@XZ
_TEXT	SEGMENT PARA USE32 PUBLIC 'CODE'
_TEXT	ENDS
;	COMDAT ?Serialize@?$CArray@PAVCXTPShortcutBarItem@@PAV1@@@UAEXAAVCArchive@@@Z
_TEXT	SEGMENT PARA USE32 PUBLIC 'CODE'
_TEXT	ENDS
;	COMDAT ??1?$CArray@PAVCXTPShortcutBarPaneItem@@PAV1@@@UAE@XZ
_TEXT	SEGMENT PARA USE32 PUBLIC 'CODE'
_TEXT	ENDS
;	COMDAT ?Serialize@?$CArray@PAVCXTPShortcutBarPaneItem@@PAV1@@@UAEXAAVCArchive@@@Z
_TEXT	SEGMENT PARA USE32 PUBLIC 'CODE'
_TEXT	ENDS
;	COMDAT ??1?$CMap@IIPAVCXTPSkinManagerSchemaProperty@@PAV1@@@UAE@XZ
_TEXT	SEGMENT PARA USE32 PUBLIC 'CODE'
_TEXT	ENDS
;	COMDAT ?Serialize@?$CMap@IIPAVCXTPSkinManagerSchemaProperty@@PAV1@@@UAEXAAVCArchive@@@Z
_TEXT	SEGMENT PARA USE32 PUBLIC 'CODE'
_TEXT	ENDS
;	COMDAT ??1?$CArray@PAUFRAMEREGION@CXTPSkinManagerSchema@@PAU12@@@UAE@XZ
_TEXT	SEGMENT PARA USE32 PUBLIC 'CODE'
_TEXT	ENDS
;	COMDAT ?Serialize@?$CArray@PAUFRAMEREGION@CXTPSkinManagerSchema@@PAU12@@@UAEXAAVCArchive@@@Z
_TEXT	SEGMENT PARA USE32 PUBLIC 'CODE'
_TEXT	ENDS
;	COMDAT ??1?$CList@UDEFWINDOW_DESCRIPTIOR@CXTPSkinObject@@AAU12@@@UAE@XZ
_TEXT	SEGMENT PARA USE32 PUBLIC 'CODE'
_TEXT	ENDS
;	COMDAT ?Serialize@?$CList@UDEFWINDOW_DESCRIPTIOR@CXTPSkinObject@@AAU12@@@UAEXAAVCArchive@@@Z
_TEXT	SEGMENT PARA USE32 PUBLIC 'CODE'
_TEXT	ENDS
;	COMDAT ??1?$CMap@PAUHWND__@@PAU1@PAVCXTPSkinObject@@PAV2@@@UAE@XZ
_TEXT	SEGMENT PARA USE32 PUBLIC 'CODE'
_TEXT	ENDS
;	COMDAT ?Serialize@?$CMap@PAUHWND__@@PAU1@PAVCXTPSkinObject@@PAV2@@@UAEXAAVCArchive@@@Z
_TEXT	SEGMENT PARA USE32 PUBLIC 'CODE'
_TEXT	ENDS
;	COMDAT ??1?$CArray@PAVCXTPSkinManagerColorFilter@@PAV1@@@UAE@XZ
_TEXT	SEGMENT PARA USE32 PUBLIC 'CODE'
_TEXT	ENDS
;	COMDAT ?Serialize@?$CArray@PAVCXTPSkinManagerColorFilter@@PAV1@@@UAEXAAVCArchive@@@Z
_TEXT	SEGMENT PARA USE32 PUBLIC 'CODE'
_TEXT	ENDS
;	COMDAT ??1?$CArray@UEXCLUDEDMODULE@CXTPSkinManagerApiHook@@AAU12@@@UAE@XZ
_TEXT	SEGMENT PARA USE32 PUBLIC 'CODE'
_TEXT	ENDS
;	COMDAT ?Serialize@?$CArray@UEXCLUDEDMODULE@CXTPSkinManagerApiHook@@AAU12@@@UAEXAAVCArchive@@@Z
_TEXT	SEGMENT PARA USE32 PUBLIC 'CODE'
_TEXT	ENDS
;	COMDAT ??1?$CArray@USOLIDRECT@CXTPSkinImage@@AAU12@@@UAE@XZ
_TEXT	SEGMENT PARA USE32 PUBLIC 'CODE'
_TEXT	ENDS
;	COMDAT ?Serialize@?$CArray@USOLIDRECT@CXTPSkinImage@@AAU12@@@UAEXAAVCArchive@@@Z
_TEXT	SEGMENT PARA USE32 PUBLIC 'CODE'
_TEXT	ENDS
;	COMDAT ??1?$CArray@PAVCCaptionButton@CXTPSkinObjectFrame@@PAV12@@@UAE@XZ
_TEXT	SEGMENT PARA USE32 PUBLIC 'CODE'
_TEXT	ENDS
;	COMDAT ?Serialize@?$CArray@PAVCCaptionButton@CXTPSkinObjectFrame@@PAV12@@@UAEXAAVCArchive@@@Z
_TEXT	SEGMENT PARA USE32 PUBLIC 'CODE'
_TEXT	ENDS
;	COMDAT ??1?$CMap@PAU_IMAGELIST@@PAU1@HH@@UAE@XZ
_TEXT	SEGMENT PARA USE32 PUBLIC 'CODE'
_TEXT	ENDS
;	COMDAT ?Serialize@?$CMap@PAU_IMAGELIST@@PAU1@HH@@UAEXAAVCArchive@@@Z
_TEXT	SEGMENT PARA USE32 PUBLIC 'CODE'
_TEXT	ENDS
;	COMDAT ?GetSize@?$CArray@PAVCXTPRibbonGroup@@PAV1@@@QBEHXZ
_TEXT	SEGMENT PARA USE32 PUBLIC 'CODE'
_TEXT	ENDS
;	COMDAT ?GetAt@?$CArray@PAVCXTPRibbonGroup@@PAV1@@@QBEPAVCXTPRibbonGroup@@H@Z
_TEXT	SEGMENT PARA USE32 PUBLIC 'CODE'
_TEXT	ENDS
;	COMDAT ??1?$CArray@PAVCXTPRibbonGroup@@PAV1@@@UAE@XZ
_TEXT	SEGMENT PARA USE32 PUBLIC 'CODE'
_TEXT	ENDS
;	COMDAT ?Serialize@?$CArray@PAVCXTPRibbonGroup@@PAV1@@@UAEXAAVCArchive@@@Z
_TEXT	SEGMENT PARA USE32 PUBLIC 'CODE'
_TEXT	ENDS
;	COMDAT ??1?$CArray@PAVCXTPRibbonTabContextHeader@@PAV1@@@UAE@XZ
_TEXT	SEGMENT PARA USE32 PUBLIC 'CODE'
_TEXT	ENDS
;	COMDAT ?Serialize@?$CArray@PAVCXTPRibbonTabContextHeader@@PAV1@@@UAEXAAVCArchive@@@Z
_TEXT	SEGMENT PARA USE32 PUBLIC 'CODE'
_TEXT	ENDS
;	COMDAT ??0?$CArray@HH@@QAE@XZ
_TEXT	SEGMENT PARA USE32 PUBLIC 'CODE'
_TEXT	ENDS
;	COMDAT ?SetSize@?$CArray@HH@@QAEXHH@Z
_TEXT	SEGMENT PARA USE32 PUBLIC 'CODE'
_TEXT	ENDS
;	COMDAT ??1?$CArray@HH@@UAE@XZ
_TEXT	SEGMENT PARA USE32 PUBLIC 'CODE'
_TEXT	ENDS
;	COMDAT ?Serialize@?$CArray@HH@@UAEXAAVCArchive@@@Z
_TEXT	SEGMENT PARA USE32 PUBLIC 'CODE'
_TEXT	ENDS
;	COMDAT ??0?$CArray@EE@@QAE@XZ
_TEXT	SEGMENT PARA USE32 PUBLIC 'CODE'
_TEXT	ENDS
;	COMDAT ?SetSize@?$CArray@EE@@QAEXHH@Z
_TEXT	SEGMENT PARA USE32 PUBLIC 'CODE'
_TEXT	ENDS
;	COMDAT ??1?$CArray@EE@@UAE@XZ
_TEXT	SEGMENT PARA USE32 PUBLIC 'CODE'
_TEXT	ENDS
;	COMDAT ?Serialize@?$CArray@EE@@UAEXAAVCArchive@@@Z
_TEXT	SEGMENT PARA USE32 PUBLIC 'CODE'
_TEXT	ENDS
;	COMDAT ?ElementAt@?$CArray@V?$CXTPSmartPtrInternalT@VCXTPRowInfo@CXTPSyntaxEditDrawTextProcessor@@@@ABV1@@@QAEAAV?$CXTPSmartPtrInternalT@VCXTPRowInfo@CXTPSyntaxEditDrawTextProcessor@@@@H@Z
_TEXT	SEGMENT PARA USE32 PUBLIC 'CODE'
_TEXT	ENDS
;	COMDAT ?Add@?$CArray@V?$CXTPSmartPtrInternalT@VCXTPRowInfo@CXTPSyntaxEditDrawTextProcessor@@@@ABV1@@@QAEHABV?$CXTPSmartPtrInternalT@VCXTPRowInfo@CXTPSyntaxEditDrawTextProcessor@@@@@Z
_TEXT	SEGMENT PARA USE32 PUBLIC 'CODE'
_TEXT	ENDS
;	COMDAT ??1?$CArray@V?$CXTPSmartPtrInternalT@VCXTPRowInfo@CXTPSyntaxEditDrawTextProcessor@@@@ABV1@@@UAE@XZ
_TEXT	SEGMENT PARA USE32 PUBLIC 'CODE'
_TEXT	ENDS
;	COMDAT ?Serialize@?$CArray@V?$CXTPSmartPtrInternalT@VCXTPRowInfo@CXTPSyntaxEditDrawTextProcessor@@@@ABV1@@@UAEXAAVCArchive@@@Z
_TEXT	SEGMENT PARA USE32 PUBLIC 'CODE'
_TEXT	ENDS
;	COMDAT ??1?$CMap@HHKK@@UAE@XZ
_TEXT	SEGMENT PARA USE32 PUBLIC 'CODE'
_TEXT	ENDS
;	COMDAT ?Serialize@?$CMap@HHKK@@UAEXAAVCArchive@@@Z
_TEXT	SEGMENT PARA USE32 PUBLIC 'CODE'
_TEXT	ENDS
;	COMDAT ??1?$CArray@PAUXTP_EDIT_ACDATA@@PAU1@@@UAE@XZ
_TEXT	SEGMENT PARA USE32 PUBLIC 'CODE'
_TEXT	ENDS
;	COMDAT ?Serialize@?$CArray@PAUXTP_EDIT_ACDATA@@PAU1@@@UAEXAAVCArchive@@@Z
_TEXT	SEGMENT PARA USE32 PUBLIC 'CODE'
_TEXT	ENDS
;	COMDAT ??1?$CArray@VCRect@@V1@@@UAE@XZ
_TEXT	SEGMENT PARA USE32 PUBLIC 'CODE'
_TEXT	ENDS
;	COMDAT ?Serialize@?$CArray@VCRect@@V1@@@UAEXAAVCArchive@@@Z
_TEXT	SEGMENT PARA USE32 PUBLIC 'CODE'
_TEXT	ENDS
;	COMDAT ?GetSize@?$CArray@PAVCXTPMarkupObject@@PAV1@@@QBEHXZ
_TEXT	SEGMENT PARA USE32 PUBLIC 'CODE'
_TEXT	ENDS
;	COMDAT ??A?$CArray@PAVCXTPMarkupObject@@PAV1@@@QBEPAVCXTPMarkupObject@@H@Z
_TEXT	SEGMENT PARA USE32 PUBLIC 'CODE'
_TEXT	ENDS
;	COMDAT ??1?$CArray@PAVCXTPMarkupObject@@PAV1@@@UAE@XZ
_TEXT	SEGMENT PARA USE32 PUBLIC 'CODE'
_TEXT	ENDS
;	COMDAT ?Serialize@?$CArray@PAVCXTPMarkupObject@@PAV1@@@UAEXAAVCArchive@@@Z
_TEXT	SEGMENT PARA USE32 PUBLIC 'CODE'
_TEXT	ENDS
;	COMDAT ??1?$CArray@MAAM@@UAE@XZ
_TEXT	SEGMENT PARA USE32 PUBLIC 'CODE'
_TEXT	ENDS
;	COMDAT ?Serialize@?$CArray@MAAM@@UAEXAAVCArchive@@@Z
_TEXT	SEGMENT PARA USE32 PUBLIC 'CODE'
_TEXT	ENDS
;	COMDAT ??1?$CMap@PAVCXTPMarkupRoutedEvent@@PAV1@PAVCPtrList@@PAV2@@@UAE@XZ
_TEXT	SEGMENT PARA USE32 PUBLIC 'CODE'
_TEXT	ENDS
;	COMDAT ?Serialize@?$CMap@PAVCXTPMarkupRoutedEvent@@PAV1@PAVCPtrList@@PAV2@@@UAEXAAVCArchive@@@Z
_TEXT	SEGMENT PARA USE32 PUBLIC 'CODE'
_TEXT	ENDS
;	COMDAT ??1?$CArray@UtagPOINT@@AAU1@@@UAE@XZ
_TEXT	SEGMENT PARA USE32 PUBLIC 'CODE'
_TEXT	ENDS
;	COMDAT ?Serialize@?$CArray@UtagPOINT@@AAU1@@@UAEXAAVCArchive@@@Z
_TEXT	SEGMENT PARA USE32 PUBLIC 'CODE'
_TEXT	ENDS
;	COMDAT ??1?$CArray@UMARKUP_POINTF@@AAU1@@@UAE@XZ
_TEXT	SEGMENT PARA USE32 PUBLIC 'CODE'
_TEXT	ENDS
;	COMDAT ?Serialize@?$CArray@UMARKUP_POINTF@@AAU1@@@UAEXAAVCArchive@@@Z
_TEXT	SEGMENT PARA USE32 PUBLIC 'CODE'
_TEXT	ENDS
;	COMDAT ??1?$CList@PAVCXTPMarkupObject@@PAV1@@@UAE@XZ
_TEXT	SEGMENT PARA USE32 PUBLIC 'CODE'
_TEXT	ENDS
;	COMDAT ?Serialize@?$CList@PAVCXTPMarkupObject@@PAV1@@@UAEXAAVCArchive@@@Z
_TEXT	SEGMENT PARA USE32 PUBLIC 'CODE'
_TEXT	ENDS
;	COMDAT ?GetSize@?$CArray@PAVCXTPChartElement@@PAV1@@@QBEHXZ
_TEXT	SEGMENT PARA USE32 PUBLIC 'CODE'
_TEXT	ENDS
;	COMDAT ?GetAt@?$CArray@PAVCXTPChartElement@@PAV1@@@QBEPAVCXTPChartElement@@H@Z
_TEXT	SEGMENT PARA USE32 PUBLIC 'CODE'
_TEXT	ENDS
;	COMDAT ??1?$CArray@PAVCXTPChartElement@@PAV1@@@UAE@XZ
_TEXT	SEGMENT PARA USE32 PUBLIC 'CODE'
_TEXT	ENDS
;	COMDAT ?Serialize@?$CArray@PAVCXTPChartElement@@PAV1@@@UAEXAAVCArchive@@@Z
_TEXT	SEGMENT PARA USE32 PUBLIC 'CODE'
_TEXT	ENDS
;	COMDAT ?GetSize@?$CArray@PAVCXTPChartElementView@@PAV1@@@QBEHXZ
_TEXT	SEGMENT PARA USE32 PUBLIC 'CODE'
_TEXT	ENDS
;	COMDAT ?GetAt@?$CArray@PAVCXTPChartElementView@@PAV1@@@QBEPAVCXTPChartElementView@@H@Z
_TEXT	SEGMENT PARA USE32 PUBLIC 'CODE'
_TEXT	ENDS
;	COMDAT ?GetData@?$CArray@PAVCXTPChartElementView@@PAV1@@@QAEPAPAVCXTPChartElementView@@XZ
_TEXT	SEGMENT PARA USE32 PUBLIC 'CODE'
_TEXT	ENDS
;	COMDAT ??1?$CArray@PAVCXTPChartElementView@@PAV1@@@UAE@XZ
_TEXT	SEGMENT PARA USE32 PUBLIC 'CODE'
_TEXT	ENDS
;	COMDAT ?Serialize@?$CArray@PAVCXTPChartElementView@@PAV1@@@UAEXAAVCArchive@@@Z
_TEXT	SEGMENT PARA USE32 PUBLIC 'CODE'
_TEXT	ENDS
;	COMDAT ??1?$CArray@PAVCXTPChartLegendItem@@PAV1@@@UAE@XZ
_TEXT	SEGMENT PARA USE32 PUBLIC 'CODE'
_TEXT	ENDS
;	COMDAT ?Serialize@?$CArray@PAVCXTPChartLegendItem@@PAV1@@@UAEXAAVCArchive@@@Z
_TEXT	SEGMENT PARA USE32 PUBLIC 'CODE'
_TEXT	ENDS
;	COMDAT ??1?$CArray@PAVCXTPChartSeries@@PAV1@@@UAE@XZ
_TEXT	SEGMENT PARA USE32 PUBLIC 'CODE'
_TEXT	ENDS
;	COMDAT ?Serialize@?$CArray@PAVCXTPChartSeries@@PAV1@@@UAEXAAVCArchive@@@Z
_TEXT	SEGMENT PARA USE32 PUBLIC 'CODE'
_TEXT	ENDS
;	COMDAT ??1?$CArray@PAVCXTPChartContainer@@PAV1@@@UAE@XZ
_TEXT	SEGMENT PARA USE32 PUBLIC 'CODE'
_TEXT	ENDS
;	COMDAT ?Serialize@?$CArray@PAVCXTPChartContainer@@PAV1@@@UAEXAAVCArchive@@@Z
_TEXT	SEGMENT PARA USE32 PUBLIC 'CODE'
_TEXT	ENDS
;	COMDAT ??1?$CArray@VCXTPChartRectF@@AAV1@@@UAE@XZ
_TEXT	SEGMENT PARA USE32 PUBLIC 'CODE'
_TEXT	ENDS
;	COMDAT ?Serialize@?$CArray@VCXTPChartRectF@@AAV1@@@UAEXAAVCArchive@@@Z
_TEXT	SEGMENT PARA USE32 PUBLIC 'CODE'
_TEXT	ENDS
;	COMDAT ??1?$CArray@PAVCXTPChartDeviceCommand@@PAV1@@@UAE@XZ
_TEXT	SEGMENT PARA USE32 PUBLIC 'CODE'
_TEXT	ENDS
;	COMDAT ?Serialize@?$CArray@PAVCXTPChartDeviceCommand@@PAV1@@@UAEXAAVCArchive@@@Z
_TEXT	SEGMENT PARA USE32 PUBLIC 'CODE'
_TEXT	ENDS
;	COMDAT ??1?$CArray@VCXTPChartPointF@@ABV1@@@UAE@XZ
_TEXT	SEGMENT PARA USE32 PUBLIC 'CODE'
_TEXT	ENDS
;	COMDAT ?Serialize@?$CArray@VCXTPChartPointF@@ABV1@@@UAEXAAVCArchive@@@Z
_TEXT	SEGMENT PARA USE32 PUBLIC 'CODE'
_TEXT	ENDS
;	COMDAT ??1?$CArray@VCXTPChartAxisViewTick@@AAV1@@@UAE@XZ
_TEXT	SEGMENT PARA USE32 PUBLIC 'CODE'
_TEXT	ENDS
;	COMDAT ?Serialize@?$CArray@VCXTPChartAxisViewTick@@AAV1@@@UAEXAAVCArchive@@@Z
_TEXT	SEGMENT PARA USE32 PUBLIC 'CODE'
_TEXT	ENDS
;	COMDAT ??1?$CArray@PAVCXTPChartSeriesView@@PAV1@@@UAE@XZ
_TEXT	SEGMENT PARA USE32 PUBLIC 'CODE'
_TEXT	ENDS
;	COMDAT ?Serialize@?$CArray@PAVCXTPChartSeriesView@@PAV1@@@UAEXAAVCArchive@@@Z
_TEXT	SEGMENT PARA USE32 PUBLIC 'CODE'
_TEXT	ENDS
;	COMDAT ??1?$CArray@VCString@@ABV1@@@UAE@XZ
_TEXT	SEGMENT PARA USE32 PUBLIC 'CODE'
_TEXT	ENDS
;	COMDAT ?Serialize@?$CArray@VCString@@ABV1@@@UAEXAAVCArchive@@@Z
_TEXT	SEGMENT PARA USE32 PUBLIC 'CODE'
_TEXT	ENDS
;	COMDAT ?GetSize@?$CArray@VCXTPChartPaletteEntry@@AAV1@@@QBEHXZ
_TEXT	SEGMENT PARA USE32 PUBLIC 'CODE'
_TEXT	ENDS
;	COMDAT ??1?$CArray@VCXTPChartPaletteEntry@@AAV1@@@UAE@XZ
_TEXT	SEGMENT PARA USE32 PUBLIC 'CODE'
_TEXT	ENDS
;	COMDAT ?Serialize@?$CArray@VCXTPChartPaletteEntry@@AAV1@@@UAEXAAVCArchive@@@Z
_TEXT	SEGMENT PARA USE32 PUBLIC 'CODE'
_TEXT	ENDS
;	COMDAT ??1?$CArray@UDRAGNODE@CXTPFlowGraphControl@@AAU12@@@UAE@XZ
_TEXT	SEGMENT PARA USE32 PUBLIC 'CODE'
_TEXT	ENDS
;	COMDAT ?Serialize@?$CArray@UDRAGNODE@CXTPFlowGraphControl@@AAU12@@@UAEXAAVCArchive@@@Z
_TEXT	SEGMENT PARA USE32 PUBLIC 'CODE'
_TEXT	ENDS
;	COMDAT ?GetSize@?$CArray@PAVCXTPFlowGraphPage@@PAV1@@@QBEHXZ
_TEXT	SEGMENT PARA USE32 PUBLIC 'CODE'
_TEXT	ENDS
;	COMDAT ??A?$CArray@PAVCXTPFlowGraphPage@@PAV1@@@QBEPAVCXTPFlowGraphPage@@H@Z
_TEXT	SEGMENT PARA USE32 PUBLIC 'CODE'
_TEXT	ENDS
;	COMDAT ??1?$CArray@PAVCXTPFlowGraphPage@@PAV1@@@UAE@XZ
_TEXT	SEGMENT PARA USE32 PUBLIC 'CODE'
_TEXT	ENDS
;	COMDAT ?Serialize@?$CArray@PAVCXTPFlowGraphPage@@PAV1@@@UAEXAAVCArchive@@@Z
_TEXT	SEGMENT PARA USE32 PUBLIC 'CODE'
_TEXT	ENDS
;	COMDAT ?GetSize@?$CArray@PAVCXTPFlowGraphNode@@PAV1@@@QBEHXZ
_TEXT	SEGMENT PARA USE32 PUBLIC 'CODE'
_TEXT	ENDS
;	COMDAT ??A?$CArray@PAVCXTPFlowGraphNode@@PAV1@@@QBEPAVCXTPFlowGraphNode@@H@Z
_TEXT	SEGMENT PARA USE32 PUBLIC 'CODE'
_TEXT	ENDS
;	COMDAT ??1?$CArray@PAVCXTPFlowGraphNode@@PAV1@@@UAE@XZ
_TEXT	SEGMENT PARA USE32 PUBLIC 'CODE'
_TEXT	ENDS
;	COMDAT ?Serialize@?$CArray@PAVCXTPFlowGraphNode@@PAV1@@@UAEXAAVCArchive@@@Z
_TEXT	SEGMENT PARA USE32 PUBLIC 'CODE'
_TEXT	ENDS
;	COMDAT ?GetSize@?$CArray@PAVCXTPFlowGraphConnectionPoint@@PAV1@@@QBEHXZ
_TEXT	SEGMENT PARA USE32 PUBLIC 'CODE'
_TEXT	ENDS
;	COMDAT ??A?$CArray@PAVCXTPFlowGraphConnectionPoint@@PAV1@@@QBEPAVCXTPFlowGraphConnectionPoint@@H@Z
_TEXT	SEGMENT PARA USE32 PUBLIC 'CODE'
_TEXT	ENDS
;	COMDAT ??1?$CArray@PAVCXTPFlowGraphConnectionPoint@@PAV1@@@UAE@XZ
_TEXT	SEGMENT PARA USE32 PUBLIC 'CODE'
_TEXT	ENDS
;	COMDAT ?Serialize@?$CArray@PAVCXTPFlowGraphConnectionPoint@@PAV1@@@UAEXAAVCArchive@@@Z
_TEXT	SEGMENT PARA USE32 PUBLIC 'CODE'
_TEXT	ENDS
;	COMDAT ?GetSize@?$CArray@PAVCXTPFlowGraphConnection@@PAV1@@@QBEHXZ
_TEXT	SEGMENT PARA USE32 PUBLIC 'CODE'
_TEXT	ENDS
;	COMDAT ??A?$CArray@PAVCXTPFlowGraphConnection@@PAV1@@@QBEPAVCXTPFlowGraphConnection@@H@Z
_TEXT	SEGMENT PARA USE32 PUBLIC 'CODE'
_TEXT	ENDS
;	COMDAT ??1?$CArray@PAVCXTPFlowGraphConnection@@PAV1@@@UAE@XZ
_TEXT	SEGMENT PARA USE32 PUBLIC 'CODE'
_TEXT	ENDS
;	COMDAT ?Serialize@?$CArray@PAVCXTPFlowGraphConnection@@PAV1@@@UAEXAAVCArchive@@@Z
_TEXT	SEGMENT PARA USE32 PUBLIC 'CODE'
_TEXT	ENDS
;	COMDAT ?GetSize@?$CArray@PAVCXTPFlowGraphElement@@PAV1@@@QBEHXZ
_TEXT	SEGMENT PARA USE32 PUBLIC 'CODE'
_TEXT	ENDS
;	COMDAT ??A?$CArray@PAVCXTPFlowGraphElement@@PAV1@@@QBEPAVCXTPFlowGraphElement@@H@Z
_TEXT	SEGMENT PARA USE32 PUBLIC 'CODE'
_TEXT	ENDS
;	COMDAT ??1?$CArray@PAVCXTPFlowGraphElement@@PAV1@@@UAE@XZ
_TEXT	SEGMENT PARA USE32 PUBLIC 'CODE'
_TEXT	ENDS
;	COMDAT ?Serialize@?$CArray@PAVCXTPFlowGraphElement@@PAV1@@@UAEXAAVCArchive@@@Z
_TEXT	SEGMENT PARA USE32 PUBLIC 'CODE'
_TEXT	ENDS
;	COMDAT ??1?$CArray@PAVCXTPFlowGraphUndoCommand@@PAV1@@@UAE@XZ
_TEXT	SEGMENT PARA USE32 PUBLIC 'CODE'
_TEXT	ENDS
;	COMDAT ?Serialize@?$CArray@PAVCXTPFlowGraphUndoCommand@@PAV1@@@UAEXAAVCArchive@@@Z
_TEXT	SEGMENT PARA USE32 PUBLIC 'CODE'
_TEXT	ENDS
;	COMDAT ??1?$CArray@PAVCXTPFlowGraphUndoGroupCommand@@PAV1@@@UAE@XZ
_TEXT	SEGMENT PARA USE32 PUBLIC 'CODE'
_TEXT	ENDS
;	COMDAT ?Serialize@?$CArray@PAVCXTPFlowGraphUndoGroupCommand@@PAV1@@@UAEXAAVCArchive@@@Z
_TEXT	SEGMENT PARA USE32 PUBLIC 'CODE'
_TEXT	ENDS
;	COMDAT ?GetSize@?$CArray@PAVCXTPFlowGraphNodeGroup@@PAV1@@@QBEHXZ
_TEXT	SEGMENT PARA USE32 PUBLIC 'CODE'
_TEXT	ENDS
;	COMDAT ??A?$CArray@PAVCXTPFlowGraphNodeGroup@@PAV1@@@QBEPAVCXTPFlowGraphNodeGroup@@H@Z
_TEXT	SEGMENT PARA USE32 PUBLIC 'CODE'
_TEXT	ENDS
;	COMDAT ??1?$CArray@PAVCXTPFlowGraphNodeGroup@@PAV1@@@UAE@XZ
_TEXT	SEGMENT PARA USE32 PUBLIC 'CODE'
_TEXT	ENDS
;	COMDAT ?Serialize@?$CArray@PAVCXTPFlowGraphNodeGroup@@PAV1@@@UAEXAAVCArchive@@@Z
_TEXT	SEGMENT PARA USE32 PUBLIC 'CODE'
_TEXT	ENDS
;	COMDAT ?GetSize@?$CArray@PAVCXTPFlowGraphImage@@PAV1@@@QBEHXZ
_TEXT	SEGMENT PARA USE32 PUBLIC 'CODE'
_TEXT	ENDS
;	COMDAT ??A?$CArray@PAVCXTPFlowGraphImage@@PAV1@@@QBEPAVCXTPFlowGraphImage@@H@Z
_TEXT	SEGMENT PARA USE32 PUBLIC 'CODE'
_TEXT	ENDS
;	COMDAT ??1?$CArray@PAVCXTPFlowGraphImage@@PAV1@@@UAE@XZ
_TEXT	SEGMENT PARA USE32 PUBLIC 'CODE'
_TEXT	ENDS
;	COMDAT ?Serialize@?$CArray@PAVCXTPFlowGraphImage@@PAV1@@@UAEXAAVCArchive@@@Z
_TEXT	SEGMENT PARA USE32 PUBLIC 'CODE'
_TEXT	ENDS
;	COMDAT ??1?$CArray@UCXTPFlowGraphPageHistoryItem@@AAU1@@@UAE@XZ
_TEXT	SEGMENT PARA USE32 PUBLIC 'CODE'
_TEXT	ENDS
;	COMDAT ?Serialize@?$CArray@UCXTPFlowGraphPageHistoryItem@@AAU1@@@UAEXAAVCArchive@@@Z
_TEXT	SEGMENT PARA USE32 PUBLIC 'CODE'
_TEXT	ENDS
;	COMDAT ??1?$CMap@IIPAVCWnd@@PAV1@@@UAE@XZ
_TEXT	SEGMENT PARA USE32 PUBLIC 'CODE'
_TEXT	ENDS
;	COMDAT ?Serialize@?$CMap@IIPAVCWnd@@PAV1@@@UAEXAAVCArchive@@@Z
_TEXT	SEGMENT PARA USE32 PUBLIC 'CODE'
_TEXT	ENDS
;	COMDAT ??_G?$CList@PAUClientContext@@PAU1@@@UAEPAXI@Z
_TEXT	SEGMENT PARA USE32 PUBLIC 'CODE'
_TEXT	ENDS
;	COMDAT ??_G?$CMap@IIPAUDLGTEMPLATE@@PAU1@@@UAEPAXI@Z
_TEXT	SEGMENT PARA USE32 PUBLIC 'CODE'
_TEXT	ENDS
;	COMDAT ??_G?$CArray@PAUXTP_IMAGERESOURCE_INFO@@PAU1@@@UAEPAXI@Z
_TEXT	SEGMENT PARA USE32 PUBLIC 'CODE'
_TEXT	ENDS
;	COMDAT ??_G?$CMap@IIPAVCXTPImageManagerIcon@@PAV1@@@UAEPAXI@Z
_TEXT	SEGMENT PARA USE32 PUBLIC 'CODE'
_TEXT	ENDS
;	COMDAT ??_G?$CMap@IIPAVCXTPImageManagerIconSet@@PAV1@@@UAEPAXI@Z
_TEXT	SEGMENT PARA USE32 PUBLIC 'CODE'
_TEXT	ENDS
;	COMDAT ??_G?$CArray@PAVCXTPImageManagerImageList@@PAV1@@@UAEPAXI@Z
_TEXT	SEGMENT PARA USE32 PUBLIC 'CODE'
_TEXT	ENDS
;	COMDAT ??_G?$CMap@KKPAVCXTPImageManagerResource@@PAV1@@@UAEPAXI@Z
_TEXT	SEGMENT PARA USE32 PUBLIC 'CODE'
_TEXT	ENDS
;	COMDAT ??_G?$CArray@PAUTOOLITEM@CXTPToolTipContextToolTip@@PAU12@@@UAEPAXI@Z
_TEXT	SEGMENT PARA USE32 PUBLIC 'CODE'
_TEXT	ENDS
;	COMDAT ??_G?$CMap@IIPAVCXTPResourceImage@@PAV1@@@UAEPAXI@Z
_TEXT	SEGMENT PARA USE32 PUBLIC 'CODE'
_TEXT	ENDS
;	COMDAT ??_G?$CArray@PAUCONNECTION_DESCRIPTOR@CXTPNotifyConnection@@PAU12@@@UAEPAXI@Z
_TEXT	SEGMENT PARA USE32 PUBLIC 'CODE'
_TEXT	ENDS
;	COMDAT ??_G?$CArray@UCONNECTION_DESCRIPTOR@CXTPNotifyConnection@@AAU12@@@UAEPAXI@Z
_TEXT	SEGMENT PARA USE32 PUBLIC 'CODE'
_TEXT	ENDS
;	COMDAT ??_G?$CMap@KAAKUADVISE_DESCRIPTOR@CXTPNotifySink@@AAU12@@@UAEPAXI@Z
_TEXT	SEGMENT PARA USE32 PUBLIC 'CODE'
_TEXT	ENDS
;	COMDAT ??_G?$CMap@KKV?$XTP_MAPHANDLER_T@$03@@AAV1@@@UAEPAXI@Z
_TEXT	SEGMENT PARA USE32 PUBLIC 'CODE'
_TEXT	ENDS
;	COMDAT ??_G?$CMap@KKUXTP_INTER_THREAD_EVENT_DATA@@AAU1@@@UAEPAXI@Z
_TEXT	SEGMENT PARA USE32 PUBLIC 'CODE'
_TEXT	ENDS
;	COMDAT ??_G?$CMap@PAUHWND__@@PAU1@PAXPAX@@UAEPAXI@Z
_TEXT	SEGMENT PARA USE32 PUBLIC 'CODE'
_TEXT	ENDS
;	COMDAT ??_G?$CArray@PAVCXTPTabManagerAtom@@PAV1@@@UAEPAXI@Z
_TEXT	SEGMENT PARA USE32 PUBLIC 'CODE'
_TEXT	ENDS
;	COMDAT ??_G?$CArray@PAVCXTPTabManagerNavigateButton@@PAV1@@@UAEPAXI@Z
_TEXT	SEGMENT PARA USE32 PUBLIC 'CODE'
_TEXT	ENDS
;	COMDAT ??_G?$CArray@PAVCXTPTabManagerItem@@PAV1@@@UAEPAXI@Z
_TEXT	SEGMENT PARA USE32 PUBLIC 'CODE'
_TEXT	ENDS
;	COMDAT ??_G?$CList@PAUCONTENT_ITEM@CXTPShortcutListBox@@PAU12@@@UAEPAXI@Z
_TEXT	SEGMENT PARA USE32 PUBLIC 'CODE'
_TEXT	ENDS
;	COMDAT ??_G?$CList@VCXTPLogFont@@AAV1@@@UAEPAXI@Z
_TEXT	SEGMENT PARA USE32 PUBLIC 'CODE'
_TEXT	ENDS
;	COMDAT ??_G?$CList@PAVCXTPTcbItem@@PAV1@@@UAEPAXI@Z
_TEXT	SEGMENT PARA USE32 PUBLIC 'CODE'
_TEXT	ENDS
;	COMDAT ??_G?$CArray@PAVCXTPTcbItem@@PAV1@@@UAEPAXI@Z
_TEXT	SEGMENT PARA USE32 PUBLIC 'CODE'
_TEXT	ENDS
;	COMDAT ??_G?$CList@PAUMDICHILD@CXTPMDIWndTab@@PAU12@@@UAEPAXI@Z
_TEXT	SEGMENT PARA USE32 PUBLIC 'CODE'
_TEXT	ENDS
;	COMDAT ??_G?$CMap@PAUHWND__@@PAU1@PAUHICON__@@AAPAU2@@@UAEPAXI@Z
_TEXT	SEGMENT PARA USE32 PUBLIC 'CODE'
_TEXT	ENDS
;	COMDAT ??_G?$CMap@PAUHWND__@@PAU1@VCString@@AAV2@@@UAEPAXI@Z
_TEXT	SEGMENT PARA USE32 PUBLIC 'CODE'
_TEXT	ENDS
;	COMDAT ??_G?$CArray@PAVCXTPResizeItem@@AAPAV1@@@UAEPAXI@Z
_TEXT	SEGMENT PARA USE32 PUBLIC 'CODE'
_TEXT	ENDS
;	COMDAT ??_G?$CArray@UtagRECT@@AAU1@@@UAEPAXI@Z
_TEXT	SEGMENT PARA USE32 PUBLIC 'CODE'
_TEXT	ENDS
;	COMDAT ??_G?$CArray@PAULINKITEM@CXTPTaskDialogLinkCtrl@@PAU12@@@UAEPAXI@Z
_TEXT	SEGMENT PARA USE32 PUBLIC 'CODE'
_TEXT	ENDS
;	COMDAT ??_G?$CArray@PAVCButton@@PAV1@@@UAEPAXI@Z
_TEXT	SEGMENT PARA USE32 PUBLIC 'CODE'
_TEXT	ENDS
;	COMDAT ??_G?$CMap@PAVCWnd@@PAV1@UtagSIZE@@AAU2@@@UAEPAXI@Z
_TEXT	SEGMENT PARA USE32 PUBLIC 'CODE'
_TEXT	ENDS
;	COMDAT ??_G?$CArray@U_TASKDIALOG_BUTTON@XTPTaskDialogAPI@@AAU12@@@UAEPAXI@Z
_TEXT	SEGMENT PARA USE32 PUBLIC 'CODE'
_TEXT	ENDS
;	COMDAT ??_G?$CList@PAVCRgnCell@CXTPColorHex@@PAV12@@@UAEPAXI@Z
_TEXT	SEGMENT PARA USE32 PUBLIC 'CODE'
_TEXT	ENDS
;	COMDAT ??_G?$CArray@PAVCXTPPropertyPage@@PAV1@@@UAEPAXI@Z
_TEXT	SEGMENT PARA USE32 PUBLIC 'CODE'
_TEXT	ENDS
;	COMDAT ??_G?$CArray@PAUHWND__@@PAU1@@@UAEPAXI@Z
_TEXT	SEGMENT PARA USE32 PUBLIC 'CODE'
_TEXT	ENDS
;	COMDAT ??_G?$CList@PAUCOLOR_CELL@CXTPColorSelectorCtrl@@PAU12@@@UAEPAXI@Z
_TEXT	SEGMENT PARA USE32 PUBLIC 'CODE'
_TEXT	ENDS
;	COMDAT ??_G?$CArray@PAVCXTPPopupItem@@PAV1@@@UAEPAXI@Z
_TEXT	SEGMENT PARA USE32 PUBLIC 'CODE'
_TEXT	ENDS
;	COMDAT ??_G?$CMap@PAXPAXUCLRFONT@CXTPTreeBase@@AAU12@@@UAEPAXI@Z
_TEXT	SEGMENT PARA USE32 PUBLIC 'CODE'
_TEXT	ENDS
;	COMDAT ??_G?$CList@HAAH@@UAEPAXI@Z
_TEXT	SEGMENT PARA USE32 PUBLIC 'CODE'
_TEXT	ENDS
;	COMDAT ??_G?$CList@UROWCOLOR@CXTPListBase@@AAU12@@@UAEPAXI@Z
_TEXT	SEGMENT PARA USE32 PUBLIC 'CODE'
_TEXT	ENDS
;	COMDAT ??_G?$CList@UTRAYICONDATA@CXTPTrayIcon@@AAU12@@@UAEPAXI@Z
_TEXT	SEGMENT PARA USE32 PUBLIC 'CODE'
_TEXT	ENDS
;	COMDAT ??0TRAYICONDATA@CXTPTrayIcon@@QAE@XZ
_TEXT	SEGMENT PARA USE32 PUBLIC 'CODE'
_TEXT	ENDS
;	COMDAT ??1TRAYICONDATA@CXTPTrayIcon@@QAE@XZ
_TEXT	SEGMENT PARA USE32 PUBLIC 'CODE'
_TEXT	ENDS
;	COMDAT ??_G?$CList@PAVCResizeWnd@CXTPSearchOptionsView@@PAV12@@@UAEPAXI@Z
_TEXT	SEGMENT PARA USE32 PUBLIC 'CODE'
_TEXT	ENDS
;	COMDAT ??_G?$CList@PAVCXTOutBarItem@@PAV1@@@UAEPAXI@Z
_TEXT	SEGMENT PARA USE32 PUBLIC 'CODE'
_TEXT	ENDS
;	COMDAT ??_G?$CArray@PAVCXTPCommandBar@@PAV1@@@UAEPAXI@Z
_TEXT	SEGMENT PARA USE32 PUBLIC 'CODE'
_TEXT	ENDS
;	COMDAT ??_G?$CMap@IIPAVCXTPMenuBarMDIMenuInfo@@PAV1@@@UAEPAXI@Z
_TEXT	SEGMENT PARA USE32 PUBLIC 'CODE'
_TEXT	ENDS
;	COMDAT ??_G?$CArray@PAVCXTPControl@@PAV1@@@UAEPAXI@Z
_TEXT	SEGMENT PARA USE32 PUBLIC 'CODE'
_TEXT	ENDS
;	COMDAT ??_G?$CArray@PAVCXTPControlAction@@PAV1@@@UAEPAXI@Z
_TEXT	SEGMENT PARA USE32 PUBLIC 'CODE'
_TEXT	ENDS
;	COMDAT ??_G?$CMap@IIHH@@UAEPAXI@Z
_TEXT	SEGMENT PARA USE32 PUBLIC 'CODE'
_TEXT	ENDS
;	COMDAT ??_G?$CArray@PAVCXTPStatusBarPane@@PAV1@@@UAEPAXI@Z
_TEXT	SEGMENT PARA USE32 PUBLIC 'CODE'
_TEXT	ENDS
;	COMDAT ??_G?$CArray@PAUSWITCH@CXTPStatusBarSwitchPane@@PAU12@@@UAEPAXI@Z
_TEXT	SEGMENT PARA USE32 PUBLIC 'CODE'
_TEXT	ENDS
;	COMDAT ??_G?$CArray@PAVCXTPMessageBarButton@@PAV1@@@UAEPAXI@Z
_TEXT	SEGMENT PARA USE32 PUBLIC 'CODE'
_TEXT	ENDS
;	COMDAT ??_G?$CArray@PAVCXTPCommandBarKeyboardTip@@PAV1@@@UAEPAXI@Z
_TEXT	SEGMENT PARA USE32 PUBLIC 'CODE'
_TEXT	ENDS
;	COMDAT ??_G?$CArray@PAVCXTPToolBar@@PAV1@@@UAEPAXI@Z
_TEXT	SEGMENT PARA USE32 PUBLIC 'CODE'
_TEXT	ENDS
;	COMDAT ??_G?$CArray@PAVCXTPShortcutManagerAccel@@PAV1@@@UAEPAXI@Z
_TEXT	SEGMENT PARA USE32 PUBLIC 'CODE'
_TEXT	ENDS
;	COMDAT ??_G?$CMap@GGVCString@@V1@@@UAEPAXI@Z
_TEXT	SEGMENT PARA USE32 PUBLIC 'CODE'
_TEXT	ENDS
;	COMDAT ??_G?$CArray@PAVCFontDesc@CXTPControlFontComboBoxList@@PAV12@@@UAEPAXI@Z
_TEXT	SEGMENT PARA USE32 PUBLIC 'CODE'
_TEXT	ENDS
;	COMDAT ??_G?$CArray@PAVCXTPControlGalleryItem@@PAV1@@@UAEPAXI@Z
_TEXT	SEGMENT PARA USE32 PUBLIC 'CODE'
_TEXT	ENDS
;	COMDAT ??_G?$CArray@UGALLERYITEM_POSITION@CXTPControlGallery@@AAU12@@@UAEPAXI@Z
_TEXT	SEGMENT PARA USE32 PUBLIC 'CODE'
_TEXT	ENDS
;	COMDAT ??_G?$CList@PAVCXTPHookManagerHookAble@@PAV1@@@UAEPAXI@Z
_TEXT	SEGMENT PARA USE32 PUBLIC 'CODE'
_TEXT	ENDS
;	COMDAT ??_G?$CArray@PAVCWorkspace@CXTPTabClientWnd@@PAV12@@@UAEPAXI@Z
_TEXT	SEGMENT PARA USE32 PUBLIC 'CODE'
_TEXT	ENDS
;	COMDAT ??_G?$CList@PAVCAlphaBitmap@CXTPImageEditorPicture@@PAV12@@@UAEPAXI@Z
_TEXT	SEGMENT PARA USE32 PUBLIC 'CODE'
_TEXT	ENDS
;	COMDAT ??_G?$CArray@PAUXTP_COMMANDBARS_CATEGORYINFO@@PAU1@@@UAEPAXI@Z
_TEXT	SEGMENT PARA USE32 PUBLIC 'CODE'
_TEXT	ENDS
;	COMDAT ??_G?$CArray@PAVCXTPDockingPaneCaptionButton@@PAV1@@@UAEPAXI@Z
_TEXT	SEGMENT PARA USE32 PUBLIC 'CODE'
_TEXT	ENDS
;	COMDAT ??_G?$CList@PAVCXTPDockingPaneBase@@PAV1@@@UAEPAXI@Z
_TEXT	SEGMENT PARA USE32 PUBLIC 'CODE'
_TEXT	ENDS
;	COMDAT ??_G?$CArray@VCRect@@AAV1@@@UAEPAXI@Z
_TEXT	SEGMENT PARA USE32 PUBLIC 'CODE'
_TEXT	ENDS
;	COMDAT ??_G?$CList@UXTP_DOCKINGPANE_INFO@@AAU1@@@UAEPAXI@Z
_TEXT	SEGMENT PARA USE32 PUBLIC 'CODE'
_TEXT	ENDS
;	COMDAT ??_G?$CList@PAVCXTPDockingPaneContextStickerWnd@@PAV1@@@UAEPAXI@Z
_TEXT	SEGMENT PARA USE32 PUBLIC 'CODE'
_TEXT	ENDS
;	COMDAT ??_G?$CMap@IIPAVCRgn@@PAV1@@@UAEPAXI@Z
_TEXT	SEGMENT PARA USE32 PUBLIC 'CODE'
_TEXT	ENDS
;	COMDAT ??_G?$CList@PAVCXTPDockingPaneSplitterWnd@@PAV1@@@UAEPAXI@Z
_TEXT	SEGMENT PARA USE32 PUBLIC 'CODE'
_TEXT	ENDS
;	COMDAT ??_G?$CArray@PAVCXTPPropertyGridInplaceControl@@PAV1@@@UAEPAXI@Z
_TEXT	SEGMENT PARA USE32 PUBLIC 'CODE'
_TEXT	ENDS
;	COMDAT ??_G?$CArray@PAVCXTPPropertyGridInplaceButton@@PAV1@@@UAEPAXI@Z
_TEXT	SEGMENT PARA USE32 PUBLIC 'CODE'
_TEXT	ENDS
;	COMDAT ??_G?$CArray@PAVCXTPPropertyGridItem@@PAV1@@@UAEPAXI@Z
_TEXT	SEGMENT PARA USE32 PUBLIC 'CODE'
_TEXT	ENDS
;	COMDAT ??_G?$CArray@PAVCXTPPropertyGridItemConstraint@@PAV1@@@UAEPAXI@Z
_TEXT	SEGMENT PARA USE32 PUBLIC 'CODE'
_TEXT	ENDS
;	COMDAT ??_G?$CMap@IIHAAH@@UAEPAXI@Z
_TEXT	SEGMENT PARA USE32 PUBLIC 'CODE'
_TEXT	ENDS
;	COMDAT ??_G?$CArray@PAVCXTPPropertyGridVerb@@PAV1@@@UAEPAXI@Z
_TEXT	SEGMENT PARA USE32 PUBLIC 'CODE'
_TEXT	ENDS
;	COMDAT ??_G?$CArray@PAVCXTPReportColumn@@PAV1@@@UAEPAXI@Z
_TEXT	SEGMENT PARA USE32 PUBLIC 'CODE'
_TEXT	ENDS
;	COMDAT ??_G?$CArray@PAVCXTPReportRow@@PAV1@@@UAEPAXI@Z
_TEXT	SEGMENT PARA USE32 PUBLIC 'CODE'
_TEXT	ENDS
;	COMDAT ??_G?$CArray@USELECTED_BLOCK@CXTPReportSelectedRows@@AAU12@@@UAEPAXI@Z
_TEXT	SEGMENT PARA USE32 PUBLIC 'CODE'
_TEXT	ENDS
;	COMDAT ??_G?$CMap@PAVCXTPReportColumn@@PAV1@VCRect@@V2@@@UAEPAXI@Z
_TEXT	SEGMENT PARA USE32 PUBLIC 'CODE'
_TEXT	ENDS
;	COMDAT ??_G?$CArray@UXTP_TIMESPEC@CXTPReportControlLocale@@AAU12@@@UAEPAXI@Z
_TEXT	SEGMENT PARA USE32 PUBLIC 'CODE'
_TEXT	ENDS
;	COMDAT ??_G?$CArray@PAVCXTPReportHyperlink@@PAV1@@@UAEPAXI@Z
_TEXT	SEGMENT PARA USE32 PUBLIC 'CODE'
_TEXT	ENDS
;	COMDAT ??_G?$CXTPArrayT@PAVCXTPReportHyperlink@@PAV1@PAUIDispatch@@@@UAEPAXI@Z
_TEXT	SEGMENT PARA USE32 PUBLIC 'CODE'
_TEXT	ENDS
;	COMDAT ??_G?$CArray@PAVCXTPReportRecordItem@@PAV1@@@UAEPAXI@Z
_TEXT	SEGMENT PARA USE32 PUBLIC 'CODE'
_TEXT	ENDS
;	COMDAT ??_G?$CArray@PAVCXTPReportRecordItemConstraint@@PAV1@@@UAEPAXI@Z
_TEXT	SEGMENT PARA USE32 PUBLIC 'CODE'
_TEXT	ENDS
;	COMDAT ??_G?$CArray@PAVCXTPReportInplaceButton@@PAV1@@@UAEPAXI@Z
_TEXT	SEGMENT PARA USE32 PUBLIC 'CODE'
_TEXT	ENDS
;	COMDAT ??_G?$CArray@PAVCXTPReportRecord@@PAV1@@@UAEPAXI@Z
_TEXT	SEGMENT PARA USE32 PUBLIC 'CODE'
_TEXT	ENDS
;	COMDAT ??_G?$CMap@HHHH@@UAEPAXI@Z
_TEXT	SEGMENT PARA USE32 PUBLIC 'CODE'
_TEXT	ENDS
;	COMDAT ??_G?$CArray@PAVCXTPReportRecordItemControl@@PAV1@@@UAEPAXI@Z
_TEXT	SEGMENT PARA USE32 PUBLIC 'CODE'
_TEXT	ENDS
;	COMDAT ??_G?$CXTPArrayT@PAVCXTPReportRecordItemControl@@PAV1@PAUIDispatch@@@@UAEPAXI@Z
_TEXT	SEGMENT PARA USE32 PUBLIC 'CODE'
_TEXT	ENDS
;	COMDAT ??_G?$CArray@W4EventReasonEnum@XTPREPORTADODB@@AAW412@@@UAEPAXI@Z
_TEXT	SEGMENT PARA USE32 PUBLIC 'CODE'
_TEXT	ENDS
;	COMDAT ??_G?$CArray@PAUXTP_REPORTDATAMANAGER_COM_ERROR@@PAU1@@@UAEPAXI@Z
_TEXT	SEGMENT PARA USE32 PUBLIC 'CODE'
_TEXT	ENDS
;	COMDAT ??_G?$CArray@PAVCXTPTrackMarker@@PAV1@@@UAEPAXI@Z
_TEXT	SEGMENT PARA USE32 PUBLIC 'CODE'
_TEXT	ENDS
;	COMDAT ??_G?$CArray@PAVCXTPTrackBlock@@PAV1@@@UAEPAXI@Z
_TEXT	SEGMENT PARA USE32 PUBLIC 'CODE'
_TEXT	ENDS
;	COMDAT ??_G?$CArray@UDRAGBLOCK@CXTPTrackControl@@AAU12@@@UAEPAXI@Z
_TEXT	SEGMENT PARA USE32 PUBLIC 'CODE'
_TEXT	ENDS
;	COMDAT ??_G?$CArray@PAVCXTPTrackUndoCommand@@PAV1@@@UAEPAXI@Z
_TEXT	SEGMENT PARA USE32 PUBLIC 'CODE'
_TEXT	ENDS
;	COMDAT ??_G?$CMap@JJUXTPDayInfo@CXTPDayInfoCache@CXTPCalendarController@@AAU123@@@UAEPAXI@Z
_TEXT	SEGMENT PARA USE32 PUBLIC 'CODE'
_TEXT	ENDS
;	COMDAT ??_G?$CMap@JJII@@UAEPAXI@Z
_TEXT	SEGMENT PARA USE32 PUBLIC 'CODE'
_TEXT	ENDS
;	COMDAT ??_G?$CMap@IIPAVCXTPDayInfoCache@CXTPCalendarController@@PAV12@@@UAEPAXI@Z
_TEXT	SEGMENT PARA USE32 PUBLIC 'CODE'
_TEXT	ENDS
;	COMDAT ??_G?$CMap@HHII@@UAEPAXI@Z
_TEXT	SEGMENT PARA USE32 PUBLIC 'CODE'
_TEXT	ENDS
;	COMDAT ??_G?$CArray@PAVCXTPDatePickerButton@@PAV1@@@UAEPAXI@Z
_TEXT	SEGMENT PARA USE32 PUBLIC 'CODE'
_TEXT	ENDS
;	COMDAT ??_G?$CArray@PAVCXTPDatePickerItemMonth@@PAV1@@@UAEPAXI@Z
_TEXT	SEGMENT PARA USE32 PUBLIC 'CODE'
_TEXT	ENDS
;	COMDAT ??_G?$CArray@USELECTED_BLOCK@CXTPDatePickerDaysCollection@@AAU12@@@UAEPAXI@Z
_TEXT	SEGMENT PARA USE32 PUBLIC 'CODE'
_TEXT	ENDS
;	COMDAT ??_G?$CArray@PAVCXTPDatePickerItemDay@@PAV1@@@UAEPAXI@Z
_TEXT	SEGMENT PARA USE32 PUBLIC 'CODE'
_TEXT	ENDS
;	COMDAT ??_G?$CArray@V?$CXTPSmartPtrInternalT@VCXTPDatePickerThemePart@@@@AAV1@@@UAEPAXI@Z
_TEXT	SEGMENT PARA USE32 PUBLIC 'CODE'
_TEXT	ENDS
;	COMDAT ??_G?$CXTPCalendarPtrCollectionT@VCXTPDatePickerThemePart@@@@UAEPAXI@Z
_TEXT	SEGMENT PARA USE32 PUBLIC 'CODE'
_TEXT	ENDS
;	COMDAT ??_G?$CArray@PAVCXTPCalendarEvent@@PAV1@@@UAEPAXI@Z
_TEXT	SEGMENT PARA USE32 PUBLIC 'CODE'
_TEXT	ENDS
;	COMDAT ??_G?$CArray@VCXTPCalendarReminderForOccurrence@@ABV1@@@UAEPAXI@Z
_TEXT	SEGMENT PARA USE32 PUBLIC 'CODE'
_TEXT	ENDS
;	COMDAT ??_G?$CArray@V?$CXTPSmartPtrInternalT@VCXTPCalendarEventLabel@@@@AAV1@@@UAEPAXI@Z
_TEXT	SEGMENT PARA USE32 PUBLIC 'CODE'
_TEXT	ENDS
;	COMDAT ??_G?$CXTPCalendarPtrCollectionT@VCXTPCalendarEventLabel@@@@UAEPAXI@Z
_TEXT	SEGMENT PARA USE32 PUBLIC 'CODE'
_TEXT	ENDS
;	COMDAT ??_G?$CArray@V?$CXTPSmartPtrInternalT@VCXTPCalendarEventCategory@@@@AAV1@@@UAEPAXI@Z
_TEXT	SEGMENT PARA USE32 PUBLIC 'CODE'
_TEXT	ENDS
;	COMDAT ??_G?$CXTPCalendarPtrCollectionT@VCXTPCalendarEventCategory@@@@UAEPAXI@Z
_TEXT	SEGMENT PARA USE32 PUBLIC 'CODE'
_TEXT	ENDS
;	COMDAT ??_G?$CArray@II@@UAEPAXI@Z
_TEXT	SEGMENT PARA USE32 PUBLIC 'CODE'
_TEXT	ENDS
;	COMDAT ??_G?$CXTPArrayT@IIJ@@UAEPAXI@Z
_TEXT	SEGMENT PARA USE32 PUBLIC 'CODE'
_TEXT	ENDS
;	COMDAT ??_G?$CArray@USUndoAction@CUndoBuffer@CXTPCalendarView@@ABU123@@@UAEPAXI@Z
_TEXT	SEGMENT PARA USE32 PUBLIC 'CODE'
_TEXT	ENDS
;	COMDAT ??_G?$CArray@V?$CXTPSmartPtrInternalT@VCXTPCalendarViewEvent@@@@AAV1@@@UAEPAXI@Z
_TEXT	SEGMENT PARA USE32 PUBLIC 'CODE'
_TEXT	ENDS
;	COMDAT ??_G?$CXTPCalendarPtrCollectionT@VCXTPCalendarViewEvent@@@@UAEPAXI@Z
_TEXT	SEGMENT PARA USE32 PUBLIC 'CODE'
_TEXT	ENDS
;	COMDAT ??_G?$CList@PAVCXTPCalendarViewPart@@PAV1@@@UAEPAXI@Z
_TEXT	SEGMENT PARA USE32 PUBLIC 'CODE'
_TEXT	ENDS
;	COMDAT ??_G?$CArray@V?$CXTPSmartPtrInternalT@VCXTPCalendarSchedule@@@@AAV1@@@UAEPAXI@Z
_TEXT	SEGMENT PARA USE32 PUBLIC 'CODE'
_TEXT	ENDS
;	COMDAT ??_G?$CXTPCalendarPtrCollectionT@VCXTPCalendarSchedule@@@@UAEPAXI@Z
_TEXT	SEGMENT PARA USE32 PUBLIC 'CODE'
_TEXT	ENDS
;	COMDAT ??_G?$CArray@V?$CXTPSmartPtrInternalT@VCXTPCalendarResource@@@@AAV1@@@UAEPAXI@Z
_TEXT	SEGMENT PARA USE32 PUBLIC 'CODE'
_TEXT	ENDS
;	COMDAT ??_G?$CXTPCalendarPtrCollectionT@VCXTPCalendarResource@@@@UAEPAXI@Z
_TEXT	SEGMENT PARA USE32 PUBLIC 'CODE'
_TEXT	ENDS
;	COMDAT ??_G?$CArray@V?$CXTPSmartPtrInternalT@VCXTPCalendarTimeZone@@@@AAV1@@@UAEPAXI@Z
_TEXT	SEGMENT PARA USE32 PUBLIC 'CODE'
_TEXT	ENDS
;	COMDAT ??_G?$CXTPCalendarPtrCollectionT@VCXTPCalendarTimeZone@@@@UAEPAXI@Z
_TEXT	SEGMENT PARA USE32 PUBLIC 'CODE'
_TEXT	ENDS
;	COMDAT ??_G?$CArray@V?$CXTPSmartPtrInternalT@VCXTPCalendarDayViewEvent@@@@AAV1@@@UAEPAXI@Z
_TEXT	SEGMENT PARA USE32 PUBLIC 'CODE'
_TEXT	ENDS
;	COMDAT ??_G?$CXTPCalendarPtrCollectionT@VCXTPCalendarDayViewEvent@@@@UAEPAXI@Z
_TEXT	SEGMENT PARA USE32 PUBLIC 'CODE'
_TEXT	ENDS
;	COMDAT ??_G?$CArray@V?$CXTPSmartPtrInternalT@VCXTPCalendarDayViewGroup@@@@AAV1@@@UAEPAXI@Z
_TEXT	SEGMENT PARA USE32 PUBLIC 'CODE'
_TEXT	ENDS
;	COMDAT ??_G?$CXTPCalendarPtrCollectionT@VCXTPCalendarDayViewGroup@@@@UAEPAXI@Z
_TEXT	SEGMENT PARA USE32 PUBLIC 'CODE'
_TEXT	ENDS
;	COMDAT ??_G?$CArray@V?$CXTPSmartPtrInternalT@VCXTPCalendarDayViewDay@@@@AAV1@@@UAEPAXI@Z
_TEXT	SEGMENT PARA USE32 PUBLIC 'CODE'
_TEXT	ENDS
;	COMDAT ??_G?$CXTPCalendarPtrCollectionT@VCXTPCalendarDayViewDay@@@@UAEPAXI@Z
_TEXT	SEGMENT PARA USE32 PUBLIC 'CODE'
_TEXT	ENDS
;	COMDAT ??_G?$CArray@V?$CXTPSmartPtrInternalT@VCXTPCalendarCaptionBarThemePart@@@@AAV1@@@UAEPAXI@Z
_TEXT	SEGMENT PARA USE32 PUBLIC 'CODE'
_TEXT	ENDS
;	COMDAT ??_G?$CXTPCalendarPtrCollectionT@VCXTPCalendarCaptionBarThemePart@@@@UAEPAXI@Z
_TEXT	SEGMENT PARA USE32 PUBLIC 'CODE'
_TEXT	ENDS
;	COMDAT ??_G?$CMap@KKHH@@UAEPAXI@Z
_TEXT	SEGMENT PARA USE32 PUBLIC 'CODE'
_TEXT	ENDS
;	COMDAT ??_G?$CMap@KKV?$CXTPSmartPtrInternalT@VCCmdTarget@@@@AAV1@@@UAEPAXI@Z
_TEXT	SEGMENT PARA USE32 PUBLIC 'CODE'
_TEXT	ENDS
;	COMDAT ??_G?$CMap@KKPAVCXTPCalendarEvent@@PAV1@@@UAEPAXI@Z
_TEXT	SEGMENT PARA USE32 PUBLIC 'CODE'
_TEXT	ENDS
;	COMDAT ??_G?$CArray@V?$CXTPSmartPtrInternalT@VCXTPCalendarMonthViewEvent@@@@AAV1@@@UAEPAXI@Z
_TEXT	SEGMENT PARA USE32 PUBLIC 'CODE'
_TEXT	ENDS
;	COMDAT ??_G?$CXTPCalendarPtrCollectionT@VCXTPCalendarMonthViewEvent@@@@UAEPAXI@Z
_TEXT	SEGMENT PARA USE32 PUBLIC 'CODE'
_TEXT	ENDS
;	COMDAT ??_G?$CArray@V?$CXTPSmartPtrInternalT@VCXTPCalendarMonthViewGroup@@@@AAV1@@@UAEPAXI@Z
_TEXT	SEGMENT PARA USE32 PUBLIC 'CODE'
_TEXT	ENDS
;	COMDAT ??_G?$CXTPCalendarPtrCollectionT@VCXTPCalendarMonthViewGroup@@@@UAEPAXI@Z
_TEXT	SEGMENT PARA USE32 PUBLIC 'CODE'
_TEXT	ENDS
;	COMDAT ??_G?$CArray@V?$CXTPSmartPtrInternalT@VCXTPCalendarMonthViewDay@@@@AAV1@@@UAEPAXI@Z
_TEXT	SEGMENT PARA USE32 PUBLIC 'CODE'
_TEXT	ENDS
;	COMDAT ??_G?$CXTPCalendarPtrCollectionT@VCXTPCalendarMonthViewDay@@@@UAEPAXI@Z
_TEXT	SEGMENT PARA USE32 PUBLIC 'CODE'
_TEXT	ENDS
;	COMDAT ??_G?$CArray@V?$CXTPSmartPtrInternalT@VCXTPCalendarWeekViewEvent@@@@AAV1@@@UAEPAXI@Z
_TEXT	SEGMENT PARA USE32 PUBLIC 'CODE'
_TEXT	ENDS
;	COMDAT ??_G?$CXTPCalendarPtrCollectionT@VCXTPCalendarWeekViewEvent@@@@UAEPAXI@Z
_TEXT	SEGMENT PARA USE32 PUBLIC 'CODE'
_TEXT	ENDS
;	COMDAT ??_G?$CArray@V?$CXTPSmartPtrInternalT@VCXTPCalendarWeekViewGroup@@@@AAV1@@@UAEPAXI@Z
_TEXT	SEGMENT PARA USE32 PUBLIC 'CODE'
_TEXT	ENDS
;	COMDAT ??_G?$CXTPCalendarPtrCollectionT@VCXTPCalendarWeekViewGroup@@@@UAEPAXI@Z
_TEXT	SEGMENT PARA USE32 PUBLIC 'CODE'
_TEXT	ENDS
;	COMDAT ??_G?$CArray@V?$CXTPSmartPtrInternalT@VCXTPCalendarWeekViewDay@@@@AAV1@@@UAEPAXI@Z
_TEXT	SEGMENT PARA USE32 PUBLIC 'CODE'
_TEXT	ENDS
;	COMDAT ??_G?$CXTPCalendarPtrCollectionT@VCXTPCalendarWeekViewDay@@@@UAEPAXI@Z
_TEXT	SEGMENT PARA USE32 PUBLIC 'CODE'
_TEXT	ENDS
;	COMDAT ??_G?$CArray@V?$CXTPSmartPtrInternalT@VCXTPCalendarTimeLineViewEvent@@@@AAV1@@@UAEPAXI@Z
_TEXT	SEGMENT PARA USE32 PUBLIC 'CODE'
_TEXT	ENDS
;	COMDAT ??_G?$CXTPCalendarPtrCollectionT@VCXTPCalendarTimeLineViewEvent@@@@UAEPAXI@Z
_TEXT	SEGMENT PARA USE32 PUBLIC 'CODE'
_TEXT	ENDS
;	COMDAT ??_G?$CArray@V?$CXTPSmartPtrInternalT@VCXTPCalendarTimeLineViewGroup@@@@AAV1@@@UAEPAXI@Z
_TEXT	SEGMENT PARA USE32 PUBLIC 'CODE'
_TEXT	ENDS
;	COMDAT ??_G?$CXTPCalendarPtrCollectionT@VCXTPCalendarTimeLineViewGroup@@@@UAEPAXI@Z
_TEXT	SEGMENT PARA USE32 PUBLIC 'CODE'
_TEXT	ENDS
;	COMDAT ??_G?$CArray@V?$CXTPSmartPtrInternalT@VCXTPCalendarThemePart@@@@AAV1@@@UAEPAXI@Z
_TEXT	SEGMENT PARA USE32 PUBLIC 'CODE'
_TEXT	ENDS
;	COMDAT ??_G?$CXTPCalendarPtrCollectionT@VCXTPCalendarThemePart@@@@UAEPAXI@Z
_TEXT	SEGMENT PARA USE32 PUBLIC 'CODE'
_TEXT	ENDS
;	COMDAT ??_G?$CMap@IIIAAI@@UAEPAXI@Z
_TEXT	SEGMENT PARA USE32 PUBLIC 'CODE'
_TEXT	ENDS
;	COMDAT ??_G?$CMap@HHPAVCXTPCalendarViewPartBrushValue@@PAV1@@@UAEPAXI@Z
_TEXT	SEGMENT PARA USE32 PUBLIC 'CODE'
_TEXT	ENDS
;	COMDAT ??_G?$CMap@HHUSColorInfo@CTOColorsSet@CXTPCalendarTheme@@AAU123@@@UAEPAXI@Z
_TEXT	SEGMENT PARA USE32 PUBLIC 'CODE'
_TEXT	ENDS
;	COMDAT ??_G?$CArray@DD@@UAEPAXI@Z
_TEXT	SEGMENT PARA USE32 PUBLIC 'CODE'
_TEXT	ENDS
;	COMDAT ??_G?$CMap@KKV?$XTP_MAPHANDLER_T@$0M@@@AAV1@@@UAEPAXI@Z
_TEXT	SEGMENT PARA USE32 PUBLIC 'CODE'
_TEXT	ENDS
;	COMDAT ??_G?$CArray@V?$CXTPSmartPtrInternalT@VCXTPCalendarReminder@@@@AAV1@@@UAEPAXI@Z
_TEXT	SEGMENT PARA USE32 PUBLIC 'CODE'
_TEXT	ENDS
;	COMDAT ??_G?$CXTPCalendarPtrCollectionT@VCXTPCalendarReminder@@@@UAEPAXI@Z
_TEXT	SEGMENT PARA USE32 PUBLIC 'CODE'
_TEXT	ENDS
;	COMDAT ??_G?$CArray@V?$CXTPSmartPtrInternalT@VCXTPCalendarData@@@@AAV1@@@UAEPAXI@Z
_TEXT	SEGMENT PARA USE32 PUBLIC 'CODE'
_TEXT	ENDS
;	COMDAT ??_G?$CXTPCalendarPtrCollectionT@VCXTPCalendarData@@@@UAEPAXI@Z
_TEXT	SEGMENT PARA USE32 PUBLIC 'CODE'
_TEXT	ENDS
;	COMDAT ??_G?$CArray@V?$CXTPSmartPtrInternalT@VCXTPCalendarResourceDescription@@@@AAV1@@@UAEPAXI@Z
_TEXT	SEGMENT PARA USE32 PUBLIC 'CODE'
_TEXT	ENDS
;	COMDAT ??_G?$CXTPCalendarPtrCollectionT@VCXTPCalendarResourceDescription@@@@UAEPAXI@Z
_TEXT	SEGMENT PARA USE32 PUBLIC 'CODE'
_TEXT	ENDS
;	COMDAT ??_G?$CMap@VCString@@PBDVCOleVariant@@AAV2@@@UAEPAXI@Z
_TEXT	SEGMENT PARA USE32 PUBLIC 'CODE'
_TEXT	ENDS
;	COMDAT ??_G?$CArray@PAVCXTPTaskPanelItem@@PAV1@@@UAEPAXI@Z
_TEXT	SEGMENT PARA USE32 PUBLIC 'CODE'
_TEXT	ENDS
;	COMDAT ??_G?$CArray@PAVCXTPShortcutBarItem@@PAV1@@@UAEPAXI@Z
_TEXT	SEGMENT PARA USE32 PUBLIC 'CODE'
_TEXT	ENDS
;	COMDAT ??_G?$CArray@PAVCXTPShortcutBarPaneItem@@PAV1@@@UAEPAXI@Z
_TEXT	SEGMENT PARA USE32 PUBLIC 'CODE'
_TEXT	ENDS
;	COMDAT ??_G?$CMap@IIPAVCXTPSkinManagerSchemaProperty@@PAV1@@@UAEPAXI@Z
_TEXT	SEGMENT PARA USE32 PUBLIC 'CODE'
_TEXT	ENDS
;	COMDAT ??_G?$CArray@PAUFRAMEREGION@CXTPSkinManagerSchema@@PAU12@@@UAEPAXI@Z
_TEXT	SEGMENT PARA USE32 PUBLIC 'CODE'
_TEXT	ENDS
;	COMDAT ??_G?$CList@UDEFWINDOW_DESCRIPTIOR@CXTPSkinObject@@AAU12@@@UAEPAXI@Z
_TEXT	SEGMENT PARA USE32 PUBLIC 'CODE'
_TEXT	ENDS
;	COMDAT ??_G?$CMap@PAUHWND__@@PAU1@PAVCXTPSkinObject@@PAV2@@@UAEPAXI@Z
_TEXT	SEGMENT PARA USE32 PUBLIC 'CODE'
_TEXT	ENDS
;	COMDAT ??_G?$CArray@PAVCXTPSkinManagerColorFilter@@PAV1@@@UAEPAXI@Z
_TEXT	SEGMENT PARA USE32 PUBLIC 'CODE'
_TEXT	ENDS
;	COMDAT ??_G?$CArray@UEXCLUDEDMODULE@CXTPSkinManagerApiHook@@AAU12@@@UAEPAXI@Z
_TEXT	SEGMENT PARA USE32 PUBLIC 'CODE'
_TEXT	ENDS
;	COMDAT ??_G?$CArray@USOLIDRECT@CXTPSkinImage@@AAU12@@@UAEPAXI@Z
_TEXT	SEGMENT PARA USE32 PUBLIC 'CODE'
_TEXT	ENDS
;	COMDAT ??_G?$CArray@PAVCCaptionButton@CXTPSkinObjectFrame@@PAV12@@@UAEPAXI@Z
_TEXT	SEGMENT PARA USE32 PUBLIC 'CODE'
_TEXT	ENDS
;	COMDAT ??_G?$CMap@PAU_IMAGELIST@@PAU1@HH@@UAEPAXI@Z
_TEXT	SEGMENT PARA USE32 PUBLIC 'CODE'
_TEXT	ENDS
;	COMDAT ??_G?$CArray@PAVCXTPRibbonGroup@@PAV1@@@UAEPAXI@Z
_TEXT	SEGMENT PARA USE32 PUBLIC 'CODE'
_TEXT	ENDS
;	COMDAT ??_G?$CArray@PAVCXTPRibbonTabContextHeader@@PAV1@@@UAEPAXI@Z
_TEXT	SEGMENT PARA USE32 PUBLIC 'CODE'
_TEXT	ENDS
;	COMDAT ??_G?$CArray@HH@@UAEPAXI@Z
_TEXT	SEGMENT PARA USE32 PUBLIC 'CODE'
_TEXT	ENDS
;	COMDAT ??_G?$CArray@EE@@UAEPAXI@Z
_TEXT	SEGMENT PARA USE32 PUBLIC 'CODE'
_TEXT	ENDS
;	COMDAT ??_G?$CArray@V?$CXTPSmartPtrInternalT@VCXTPRowInfo@CXTPSyntaxEditDrawTextProcessor@@@@ABV1@@@UAEPAXI@Z
_TEXT	SEGMENT PARA USE32 PUBLIC 'CODE'
_TEXT	ENDS
;	COMDAT ??_G?$CMap@HHKK@@UAEPAXI@Z
_TEXT	SEGMENT PARA USE32 PUBLIC 'CODE'
_TEXT	ENDS
;	COMDAT ??_G?$CArray@PAUXTP_EDIT_ACDATA@@PAU1@@@UAEPAXI@Z
_TEXT	SEGMENT PARA USE32 PUBLIC 'CODE'
_TEXT	ENDS
;	COMDAT ??_G?$CArray@VCRect@@V1@@@UAEPAXI@Z
_TEXT	SEGMENT PARA USE32 PUBLIC 'CODE'
_TEXT	ENDS
;	COMDAT ??_G?$CArray@PAVCXTPMarkupObject@@PAV1@@@UAEPAXI@Z
_TEXT	SEGMENT PARA USE32 PUBLIC 'CODE'
_TEXT	ENDS
;	COMDAT ??_G?$CArray@MAAM@@UAEPAXI@Z
_TEXT	SEGMENT PARA USE32 PUBLIC 'CODE'
_TEXT	ENDS
;	COMDAT ??_G?$CMap@PAVCXTPMarkupRoutedEvent@@PAV1@PAVCPtrList@@PAV2@@@UAEPAXI@Z
_TEXT	SEGMENT PARA USE32 PUBLIC 'CODE'
_TEXT	ENDS
;	COMDAT ??_G?$CArray@UtagPOINT@@AAU1@@@UAEPAXI@Z
_TEXT	SEGMENT PARA USE32 PUBLIC 'CODE'
_TEXT	ENDS
;	COMDAT ??_G?$CArray@UMARKUP_POINTF@@AAU1@@@UAEPAXI@Z
_TEXT	SEGMENT PARA USE32 PUBLIC 'CODE'
_TEXT	ENDS
;	COMDAT ??_G?$CList@PAVCXTPMarkupObject@@PAV1@@@UAEPAXI@Z
_TEXT	SEGMENT PARA USE32 PUBLIC 'CODE'
_TEXT	ENDS
;	COMDAT ??_G?$CArray@PAVCXTPChartElement@@PAV1@@@UAEPAXI@Z
_TEXT	SEGMENT PARA USE32 PUBLIC 'CODE'
_TEXT	ENDS
;	COMDAT ??_G?$CArray@PAVCXTPChartElementView@@PAV1@@@UAEPAXI@Z
_TEXT	SEGMENT PARA USE32 PUBLIC 'CODE'
_TEXT	ENDS
;	COMDAT ??_G?$CArray@PAVCXTPChartLegendItem@@PAV1@@@UAEPAXI@Z
_TEXT	SEGMENT PARA USE32 PUBLIC 'CODE'
_TEXT	ENDS
;	COMDAT ??_G?$CArray@PAVCXTPChartSeries@@PAV1@@@UAEPAXI@Z
_TEXT	SEGMENT PARA USE32 PUBLIC 'CODE'
_TEXT	ENDS
;	COMDAT ??_G?$CArray@PAVCXTPChartContainer@@PAV1@@@UAEPAXI@Z
_TEXT	SEGMENT PARA USE32 PUBLIC 'CODE'
_TEXT	ENDS
;	COMDAT ??_G?$CArray@VCXTPChartRectF@@AAV1@@@UAEPAXI@Z
_TEXT	SEGMENT PARA USE32 PUBLIC 'CODE'
_TEXT	ENDS
;	COMDAT ??_G?$CArray@PAVCXTPChartDeviceCommand@@PAV1@@@UAEPAXI@Z
_TEXT	SEGMENT PARA USE32 PUBLIC 'CODE'
_TEXT	ENDS
;	COMDAT ??_G?$CArray@VCXTPChartPointF@@ABV1@@@UAEPAXI@Z
_TEXT	SEGMENT PARA USE32 PUBLIC 'CODE'
_TEXT	ENDS
;	COMDAT ??_G?$CArray@VCXTPChartAxisViewTick@@AAV1@@@UAEPAXI@Z
_TEXT	SEGMENT PARA USE32 PUBLIC 'CODE'
_TEXT	ENDS
;	COMDAT ??_G?$CArray@PAVCXTPChartSeriesView@@PAV1@@@UAEPAXI@Z
_TEXT	SEGMENT PARA USE32 PUBLIC 'CODE'
_TEXT	ENDS
;	COMDAT ??_G?$CArray@VCString@@ABV1@@@UAEPAXI@Z
_TEXT	SEGMENT PARA USE32 PUBLIC 'CODE'
_TEXT	ENDS
;	COMDAT ??_G?$CArray@VCXTPChartPaletteEntry@@AAV1@@@UAEPAXI@Z
_TEXT	SEGMENT PARA USE32 PUBLIC 'CODE'
_TEXT	ENDS
;	COMDAT ??_G?$CArray@UDRAGNODE@CXTPFlowGraphControl@@AAU12@@@UAEPAXI@Z
_TEXT	SEGMENT PARA USE32 PUBLIC 'CODE'
_TEXT	ENDS
;	COMDAT ??_G?$CArray@PAVCXTPFlowGraphPage@@PAV1@@@UAEPAXI@Z
_TEXT	SEGMENT PARA USE32 PUBLIC 'CODE'
_TEXT	ENDS
;	COMDAT ??_G?$CArray@PAVCXTPFlowGraphNode@@PAV1@@@UAEPAXI@Z
_TEXT	SEGMENT PARA USE32 PUBLIC 'CODE'
_TEXT	ENDS
;	COMDAT ??_G?$CArray@PAVCXTPFlowGraphConnectionPoint@@PAV1@@@UAEPAXI@Z
_TEXT	SEGMENT PARA USE32 PUBLIC 'CODE'
_TEXT	ENDS
;	COMDAT ??_G?$CArray@PAVCXTPFlowGraphConnection@@PAV1@@@UAEPAXI@Z
_TEXT	SEGMENT PARA USE32 PUBLIC 'CODE'
_TEXT	ENDS
;	COMDAT ??_G?$CArray@PAVCXTPFlowGraphElement@@PAV1@@@UAEPAXI@Z
_TEXT	SEGMENT PARA USE32 PUBLIC 'CODE'
_TEXT	ENDS
;	COMDAT ??_G?$CArray@PAVCXTPFlowGraphUndoCommand@@PAV1@@@UAEPAXI@Z
_TEXT	SEGMENT PARA USE32 PUBLIC 'CODE'
_TEXT	ENDS
;	COMDAT ??_G?$CArray@PAVCXTPFlowGraphUndoGroupCommand@@PAV1@@@UAEPAXI@Z
_TEXT	SEGMENT PARA USE32 PUBLIC 'CODE'
_TEXT	ENDS
;	COMDAT ??_G?$CArray@PAVCXTPFlowGraphNodeGroup@@PAV1@@@UAEPAXI@Z
_TEXT	SEGMENT PARA USE32 PUBLIC 'CODE'
_TEXT	ENDS
;	COMDAT ??_G?$CArray@PAVCXTPFlowGraphImage@@PAV1@@@UAEPAXI@Z
_TEXT	SEGMENT PARA USE32 PUBLIC 'CODE'
_TEXT	ENDS
;	COMDAT ??_G?$CArray@UCXTPFlowGraphPageHistoryItem@@AAU1@@@UAEPAXI@Z
_TEXT	SEGMENT PARA USE32 PUBLIC 'CODE'
_TEXT	ENDS
;	COMDAT ??_G?$CMap@IIPAVCWnd@@PAV1@@@UAEPAXI@Z
_TEXT	SEGMENT PARA USE32 PUBLIC 'CODE'
_TEXT	ENDS
;	COMDAT ?_Release@?$_CIP@UIMoniker@@$1?IID_IMoniker@@3U_GUID@@B@@AAEXXZ
_TEXT	SEGMENT PARA USE32 PUBLIC 'CODE'
_TEXT	ENDS
;	COMDAT ??0?$CXTPSmartPtrInternalT@VCXTPCalendarViewEvent@@@@QAE@PAVCXTPCalendarViewEvent@@H@Z
_TEXT	SEGMENT PARA USE32 PUBLIC 'CODE'
_TEXT	ENDS
;	COMDAT ??0?$CXTPSmartPtrInternalT@VCCmdTarget@@@@QAE@PAVCCmdTarget@@H@Z
_TEXT	SEGMENT PARA USE32 PUBLIC 'CODE'
_TEXT	ENDS
;	COMDAT ??0?$CXTPSmartPtrInternalT@VCXTPCalendarResource@@@@QAE@PAVCXTPCalendarResource@@H@Z
_TEXT	SEGMENT PARA USE32 PUBLIC 'CODE'
_TEXT	ENDS
;	COMDAT ??B?$CXTPSmartPtrInternalT@VCXTPCalendarResource@@@@QBEPAVCXTPCalendarResource@@XZ
_TEXT	SEGMENT PARA USE32 PUBLIC 'CODE'
_TEXT	ENDS
;	COMDAT ??0?$CXTPSmartPtrInternalT@VCXTPDatePickerThemePart@@@@QAE@PAVCXTPDatePickerThemePart@@H@Z
_TEXT	SEGMENT PARA USE32 PUBLIC 'CODE'
_TEXT	ENDS
;	COMDAT ??1?$CXTPSmartPtrInternalT@VCXTPDatePickerThemePart@@@@UAE@XZ
_TEXT	SEGMENT PARA USE32 PUBLIC 'CODE'
_TEXT	ENDS
;	COMDAT ??B?$CXTPSmartPtrInternalT@VCXTPDatePickerThemePart@@@@QBEPAVCXTPDatePickerThemePart@@XZ
_TEXT	SEGMENT PARA USE32 PUBLIC 'CODE'
_TEXT	ENDS
;	COMDAT ??0?$CXTPSmartPtrInternalT@VCXTPCalendarEventLabel@@@@QAE@PAVCXTPCalendarEventLabel@@H@Z
_TEXT	SEGMENT PARA USE32 PUBLIC 'CODE'
_TEXT	ENDS
;	COMDAT ??1?$CXTPSmartPtrInternalT@VCXTPCalendarEventLabel@@@@UAE@XZ
_TEXT	SEGMENT PARA USE32 PUBLIC 'CODE'
_TEXT	ENDS
;	COMDAT ??B?$CXTPSmartPtrInternalT@VCXTPCalendarEventLabel@@@@QBEPAVCXTPCalendarEventLabel@@XZ
_TEXT	SEGMENT PARA USE32 PUBLIC 'CODE'
_TEXT	ENDS
;	COMDAT ??0?$CXTPSmartPtrInternalT@VCXTPCalendarEventCategory@@@@QAE@PAVCXTPCalendarEventCategory@@H@Z
_TEXT	SEGMENT PARA USE32 PUBLIC 'CODE'
_TEXT	ENDS
;	COMDAT ??1?$CXTPSmartPtrInternalT@VCXTPCalendarEventCategory@@@@UAE@XZ
_TEXT	SEGMENT PARA USE32 PUBLIC 'CODE'
_TEXT	ENDS
;	COMDAT ??B?$CXTPSmartPtrInternalT@VCXTPCalendarEventCategory@@@@QBEPAVCXTPCalendarEventCategory@@XZ
_TEXT	SEGMENT PARA USE32 PUBLIC 'CODE'
_TEXT	ENDS
;	COMDAT ??0?$CXTPSmartPtrInternalT@VCXTPCalendarSchedule@@@@QAE@PAVCXTPCalendarSchedule@@H@Z
_TEXT	SEGMENT PARA USE32 PUBLIC 'CODE'
_TEXT	ENDS
;	COMDAT ??1?$CXTPSmartPtrInternalT@VCXTPCalendarSchedule@@@@UAE@XZ
_TEXT	SEGMENT PARA USE32 PUBLIC 'CODE'
_TEXT	ENDS
;	COMDAT ??B?$CXTPSmartPtrInternalT@VCXTPCalendarSchedule@@@@QBEPAVCXTPCalendarSchedule@@XZ
_TEXT	SEGMENT PARA USE32 PUBLIC 'CODE'
_TEXT	ENDS
;	COMDAT ??0?$CXTPSmartPtrInternalT@VCXTPCalendarTimeZone@@@@QAE@PAVCXTPCalendarTimeZone@@H@Z
_TEXT	SEGMENT PARA USE32 PUBLIC 'CODE'
_TEXT	ENDS
;	COMDAT ??1?$CXTPSmartPtrInternalT@VCXTPCalendarTimeZone@@@@UAE@XZ
_TEXT	SEGMENT PARA USE32 PUBLIC 'CODE'
_TEXT	ENDS
;	COMDAT ??B?$CXTPSmartPtrInternalT@VCXTPCalendarTimeZone@@@@QBEPAVCXTPCalendarTimeZone@@XZ
_TEXT	SEGMENT PARA USE32 PUBLIC 'CODE'
_TEXT	ENDS
;	COMDAT ??0?$CXTPSmartPtrInternalT@VCXTPCalendarDayViewEvent@@@@QAE@PAVCXTPCalendarDayViewEvent@@H@Z
_TEXT	SEGMENT PARA USE32 PUBLIC 'CODE'
_TEXT	ENDS
;	COMDAT ??1?$CXTPSmartPtrInternalT@VCXTPCalendarDayViewEvent@@@@UAE@XZ
_TEXT	SEGMENT PARA USE32 PUBLIC 'CODE'
_TEXT	ENDS
;	COMDAT ??B?$CXTPSmartPtrInternalT@VCXTPCalendarDayViewEvent@@@@QBEPAVCXTPCalendarDayViewEvent@@XZ
_TEXT	SEGMENT PARA USE32 PUBLIC 'CODE'
_TEXT	ENDS
;	COMDAT ??0?$CXTPSmartPtrInternalT@VCXTPCalendarDayViewGroup@@@@QAE@PAVCXTPCalendarDayViewGroup@@H@Z
_TEXT	SEGMENT PARA USE32 PUBLIC 'CODE'
_TEXT	ENDS
;	COMDAT ??1?$CXTPSmartPtrInternalT@VCXTPCalendarDayViewGroup@@@@UAE@XZ
_TEXT	SEGMENT PARA USE32 PUBLIC 'CODE'
_TEXT	ENDS
;	COMDAT ??B?$CXTPSmartPtrInternalT@VCXTPCalendarDayViewGroup@@@@QBEPAVCXTPCalendarDayViewGroup@@XZ
_TEXT	SEGMENT PARA USE32 PUBLIC 'CODE'
_TEXT	ENDS
;	COMDAT ??0?$CXTPSmartPtrInternalT@VCXTPCalendarDayViewDay@@@@QAE@PAVCXTPCalendarDayViewDay@@H@Z
_TEXT	SEGMENT PARA USE32 PUBLIC 'CODE'
_TEXT	ENDS
;	COMDAT ??1?$CXTPSmartPtrInternalT@VCXTPCalendarDayViewDay@@@@UAE@XZ
_TEXT	SEGMENT PARA USE32 PUBLIC 'CODE'
_TEXT	ENDS
;	COMDAT ??B?$CXTPSmartPtrInternalT@VCXTPCalendarDayViewDay@@@@QBEPAVCXTPCalendarDayViewDay@@XZ
_TEXT	SEGMENT PARA USE32 PUBLIC 'CODE'
_TEXT	ENDS
;	COMDAT ??0?$CXTPSmartPtrInternalT@VCXTPCalendarCaptionBarThemePart@@@@QAE@PAVCXTPCalendarCaptionBarThemePart@@H@Z
_TEXT	SEGMENT PARA USE32 PUBLIC 'CODE'
_TEXT	ENDS
;	COMDAT ??1?$CXTPSmartPtrInternalT@VCXTPCalendarCaptionBarThemePart@@@@UAE@XZ
_TEXT	SEGMENT PARA USE32 PUBLIC 'CODE'
_TEXT	ENDS
;	COMDAT ??B?$CXTPSmartPtrInternalT@VCXTPCalendarCaptionBarThemePart@@@@QBEPAVCXTPCalendarCaptionBarThemePart@@XZ
_TEXT	SEGMENT PARA USE32 PUBLIC 'CODE'
_TEXT	ENDS
;	COMDAT ??0?$CXTPSmartPtrInternalT@VCXTPCalendarMonthViewEvent@@@@QAE@PAVCXTPCalendarMonthViewEvent@@H@Z
_TEXT	SEGMENT PARA USE32 PUBLIC 'CODE'
_TEXT	ENDS
;	COMDAT ??1?$CXTPSmartPtrInternalT@VCXTPCalendarMonthViewEvent@@@@UAE@XZ
_TEXT	SEGMENT PARA USE32 PUBLIC 'CODE'
_TEXT	ENDS
;	COMDAT ??B?$CXTPSmartPtrInternalT@VCXTPCalendarMonthViewEvent@@@@QBEPAVCXTPCalendarMonthViewEvent@@XZ
_TEXT	SEGMENT PARA USE32 PUBLIC 'CODE'
_TEXT	ENDS
;	COMDAT ??0?$CXTPSmartPtrInternalT@VCXTPCalendarMonthViewGroup@@@@QAE@PAVCXTPCalendarMonthViewGroup@@H@Z
_TEXT	SEGMENT PARA USE32 PUBLIC 'CODE'
_TEXT	ENDS
;	COMDAT ??1?$CXTPSmartPtrInternalT@VCXTPCalendarMonthViewGroup@@@@UAE@XZ
_TEXT	SEGMENT PARA USE32 PUBLIC 'CODE'
_TEXT	ENDS
;	COMDAT ??B?$CXTPSmartPtrInternalT@VCXTPCalendarMonthViewGroup@@@@QBEPAVCXTPCalendarMonthViewGroup@@XZ
_TEXT	SEGMENT PARA USE32 PUBLIC 'CODE'
_TEXT	ENDS
;	COMDAT ??0?$CXTPSmartPtrInternalT@VCXTPCalendarMonthViewDay@@@@QAE@PAVCXTPCalendarMonthViewDay@@H@Z
_TEXT	SEGMENT PARA USE32 PUBLIC 'CODE'
_TEXT	ENDS
;	COMDAT ??1?$CXTPSmartPtrInternalT@VCXTPCalendarMonthViewDay@@@@UAE@XZ
_TEXT	SEGMENT PARA USE32 PUBLIC 'CODE'
_TEXT	ENDS
;	COMDAT ??B?$CXTPSmartPtrInternalT@VCXTPCalendarMonthViewDay@@@@QBEPAVCXTPCalendarMonthViewDay@@XZ
_TEXT	SEGMENT PARA USE32 PUBLIC 'CODE'
_TEXT	ENDS
;	COMDAT ??0?$CXTPSmartPtrInternalT@VCXTPCalendarWeekViewEvent@@@@QAE@PAVCXTPCalendarWeekViewEvent@@H@Z
_TEXT	SEGMENT PARA USE32 PUBLIC 'CODE'
_TEXT	ENDS
;	COMDAT ??1?$CXTPSmartPtrInternalT@VCXTPCalendarWeekViewEvent@@@@UAE@XZ
_TEXT	SEGMENT PARA USE32 PUBLIC 'CODE'
_TEXT	ENDS
;	COMDAT ??B?$CXTPSmartPtrInternalT@VCXTPCalendarWeekViewEvent@@@@QBEPAVCXTPCalendarWeekViewEvent@@XZ
_TEXT	SEGMENT PARA USE32 PUBLIC 'CODE'
_TEXT	ENDS
;	COMDAT ??0?$CXTPSmartPtrInternalT@VCXTPCalendarWeekViewGroup@@@@QAE@PAVCXTPCalendarWeekViewGroup@@H@Z
_TEXT	SEGMENT PARA USE32 PUBLIC 'CODE'
_TEXT	ENDS
;	COMDAT ??1?$CXTPSmartPtrInternalT@VCXTPCalendarWeekViewGroup@@@@UAE@XZ
_TEXT	SEGMENT PARA USE32 PUBLIC 'CODE'
_TEXT	ENDS
;	COMDAT ??B?$CXTPSmartPtrInternalT@VCXTPCalendarWeekViewGroup@@@@QBEPAVCXTPCalendarWeekViewGroup@@XZ
_TEXT	SEGMENT PARA USE32 PUBLIC 'CODE'
_TEXT	ENDS
;	COMDAT ??0?$CXTPSmartPtrInternalT@VCXTPCalendarWeekViewDay@@@@QAE@PAVCXTPCalendarWeekViewDay@@H@Z
_TEXT	SEGMENT PARA USE32 PUBLIC 'CODE'
_TEXT	ENDS
;	COMDAT ??1?$CXTPSmartPtrInternalT@VCXTPCalendarWeekViewDay@@@@UAE@XZ
_TEXT	SEGMENT PARA USE32 PUBLIC 'CODE'
_TEXT	ENDS
;	COMDAT ??B?$CXTPSmartPtrInternalT@VCXTPCalendarWeekViewDay@@@@QBEPAVCXTPCalendarWeekViewDay@@XZ
_TEXT	SEGMENT PARA USE32 PUBLIC 'CODE'
_TEXT	ENDS
;	COMDAT ??0?$CXTPSmartPtrInternalT@VCXTPCalendarTimeLineViewEvent@@@@QAE@PAVCXTPCalendarTimeLineViewEvent@@H@Z
_TEXT	SEGMENT PARA USE32 PUBLIC 'CODE'
_TEXT	ENDS
;	COMDAT ??1?$CXTPSmartPtrInternalT@VCXTPCalendarTimeLineViewEvent@@@@UAE@XZ
_TEXT	SEGMENT PARA USE32 PUBLIC 'CODE'
_TEXT	ENDS
;	COMDAT ??B?$CXTPSmartPtrInternalT@VCXTPCalendarTimeLineViewEvent@@@@QBEPAVCXTPCalendarTimeLineViewEvent@@XZ
_TEXT	SEGMENT PARA USE32 PUBLIC 'CODE'
_TEXT	ENDS
;	COMDAT ??0?$CXTPSmartPtrInternalT@VCXTPCalendarTimeLineViewGroup@@@@QAE@PAVCXTPCalendarTimeLineViewGroup@@H@Z
_TEXT	SEGMENT PARA USE32 PUBLIC 'CODE'
_TEXT	ENDS
;	COMDAT ??1?$CXTPSmartPtrInternalT@VCXTPCalendarTimeLineViewGroup@@@@UAE@XZ
_TEXT	SEGMENT PARA USE32 PUBLIC 'CODE'
_TEXT	ENDS
;	COMDAT ??B?$CXTPSmartPtrInternalT@VCXTPCalendarTimeLineViewGroup@@@@QBEPAVCXTPCalendarTimeLineViewGroup@@XZ
_TEXT	SEGMENT PARA USE32 PUBLIC 'CODE'
_TEXT	ENDS
;	COMDAT ??0?$CXTPSmartPtrInternalT@VCXTPCalendarThemePart@@@@QAE@PAVCXTPCalendarThemePart@@H@Z
_TEXT	SEGMENT PARA USE32 PUBLIC 'CODE'
_TEXT	ENDS
;	COMDAT ??1?$CXTPSmartPtrInternalT@VCXTPCalendarThemePart@@@@UAE@XZ
_TEXT	SEGMENT PARA USE32 PUBLIC 'CODE'
_TEXT	ENDS
;	COMDAT ??B?$CXTPSmartPtrInternalT@VCXTPCalendarThemePart@@@@QBEPAVCXTPCalendarThemePart@@XZ
_TEXT	SEGMENT PARA USE32 PUBLIC 'CODE'
_TEXT	ENDS
;	COMDAT ??0?$CXTPSmartPtrInternalT@VCXTPCalendarReminder@@@@QAE@PAVCXTPCalendarReminder@@H@Z
_TEXT	SEGMENT PARA USE32 PUBLIC 'CODE'
_TEXT	ENDS
;	COMDAT ??1?$CXTPSmartPtrInternalT@VCXTPCalendarReminder@@@@UAE@XZ
_TEXT	SEGMENT PARA USE32 PUBLIC 'CODE'
_TEXT	ENDS
;	COMDAT ??B?$CXTPSmartPtrInternalT@VCXTPCalendarReminder@@@@QBEPAVCXTPCalendarReminder@@XZ
_TEXT	SEGMENT PARA USE32 PUBLIC 'CODE'
_TEXT	ENDS
;	COMDAT ??0?$CXTPSmartPtrInternalT@VCXTPCalendarData@@@@QAE@PAVCXTPCalendarData@@H@Z
_TEXT	SEGMENT PARA USE32 PUBLIC 'CODE'
_TEXT	ENDS
;	COMDAT ??1?$CXTPSmartPtrInternalT@VCXTPCalendarData@@@@UAE@XZ
_TEXT	SEGMENT PARA USE32 PUBLIC 'CODE'
_TEXT	ENDS
;	COMDAT ??B?$CXTPSmartPtrInternalT@VCXTPCalendarData@@@@QBEPAVCXTPCalendarData@@XZ
_TEXT	SEGMENT PARA USE32 PUBLIC 'CODE'
_TEXT	ENDS
;	COMDAT ??0?$CXTPSmartPtrInternalT@VCXTPCalendarResourceDescription@@@@QAE@PAVCXTPCalendarResourceDescription@@H@Z
_TEXT	SEGMENT PARA USE32 PUBLIC 'CODE'
_TEXT	ENDS
;	COMDAT ??1?$CXTPSmartPtrInternalT@VCXTPCalendarResourceDescription@@@@UAE@XZ
_TEXT	SEGMENT PARA USE32 PUBLIC 'CODE'
_TEXT	ENDS
;	COMDAT ??B?$CXTPSmartPtrInternalT@VCXTPCalendarResourceDescription@@@@QBEPAVCXTPCalendarResourceDescription@@XZ
_TEXT	SEGMENT PARA USE32 PUBLIC 'CODE'
_TEXT	ENDS
;	COMDAT ??_G?$CXTPSmartPtrInternalT@VCXTPDatePickerThemePart@@@@UAEPAXI@Z
_TEXT	SEGMENT PARA USE32 PUBLIC 'CODE'
_TEXT	ENDS
;	COMDAT ??_G?$CXTPSmartPtrInternalT@VCXTPCalendarEventLabel@@@@UAEPAXI@Z
_TEXT	SEGMENT PARA USE32 PUBLIC 'CODE'
_TEXT	ENDS
;	COMDAT ??_G?$CXTPSmartPtrInternalT@VCXTPCalendarEventCategory@@@@UAEPAXI@Z
_TEXT	SEGMENT PARA USE32 PUBLIC 'CODE'
_TEXT	ENDS
;	COMDAT ??_G?$CXTPSmartPtrInternalT@VCXTPCalendarSchedule@@@@UAEPAXI@Z
_TEXT	SEGMENT PARA USE32 PUBLIC 'CODE'
_TEXT	ENDS
;	COMDAT ??_G?$CXTPSmartPtrInternalT@VCXTPCalendarTimeZone@@@@UAEPAXI@Z
_TEXT	SEGMENT PARA USE32 PUBLIC 'CODE'
_TEXT	ENDS
;	COMDAT ??_G?$CXTPSmartPtrInternalT@VCXTPCalendarDayViewEvent@@@@UAEPAXI@Z
_TEXT	SEGMENT PARA USE32 PUBLIC 'CODE'
_TEXT	ENDS
;	COMDAT ??_G?$CXTPSmartPtrInternalT@VCXTPCalendarDayViewGroup@@@@UAEPAXI@Z
_TEXT	SEGMENT PARA USE32 PUBLIC 'CODE'
_TEXT	ENDS
;	COMDAT ??_G?$CXTPSmartPtrInternalT@VCXTPCalendarDayViewDay@@@@UAEPAXI@Z
_TEXT	SEGMENT PARA USE32 PUBLIC 'CODE'
_TEXT	ENDS
;	COMDAT ??_G?$CXTPSmartPtrInternalT@VCXTPCalendarCaptionBarThemePart@@@@UAEPAXI@Z
_TEXT	SEGMENT PARA USE32 PUBLIC 'CODE'
_TEXT	ENDS
;	COMDAT ??_G?$CXTPSmartPtrInternalT@VCXTPCalendarMonthViewEvent@@@@UAEPAXI@Z
_TEXT	SEGMENT PARA USE32 PUBLIC 'CODE'
_TEXT	ENDS
;	COMDAT ??_G?$CXTPSmartPtrInternalT@VCXTPCalendarMonthViewGroup@@@@UAEPAXI@Z
_TEXT	SEGMENT PARA USE32 PUBLIC 'CODE'
_TEXT	ENDS
;	COMDAT ??_G?$CXTPSmartPtrInternalT@VCXTPCalendarMonthViewDay@@@@UAEPAXI@Z
_TEXT	SEGMENT PARA USE32 PUBLIC 'CODE'
_TEXT	ENDS
;	COMDAT ??_G?$CXTPSmartPtrInternalT@VCXTPCalendarWeekViewEvent@@@@UAEPAXI@Z
_TEXT	SEGMENT PARA USE32 PUBLIC 'CODE'
_TEXT	ENDS
;	COMDAT ??_G?$CXTPSmartPtrInternalT@VCXTPCalendarWeekViewGroup@@@@UAEPAXI@Z
_TEXT	SEGMENT PARA USE32 PUBLIC 'CODE'
_TEXT	ENDS
;	COMDAT ??_G?$CXTPSmartPtrInternalT@VCXTPCalendarWeekViewDay@@@@UAEPAXI@Z
_TEXT	SEGMENT PARA USE32 PUBLIC 'CODE'
_TEXT	ENDS
;	COMDAT ??_G?$CXTPSmartPtrInternalT@VCXTPCalendarTimeLineViewEvent@@@@UAEPAXI@Z
_TEXT	SEGMENT PARA USE32 PUBLIC 'CODE'
_TEXT	ENDS
;	COMDAT ??_G?$CXTPSmartPtrInternalT@VCXTPCalendarTimeLineViewGroup@@@@UAEPAXI@Z
_TEXT	SEGMENT PARA USE32 PUBLIC 'CODE'
_TEXT	ENDS
;	COMDAT ??_G?$CXTPSmartPtrInternalT@VCXTPCalendarThemePart@@@@UAEPAXI@Z
_TEXT	SEGMENT PARA USE32 PUBLIC 'CODE'
_TEXT	ENDS
;	COMDAT ??_G?$CXTPSmartPtrInternalT@VCXTPCalendarReminder@@@@UAEPAXI@Z
_TEXT	SEGMENT PARA USE32 PUBLIC 'CODE'
_TEXT	ENDS
;	COMDAT ??_G?$CXTPSmartPtrInternalT@VCXTPCalendarData@@@@UAEPAXI@Z
_TEXT	SEGMENT PARA USE32 PUBLIC 'CODE'
_TEXT	ENDS
;	COMDAT ??_G?$CXTPSmartPtrInternalT@VCXTPCalendarResourceDescription@@@@UAEPAXI@Z
_TEXT	SEGMENT PARA USE32 PUBLIC 'CODE'
_TEXT	ENDS
;	COMDAT ?AddTail@?$CList@PAUClientContext@@PAU1@@@QAEPAU__POSITION@@PAUClientContext@@@Z
_TEXT	SEGMENT PARA USE32 PUBLIC 'CODE'
_TEXT	ENDS
;	COMDAT ?RemoveAll@?$CList@PAUClientContext@@PAU1@@@QAEXXZ
_TEXT	SEGMENT PARA USE32 PUBLIC 'CODE'
_TEXT	ENDS
;	COMDAT ?SerializeElements@@YGXAAVCArchive@@PAPAUClientContext@@H@Z
_TEXT	SEGMENT PARA USE32 PUBLIC 'CODE'
_TEXT	ENDS
;	COMDAT ?SetAt@?$CMap@IIPAUDLGTEMPLATE@@PAU1@@@QAEXIPAUDLGTEMPLATE@@@Z
_TEXT	SEGMENT PARA USE32 PUBLIC 'CODE'
_TEXT	ENDS
;	COMDAT ?RemoveAll@?$CMap@IIPAUDLGTEMPLATE@@PAU1@@@QAEXXZ
_TEXT	SEGMENT PARA USE32 PUBLIC 'CODE'
_TEXT	ENDS
;	COMDAT ?SerializeElements@@YGXAAVCArchive@@PAIH@Z
_TEXT	SEGMENT PARA USE32 PUBLIC 'CODE'
_TEXT	ENDS
;	COMDAT ?SerializeElements@@YGXAAVCArchive@@PAPAUDLGTEMPLATE@@H@Z
_TEXT	SEGMENT PARA USE32 PUBLIC 'CODE'
_TEXT	ENDS
;	COMDAT ?SetSize@?$CArray@PAUXTP_IMAGERESOURCE_INFO@@PAU1@@@QAEXHH@Z
_TEXT	SEGMENT PARA USE32 PUBLIC 'CODE'
_TEXT	ENDS
;	COMDAT ?DestructElements@@YGXPAPAUXTP_IMAGERESOURCE_INFO@@H@Z
_TEXT	SEGMENT PARA USE32 PUBLIC 'CODE'
_TEXT	ENDS
;	COMDAT ?SerializeElements@@YGXAAVCArchive@@PAPAUXTP_IMAGERESOURCE_INFO@@H@Z
_TEXT	SEGMENT PARA USE32 PUBLIC 'CODE'
_TEXT	ENDS
;	COMDAT ?SetAt@?$CMap@IIPAVCXTPImageManagerIcon@@PAV1@@@QAEXIPAVCXTPImageManagerIcon@@@Z
_TEXT	SEGMENT PARA USE32 PUBLIC 'CODE'
_TEXT	ENDS
;	COMDAT ?RemoveAll@?$CMap@IIPAVCXTPImageManagerIcon@@PAV1@@@QAEXXZ
_TEXT	SEGMENT PARA USE32 PUBLIC 'CODE'
_TEXT	ENDS
;	COMDAT ?SerializeElements@@YGXAAVCArchive@@PAPAVCXTPImageManagerIcon@@H@Z
_TEXT	SEGMENT PARA USE32 PUBLIC 'CODE'
_TEXT	ENDS
;	COMDAT ?SetAt@?$CMap@IIPAVCXTPImageManagerIconSet@@PAV1@@@QAEXIPAVCXTPImageManagerIconSet@@@Z
_TEXT	SEGMENT PARA USE32 PUBLIC 'CODE'
_TEXT	ENDS
;	COMDAT ?RemoveAll@?$CMap@IIPAVCXTPImageManagerIconSet@@PAV1@@@QAEXXZ
_TEXT	SEGMENT PARA USE32 PUBLIC 'CODE'
_TEXT	ENDS
;	COMDAT ?SerializeElements@@YGXAAVCArchive@@PAPAVCXTPImageManagerIconSet@@H@Z
_TEXT	SEGMENT PARA USE32 PUBLIC 'CODE'
_TEXT	ENDS
;	COMDAT ?SetSize@?$CArray@PAVCXTPImageManagerImageList@@PAV1@@@QAEXHH@Z
_TEXT	SEGMENT PARA USE32 PUBLIC 'CODE'
_TEXT	ENDS
;	COMDAT ?DestructElements@@YGXPAPAVCXTPImageManagerImageList@@H@Z
_TEXT	SEGMENT PARA USE32 PUBLIC 'CODE'
_TEXT	ENDS
;	COMDAT ?SerializeElements@@YGXAAVCArchive@@PAPAVCXTPImageManagerImageList@@H@Z
_TEXT	SEGMENT PARA USE32 PUBLIC 'CODE'
_TEXT	ENDS
;	COMDAT ?SetAt@?$CMap@KKPAVCXTPImageManagerResource@@PAV1@@@QAEXKPAVCXTPImageManagerResource@@@Z
_TEXT	SEGMENT PARA USE32 PUBLIC 'CODE'
_TEXT	ENDS
;	COMDAT ?RemoveAll@?$CMap@KKPAVCXTPImageManagerResource@@PAV1@@@QAEXXZ
_TEXT	SEGMENT PARA USE32 PUBLIC 'CODE'
_TEXT	ENDS
;	COMDAT ?SerializeElements@@YGXAAVCArchive@@PAKH@Z
_TEXT	SEGMENT PARA USE32 PUBLIC 'CODE'
_TEXT	ENDS
;	COMDAT ?SerializeElements@@YGXAAVCArchive@@PAPAVCXTPImageManagerResource@@H@Z
_TEXT	SEGMENT PARA USE32 PUBLIC 'CODE'
_TEXT	ENDS
;	COMDAT ?SetSize@?$CArray@PAUTOOLITEM@CXTPToolTipContextToolTip@@PAU12@@@QAEXHH@Z
_TEXT	SEGMENT PARA USE32 PUBLIC 'CODE'
_TEXT	ENDS
;	COMDAT ?DestructElements@@YGXPAPAUTOOLITEM@CXTPToolTipContextToolTip@@H@Z
_TEXT	SEGMENT PARA USE32 PUBLIC 'CODE'
_TEXT	ENDS
;	COMDAT ?SerializeElements@@YGXAAVCArchive@@PAPAUTOOLITEM@CXTPToolTipContextToolTip@@H@Z
_TEXT	SEGMENT PARA USE32 PUBLIC 'CODE'
_TEXT	ENDS
;	COMDAT ?SetAt@?$CMap@IIPAVCXTPResourceImage@@PAV1@@@QAEXIPAVCXTPResourceImage@@@Z
_TEXT	SEGMENT PARA USE32 PUBLIC 'CODE'
_TEXT	ENDS
;	COMDAT ?RemoveAll@?$CMap@IIPAVCXTPResourceImage@@PAV1@@@QAEXXZ
_TEXT	SEGMENT PARA USE32 PUBLIC 'CODE'
_TEXT	ENDS
;	COMDAT ?SerializeElements@@YGXAAVCArchive@@PAPAVCXTPResourceImage@@H@Z
_TEXT	SEGMENT PARA USE32 PUBLIC 'CODE'
_TEXT	ENDS
;	COMDAT ?SetSize@?$CArray@PAUCONNECTION_DESCRIPTOR@CXTPNotifyConnection@@PAU12@@@QAEXHH@Z
_TEXT	SEGMENT PARA USE32 PUBLIC 'CODE'
_TEXT	ENDS
;	COMDAT ?DestructElements@@YGXPAPAUCONNECTION_DESCRIPTOR@CXTPNotifyConnection@@H@Z
_TEXT	SEGMENT PARA USE32 PUBLIC 'CODE'
_TEXT	ENDS
;	COMDAT ?SerializeElements@@YGXAAVCArchive@@PAPAUCONNECTION_DESCRIPTOR@CXTPNotifyConnection@@H@Z
_TEXT	SEGMENT PARA USE32 PUBLIC 'CODE'
_TEXT	ENDS
;	COMDAT ?SetSize@?$CArray@UCONNECTION_DESCRIPTOR@CXTPNotifyConnection@@AAU12@@@QAEXHH@Z
_TEXT	SEGMENT PARA USE32 PUBLIC 'CODE'
_TEXT	ENDS
;	COMDAT ?DestructElements@@YGXPAUCONNECTION_DESCRIPTOR@CXTPNotifyConnection@@H@Z
_TEXT	SEGMENT PARA USE32 PUBLIC 'CODE'
_TEXT	ENDS
;	COMDAT ?SerializeElements@@YGXAAVCArchive@@PAUCONNECTION_DESCRIPTOR@CXTPNotifyConnection@@H@Z
_TEXT	SEGMENT PARA USE32 PUBLIC 'CODE'
_TEXT	ENDS
;	COMDAT ?SetAt@?$CMap@KAAKUADVISE_DESCRIPTOR@CXTPNotifySink@@AAU12@@@QAEXAAKAAUADVISE_DESCRIPTOR@CXTPNotifySink@@@Z
_TEXT	SEGMENT PARA USE32 PUBLIC 'CODE'
_TEXT	ENDS
;	COMDAT ?RemoveAll@?$CMap@KAAKUADVISE_DESCRIPTOR@CXTPNotifySink@@AAU12@@@QAEXXZ
_TEXT	SEGMENT PARA USE32 PUBLIC 'CODE'
_TEXT	ENDS
;	COMDAT ?SerializeElements@@YGXAAVCArchive@@PAUADVISE_DESCRIPTOR@CXTPNotifySink@@H@Z
_TEXT	SEGMENT PARA USE32 PUBLIC 'CODE'
_TEXT	ENDS
;	COMDAT ?SetAt@?$CMap@KKV?$XTP_MAPHANDLER_T@$03@@AAV1@@@QAEXKAAV?$XTP_MAPHANDLER_T@$03@@@Z
_TEXT	SEGMENT PARA USE32 PUBLIC 'CODE'
_TEXT	ENDS
;	COMDAT ?RemoveAll@?$CMap@KKV?$XTP_MAPHANDLER_T@$03@@AAV1@@@QAEXXZ
_TEXT	SEGMENT PARA USE32 PUBLIC 'CODE'
_TEXT	ENDS
;	COMDAT ?GetAssocAt@?$CMap@KKV?$XTP_MAPHANDLER_T@$03@@AAV1@@@IBEPAUCAssoc@1@KAAI@Z
_TEXT	SEGMENT PARA USE32 PUBLIC 'CODE'
_TEXT	ENDS
;	COMDAT ?SerializeElements@@YGXAAVCArchive@@PAV?$XTP_MAPHANDLER_T@$03@@H@Z
_TEXT	SEGMENT PARA USE32 PUBLIC 'CODE'
_TEXT	ENDS
;	COMDAT ?SetAt@?$CMap@KKUXTP_INTER_THREAD_EVENT_DATA@@AAU1@@@QAEXKAAUXTP_INTER_THREAD_EVENT_DATA@@@Z
_TEXT	SEGMENT PARA USE32 PUBLIC 'CODE'
_TEXT	ENDS
;	COMDAT ?RemoveAll@?$CMap@KKUXTP_INTER_THREAD_EVENT_DATA@@AAU1@@@QAEXXZ
_TEXT	SEGMENT PARA USE32 PUBLIC 'CODE'
_TEXT	ENDS
;	COMDAT ?SerializeElements@@YGXAAVCArchive@@PAUXTP_INTER_THREAD_EVENT_DATA@@H@Z
_TEXT	SEGMENT PARA USE32 PUBLIC 'CODE'
_TEXT	ENDS
;	COMDAT ?SetAt@?$CMap@PAUHWND__@@PAU1@PAXPAX@@QAEXPAUHWND__@@PAX@Z
_TEXT	SEGMENT PARA USE32 PUBLIC 'CODE'
_TEXT	ENDS
;	COMDAT ?RemoveAll@?$CMap@PAUHWND__@@PAU1@PAXPAX@@QAEXXZ
_TEXT	SEGMENT PARA USE32 PUBLIC 'CODE'
_TEXT	ENDS
;	COMDAT ?SerializeElements@@YGXAAVCArchive@@PAPAUHWND__@@H@Z
_TEXT	SEGMENT PARA USE32 PUBLIC 'CODE'
_TEXT	ENDS
;	COMDAT ?SerializeElements@@YGXAAVCArchive@@PAPAXH@Z
_TEXT	SEGMENT PARA USE32 PUBLIC 'CODE'
_TEXT	ENDS
;	COMDAT ?SetSize@?$CArray@PAVCXTPTabManagerAtom@@PAV1@@@QAEXHH@Z
_TEXT	SEGMENT PARA USE32 PUBLIC 'CODE'
_TEXT	ENDS
;	COMDAT ?DestructElements@@YGXPAPAVCXTPTabManagerAtom@@H@Z
_TEXT	SEGMENT PARA USE32 PUBLIC 'CODE'
_TEXT	ENDS
;	COMDAT ?SerializeElements@@YGXAAVCArchive@@PAPAVCXTPTabManagerAtom@@H@Z
_TEXT	SEGMENT PARA USE32 PUBLIC 'CODE'
_TEXT	ENDS
;	COMDAT ?SetSize@?$CArray@PAVCXTPTabManagerNavigateButton@@PAV1@@@QAEXHH@Z
_TEXT	SEGMENT PARA USE32 PUBLIC 'CODE'
_TEXT	ENDS
;	COMDAT ?SetAtGrow@?$CArray@PAVCXTPTabManagerNavigateButton@@PAV1@@@QAEXHPAVCXTPTabManagerNavigateButton@@@Z
_TEXT	SEGMENT PARA USE32 PUBLIC 'CODE'
_TEXT	ENDS
;	COMDAT ?DestructElements@@YGXPAPAVCXTPTabManagerNavigateButton@@H@Z
_TEXT	SEGMENT PARA USE32 PUBLIC 'CODE'
_TEXT	ENDS
;	COMDAT ?ConstructElements@@YGXPAPAVCXTPTabManagerNavigateButton@@H@Z
_TEXT	SEGMENT PARA USE32 PUBLIC 'CODE'
_TEXT	ENDS
;	COMDAT ?SerializeElements@@YGXAAVCArchive@@PAPAVCXTPTabManagerNavigateButton@@H@Z
_TEXT	SEGMENT PARA USE32 PUBLIC 'CODE'
_TEXT	ENDS
;	COMDAT ?SetSize@?$CArray@PAVCXTPTabManagerItem@@PAV1@@@QAEXHH@Z
_TEXT	SEGMENT PARA USE32 PUBLIC 'CODE'
_TEXT	ENDS
;	COMDAT ?GetAt@?$CArray@PAVCXTPTabManagerItem@@PAV1@@@QBEPAVCXTPTabManagerItem@@H@Z
_TEXT	SEGMENT PARA USE32 PUBLIC 'CODE'
_TEXT	ENDS
;	COMDAT ?DestructElements@@YGXPAPAVCXTPTabManagerItem@@H@Z
_TEXT	SEGMENT PARA USE32 PUBLIC 'CODE'
_TEXT	ENDS
;	COMDAT ?SerializeElements@@YGXAAVCArchive@@PAPAVCXTPTabManagerItem@@H@Z
_TEXT	SEGMENT PARA USE32 PUBLIC 'CODE'
_TEXT	ENDS
;	COMDAT ?AddTail@?$CList@PAUCONTENT_ITEM@CXTPShortcutListBox@@PAU12@@@QAEPAU__POSITION@@PAUCONTENT_ITEM@CXTPShortcutListBox@@@Z
_TEXT	SEGMENT PARA USE32 PUBLIC 'CODE'
_TEXT	ENDS
;	COMDAT ?RemoveAll@?$CList@PAUCONTENT_ITEM@CXTPShortcutListBox@@PAU12@@@QAEXXZ
_TEXT	SEGMENT PARA USE32 PUBLIC 'CODE'
_TEXT	ENDS
;	COMDAT ?SerializeElements@@YGXAAVCArchive@@PAPAUCONTENT_ITEM@CXTPShortcutListBox@@H@Z
_TEXT	SEGMENT PARA USE32 PUBLIC 'CODE'
_TEXT	ENDS
;	COMDAT ?AddTail@?$CList@VCXTPLogFont@@AAV1@@@QAEPAU__POSITION@@AAVCXTPLogFont@@@Z
_TEXT	SEGMENT PARA USE32 PUBLIC 'CODE'
_TEXT	ENDS
;	COMDAT ?RemoveAll@?$CList@VCXTPLogFont@@AAV1@@@QAEXXZ
_TEXT	SEGMENT PARA USE32 PUBLIC 'CODE'
_TEXT	ENDS
;	COMDAT ?SerializeElements@@YGXAAVCArchive@@PAVCXTPLogFont@@H@Z
_TEXT	SEGMENT PARA USE32 PUBLIC 'CODE'
_TEXT	ENDS
;	COMDAT ?AddTail@?$CList@PAVCXTPTcbItem@@PAV1@@@QAEPAU__POSITION@@PAVCXTPTcbItem@@@Z
_TEXT	SEGMENT PARA USE32 PUBLIC 'CODE'
_TEXT	ENDS
;	COMDAT ?RemoveAll@?$CList@PAVCXTPTcbItem@@PAV1@@@QAEXXZ
_TEXT	SEGMENT PARA USE32 PUBLIC 'CODE'
_TEXT	ENDS
;	COMDAT ?SerializeElements@@YGXAAVCArchive@@PAPAVCXTPTcbItem@@H@Z
_TEXT	SEGMENT PARA USE32 PUBLIC 'CODE'
_TEXT	ENDS
;	COMDAT ?SetSize@?$CArray@PAVCXTPTcbItem@@PAV1@@@QAEXHH@Z
_TEXT	SEGMENT PARA USE32 PUBLIC 'CODE'
_TEXT	ENDS
;	COMDAT ?DestructElements@@YGXPAPAVCXTPTcbItem@@H@Z
_TEXT	SEGMENT PARA USE32 PUBLIC 'CODE'
_TEXT	ENDS
;	COMDAT ?AddTail@?$CList@PAUMDICHILD@CXTPMDIWndTab@@PAU12@@@QAEPAU__POSITION@@PAUMDICHILD@CXTPMDIWndTab@@@Z
_TEXT	SEGMENT PARA USE32 PUBLIC 'CODE'
_TEXT	ENDS
;	COMDAT ?RemoveAll@?$CList@PAUMDICHILD@CXTPMDIWndTab@@PAU12@@@QAEXXZ
_TEXT	SEGMENT PARA USE32 PUBLIC 'CODE'
_TEXT	ENDS
;	COMDAT ?SerializeElements@@YGXAAVCArchive@@PAPAUMDICHILD@CXTPMDIWndTab@@H@Z
_TEXT	SEGMENT PARA USE32 PUBLIC 'CODE'
_TEXT	ENDS
;	COMDAT ?SetAt@?$CMap@PAUHWND__@@PAU1@PAUHICON__@@AAPAU2@@@QAEXPAUHWND__@@AAPAUHICON__@@@Z
_TEXT	SEGMENT PARA USE32 PUBLIC 'CODE'
_TEXT	ENDS
;	COMDAT ?RemoveAll@?$CMap@PAUHWND__@@PAU1@PAUHICON__@@AAPAU2@@@QAEXXZ
_TEXT	SEGMENT PARA USE32 PUBLIC 'CODE'
_TEXT	ENDS
;	COMDAT ?SerializeElements@@YGXAAVCArchive@@PAPAUHICON__@@H@Z
_TEXT	SEGMENT PARA USE32 PUBLIC 'CODE'
_TEXT	ENDS
;	COMDAT ?SetAt@?$CMap@PAUHWND__@@PAU1@VCString@@AAV2@@@QAEXPAUHWND__@@AAVCString@@@Z
_TEXT	SEGMENT PARA USE32 PUBLIC 'CODE'
_TEXT	ENDS
;	COMDAT ?RemoveAll@?$CMap@PAUHWND__@@PAU1@VCString@@AAV2@@@QAEXXZ
_TEXT	SEGMENT PARA USE32 PUBLIC 'CODE'
_TEXT	ENDS
;	COMDAT ?SetSize@?$CArray@PAVCXTPResizeItem@@AAPAV1@@@QAEXHH@Z
_TEXT	SEGMENT PARA USE32 PUBLIC 'CODE'
_TEXT	ENDS
;	COMDAT ?DestructElements@@YGXPAPAVCXTPResizeItem@@H@Z
_TEXT	SEGMENT PARA USE32 PUBLIC 'CODE'
_TEXT	ENDS
;	COMDAT ?SerializeElements@@YGXAAVCArchive@@PAPAVCXTPResizeItem@@H@Z
_TEXT	SEGMENT PARA USE32 PUBLIC 'CODE'
_TEXT	ENDS
;	COMDAT ?SetSize@?$CArray@UtagRECT@@AAU1@@@QAEXHH@Z
_TEXT	SEGMENT PARA USE32 PUBLIC 'CODE'
_TEXT	ENDS
;	COMDAT ?DestructElements@@YGXPAUtagRECT@@H@Z
_TEXT	SEGMENT PARA USE32 PUBLIC 'CODE'
_TEXT	ENDS
;	COMDAT ?SerializeElements@@YGXAAVCArchive@@PAUtagRECT@@H@Z
_TEXT	SEGMENT PARA USE32 PUBLIC 'CODE'
_TEXT	ENDS
;	COMDAT ?SetSize@?$CArray@PAULINKITEM@CXTPTaskDialogLinkCtrl@@PAU12@@@QAEXHH@Z
_TEXT	SEGMENT PARA USE32 PUBLIC 'CODE'
_TEXT	ENDS
;	COMDAT ?DestructElements@@YGXPAPAULINKITEM@CXTPTaskDialogLinkCtrl@@H@Z
_TEXT	SEGMENT PARA USE32 PUBLIC 'CODE'
_TEXT	ENDS
;	COMDAT ?SerializeElements@@YGXAAVCArchive@@PAPAULINKITEM@CXTPTaskDialogLinkCtrl@@H@Z
_TEXT	SEGMENT PARA USE32 PUBLIC 'CODE'
_TEXT	ENDS
;	COMDAT ?SetSize@?$CArray@PAVCButton@@PAV1@@@QAEXHH@Z
_TEXT	SEGMENT PARA USE32 PUBLIC 'CODE'
_TEXT	ENDS
;	COMDAT ?DestructElements@@YGXPAPAVCButton@@H@Z
_TEXT	SEGMENT PARA USE32 PUBLIC 'CODE'
_TEXT	ENDS
;	COMDAT ?SerializeElements@@YGXAAVCArchive@@PAPAVCButton@@H@Z
_TEXT	SEGMENT PARA USE32 PUBLIC 'CODE'
_TEXT	ENDS
;	COMDAT ?SetAt@?$CMap@PAVCWnd@@PAV1@UtagSIZE@@AAU2@@@QAEXPAVCWnd@@AAUtagSIZE@@@Z
_TEXT	SEGMENT PARA USE32 PUBLIC 'CODE'
_TEXT	ENDS
;	COMDAT ?RemoveAll@?$CMap@PAVCWnd@@PAV1@UtagSIZE@@AAU2@@@QAEXXZ
_TEXT	SEGMENT PARA USE32 PUBLIC 'CODE'
_TEXT	ENDS
;	COMDAT ?SerializeElements@@YGXAAVCArchive@@PAPAVCWnd@@H@Z
_TEXT	SEGMENT PARA USE32 PUBLIC 'CODE'
_TEXT	ENDS
;	COMDAT ?SerializeElements@@YGXAAVCArchive@@PAUtagSIZE@@H@Z
_TEXT	SEGMENT PARA USE32 PUBLIC 'CODE'
_TEXT	ENDS
;	COMDAT ?SetSize@?$CArray@U_TASKDIALOG_BUTTON@XTPTaskDialogAPI@@AAU12@@@QAEXHH@Z
_TEXT	SEGMENT PARA USE32 PUBLIC 'CODE'
_TEXT	ENDS
;	COMDAT ?DestructElements@@YGXPAU_TASKDIALOG_BUTTON@XTPTaskDialogAPI@@H@Z
_TEXT	SEGMENT PARA USE32 PUBLIC 'CODE'
_TEXT	ENDS
;	COMDAT ?SerializeElements@@YGXAAVCArchive@@PAU_TASKDIALOG_BUTTON@XTPTaskDialogAPI@@H@Z
_TEXT	SEGMENT PARA USE32 PUBLIC 'CODE'
_TEXT	ENDS
;	COMDAT ?AddTail@?$CList@PAVCRgnCell@CXTPColorHex@@PAV12@@@QAEPAU__POSITION@@PAVCRgnCell@CXTPColorHex@@@Z
_TEXT	SEGMENT PARA USE32 PUBLIC 'CODE'
_TEXT	ENDS
;	COMDAT ?RemoveAll@?$CList@PAVCRgnCell@CXTPColorHex@@PAV12@@@QAEXXZ
_TEXT	SEGMENT PARA USE32 PUBLIC 'CODE'
_TEXT	ENDS
;	COMDAT ?SerializeElements@@YGXAAVCArchive@@PAPAVCRgnCell@CXTPColorHex@@H@Z
_TEXT	SEGMENT PARA USE32 PUBLIC 'CODE'
_TEXT	ENDS
;	COMDAT ?SetSize@?$CArray@PAVCXTPPropertyPage@@PAV1@@@QAEXHH@Z
_TEXT	SEGMENT PARA USE32 PUBLIC 'CODE'
_TEXT	ENDS
;	COMDAT ?DestructElements@@YGXPAPAVCXTPPropertyPage@@H@Z
_TEXT	SEGMENT PARA USE32 PUBLIC 'CODE'
_TEXT	ENDS
;	COMDAT ?SerializeElements@@YGXAAVCArchive@@PAPAVCXTPPropertyPage@@H@Z
_TEXT	SEGMENT PARA USE32 PUBLIC 'CODE'
_TEXT	ENDS
;	COMDAT ?SetSize@?$CArray@PAUHWND__@@PAU1@@@QAEXHH@Z
_TEXT	SEGMENT PARA USE32 PUBLIC 'CODE'
_TEXT	ENDS
;	COMDAT ?DestructElements@@YGXPAPAUHWND__@@H@Z
_TEXT	SEGMENT PARA USE32 PUBLIC 'CODE'
_TEXT	ENDS
;	COMDAT ?AddTail@?$CList@PAUCOLOR_CELL@CXTPColorSelectorCtrl@@PAU12@@@QAEPAU__POSITION@@PAUCOLOR_CELL@CXTPColorSelectorCtrl@@@Z
_TEXT	SEGMENT PARA USE32 PUBLIC 'CODE'
_TEXT	ENDS
;	COMDAT ?RemoveAll@?$CList@PAUCOLOR_CELL@CXTPColorSelectorCtrl@@PAU12@@@QAEXXZ
_TEXT	SEGMENT PARA USE32 PUBLIC 'CODE'
_TEXT	ENDS
;	COMDAT ?SerializeElements@@YGXAAVCArchive@@PAPAUCOLOR_CELL@CXTPColorSelectorCtrl@@H@Z
_TEXT	SEGMENT PARA USE32 PUBLIC 'CODE'
_TEXT	ENDS
;	COMDAT ?SetSize@?$CArray@PAVCXTPPopupItem@@PAV1@@@QAEXHH@Z
_TEXT	SEGMENT PARA USE32 PUBLIC 'CODE'
_TEXT	ENDS
;	COMDAT ?DestructElements@@YGXPAPAVCXTPPopupItem@@H@Z
_TEXT	SEGMENT PARA USE32 PUBLIC 'CODE'
_TEXT	ENDS
;	COMDAT ?SerializeElements@@YGXAAVCArchive@@PAPAVCXTPPopupItem@@H@Z
_TEXT	SEGMENT PARA USE32 PUBLIC 'CODE'
_TEXT	ENDS
;	COMDAT ?SetAt@?$CMap@PAXPAXUCLRFONT@CXTPTreeBase@@AAU12@@@QAEXPAXAAUCLRFONT@CXTPTreeBase@@@Z
_TEXT	SEGMENT PARA USE32 PUBLIC 'CODE'
_TEXT	ENDS
;	COMDAT ?RemoveAll@?$CMap@PAXPAXUCLRFONT@CXTPTreeBase@@AAU12@@@QAEXXZ
_TEXT	SEGMENT PARA USE32 PUBLIC 'CODE'
_TEXT	ENDS
;	COMDAT ?SerializeElements@@YGXAAVCArchive@@PAUCLRFONT@CXTPTreeBase@@H@Z
_TEXT	SEGMENT PARA USE32 PUBLIC 'CODE'
_TEXT	ENDS
;	COMDAT ?AddTail@?$CList@HAAH@@QAEPAU__POSITION@@AAH@Z
_TEXT	SEGMENT PARA USE32 PUBLIC 'CODE'
_TEXT	ENDS
;	COMDAT ?RemoveAll@?$CList@HAAH@@QAEXXZ
_TEXT	SEGMENT PARA USE32 PUBLIC 'CODE'
_TEXT	ENDS
;	COMDAT ?SerializeElements@@YGXAAVCArchive@@PAHH@Z
_TEXT	SEGMENT PARA USE32 PUBLIC 'CODE'
_TEXT	ENDS
;	COMDAT ?AddTail@?$CList@UROWCOLOR@CXTPListBase@@AAU12@@@QAEPAU__POSITION@@AAUROWCOLOR@CXTPListBase@@@Z
_TEXT	SEGMENT PARA USE32 PUBLIC 'CODE'
_TEXT	ENDS
;	COMDAT ?RemoveAll@?$CList@UROWCOLOR@CXTPListBase@@AAU12@@@QAEXXZ
_TEXT	SEGMENT PARA USE32 PUBLIC 'CODE'
_TEXT	ENDS
;	COMDAT ?SerializeElements@@YGXAAVCArchive@@PAUROWCOLOR@CXTPListBase@@H@Z
_TEXT	SEGMENT PARA USE32 PUBLIC 'CODE'
_TEXT	ENDS
;	COMDAT ?AddTail@?$CList@UTRAYICONDATA@CXTPTrayIcon@@AAU12@@@QAEPAU__POSITION@@AAUTRAYICONDATA@CXTPTrayIcon@@@Z
_TEXT	SEGMENT PARA USE32 PUBLIC 'CODE'
_TEXT	ENDS
;	COMDAT ?RemoveAll@?$CList@UTRAYICONDATA@CXTPTrayIcon@@AAU12@@@QAEXXZ
_TEXT	SEGMENT PARA USE32 PUBLIC 'CODE'
_TEXT	ENDS
;	COMDAT ?SerializeElements@@YGXAAVCArchive@@PAUTRAYICONDATA@CXTPTrayIcon@@H@Z
_TEXT	SEGMENT PARA USE32 PUBLIC 'CODE'
_TEXT	ENDS
;	COMDAT ?AddTail@?$CList@PAVCResizeWnd@CXTPSearchOptionsView@@PAV12@@@QAEPAU__POSITION@@PAVCResizeWnd@CXTPSearchOptionsView@@@Z
_TEXT	SEGMENT PARA USE32 PUBLIC 'CODE'
_TEXT	ENDS
;	COMDAT ?RemoveAll@?$CList@PAVCResizeWnd@CXTPSearchOptionsView@@PAV12@@@QAEXXZ
_TEXT	SEGMENT PARA USE32 PUBLIC 'CODE'
_TEXT	ENDS
;	COMDAT ?SerializeElements@@YGXAAVCArchive@@PAPAVCResizeWnd@CXTPSearchOptionsView@@H@Z
_TEXT	SEGMENT PARA USE32 PUBLIC 'CODE'
_TEXT	ENDS
;	COMDAT ?AddTail@?$CList@PAVCXTOutBarItem@@PAV1@@@QAEPAU__POSITION@@PAVCXTOutBarItem@@@Z
_TEXT	SEGMENT PARA USE32 PUBLIC 'CODE'
_TEXT	ENDS
;	COMDAT ?RemoveAll@?$CList@PAVCXTOutBarItem@@PAV1@@@QAEXXZ
_TEXT	SEGMENT PARA USE32 PUBLIC 'CODE'
_TEXT	ENDS
;	COMDAT ?SerializeElements@@YGXAAVCArchive@@PAPAVCXTOutBarItem@@H@Z
_TEXT	SEGMENT PARA USE32 PUBLIC 'CODE'
_TEXT	ENDS
;	COMDAT ?SetSize@?$CArray@PAVCXTPCommandBar@@PAV1@@@QAEXHH@Z
_TEXT	SEGMENT PARA USE32 PUBLIC 'CODE'
_TEXT	ENDS
;	COMDAT ?DestructElements@@YGXPAPAVCXTPCommandBar@@H@Z
_TEXT	SEGMENT PARA USE32 PUBLIC 'CODE'
_TEXT	ENDS
;	COMDAT ?SerializeElements@@YGXAAVCArchive@@PAPAVCXTPCommandBar@@H@Z
_TEXT	SEGMENT PARA USE32 PUBLIC 'CODE'
_TEXT	ENDS
;	COMDAT ?SetAt@?$CMap@IIPAVCXTPMenuBarMDIMenuInfo@@PAV1@@@QAEXIPAVCXTPMenuBarMDIMenuInfo@@@Z
_TEXT	SEGMENT PARA USE32 PUBLIC 'CODE'
_TEXT	ENDS
;	COMDAT ?RemoveAll@?$CMap@IIPAVCXTPMenuBarMDIMenuInfo@@PAV1@@@QAEXXZ
_TEXT	SEGMENT PARA USE32 PUBLIC 'CODE'
_TEXT	ENDS
;	COMDAT ?SerializeElements@@YGXAAVCArchive@@PAPAVCXTPMenuBarMDIMenuInfo@@H@Z
_TEXT	SEGMENT PARA USE32 PUBLIC 'CODE'
_TEXT	ENDS
;	COMDAT ?SetSize@?$CArray@PAVCXTPControl@@PAV1@@@QAEXHH@Z
_TEXT	SEGMENT PARA USE32 PUBLIC 'CODE'
_TEXT	ENDS
;	COMDAT ?DestructElements@@YGXPAPAVCXTPControl@@H@Z
_TEXT	SEGMENT PARA USE32 PUBLIC 'CODE'
_TEXT	ENDS
;	COMDAT ?SerializeElements@@YGXAAVCArchive@@PAPAVCXTPControl@@H@Z
_TEXT	SEGMENT PARA USE32 PUBLIC 'CODE'
_TEXT	ENDS
;	COMDAT ?SetSize@?$CArray@PAVCXTPControlAction@@PAV1@@@QAEXHH@Z
_TEXT	SEGMENT PARA USE32 PUBLIC 'CODE'
_TEXT	ENDS
;	COMDAT ?DestructElements@@YGXPAPAVCXTPControlAction@@H@Z
_TEXT	SEGMENT PARA USE32 PUBLIC 'CODE'
_TEXT	ENDS
;	COMDAT ?SerializeElements@@YGXAAVCArchive@@PAPAVCXTPControlAction@@H@Z
_TEXT	SEGMENT PARA USE32 PUBLIC 'CODE'
_TEXT	ENDS
;	COMDAT ??A?$CMap@IIHH@@QAEAAHI@Z
_TEXT	SEGMENT PARA USE32 PUBLIC 'CODE'
_TEXT	ENDS
;	COMDAT ?RemoveAll@?$CMap@IIHH@@QAEXXZ
_TEXT	SEGMENT PARA USE32 PUBLIC 'CODE'
_TEXT	ENDS
;	COMDAT ?SetSize@?$CArray@PAVCXTPStatusBarPane@@PAV1@@@QAEXHH@Z
_TEXT	SEGMENT PARA USE32 PUBLIC 'CODE'
_TEXT	ENDS
;	COMDAT ?DestructElements@@YGXPAPAVCXTPStatusBarPane@@H@Z
_TEXT	SEGMENT PARA USE32 PUBLIC 'CODE'
_TEXT	ENDS
;	COMDAT ?SerializeElements@@YGXAAVCArchive@@PAPAVCXTPStatusBarPane@@H@Z
_TEXT	SEGMENT PARA USE32 PUBLIC 'CODE'
_TEXT	ENDS
;	COMDAT ?SetSize@?$CArray@PAUSWITCH@CXTPStatusBarSwitchPane@@PAU12@@@QAEXHH@Z
_TEXT	SEGMENT PARA USE32 PUBLIC 'CODE'
_TEXT	ENDS
;	COMDAT ?DestructElements@@YGXPAPAUSWITCH@CXTPStatusBarSwitchPane@@H@Z
_TEXT	SEGMENT PARA USE32 PUBLIC 'CODE'
_TEXT	ENDS
;	COMDAT ?SerializeElements@@YGXAAVCArchive@@PAPAUSWITCH@CXTPStatusBarSwitchPane@@H@Z
_TEXT	SEGMENT PARA USE32 PUBLIC 'CODE'
_TEXT	ENDS
;	COMDAT ?SetSize@?$CArray@PAVCXTPMessageBarButton@@PAV1@@@QAEXHH@Z
_TEXT	SEGMENT PARA USE32 PUBLIC 'CODE'
_TEXT	ENDS
;	COMDAT ?DestructElements@@YGXPAPAVCXTPMessageBarButton@@H@Z
_TEXT	SEGMENT PARA USE32 PUBLIC 'CODE'
_TEXT	ENDS
;	COMDAT ?SerializeElements@@YGXAAVCArchive@@PAPAVCXTPMessageBarButton@@H@Z
_TEXT	SEGMENT PARA USE32 PUBLIC 'CODE'
_TEXT	ENDS
;	COMDAT ?SetSize@?$CArray@PAVCXTPCommandBarKeyboardTip@@PAV1@@@QAEXHH@Z
_TEXT	SEGMENT PARA USE32 PUBLIC 'CODE'
_TEXT	ENDS
;	COMDAT ?DestructElements@@YGXPAPAVCXTPCommandBarKeyboardTip@@H@Z
_TEXT	SEGMENT PARA USE32 PUBLIC 'CODE'
_TEXT	ENDS
;	COMDAT ?SerializeElements@@YGXAAVCArchive@@PAPAVCXTPCommandBarKeyboardTip@@H@Z
_TEXT	SEGMENT PARA USE32 PUBLIC 'CODE'
_TEXT	ENDS
;	COMDAT ?SetSize@?$CArray@PAVCXTPToolBar@@PAV1@@@QAEXHH@Z
_TEXT	SEGMENT PARA USE32 PUBLIC 'CODE'
_TEXT	ENDS
;	COMDAT ?DestructElements@@YGXPAPAVCXTPToolBar@@H@Z
_TEXT	SEGMENT PARA USE32 PUBLIC 'CODE'
_TEXT	ENDS
;	COMDAT ?SerializeElements@@YGXAAVCArchive@@PAPAVCXTPToolBar@@H@Z
_TEXT	SEGMENT PARA USE32 PUBLIC 'CODE'
_TEXT	ENDS
;	COMDAT ?SetSize@?$CArray@PAVCXTPShortcutManagerAccel@@PAV1@@@QAEXHH@Z
_TEXT	SEGMENT PARA USE32 PUBLIC 'CODE'
_TEXT	ENDS
;	COMDAT ?DestructElements@@YGXPAPAVCXTPShortcutManagerAccel@@H@Z
_TEXT	SEGMENT PARA USE32 PUBLIC 'CODE'
_TEXT	ENDS
;	COMDAT ?SerializeElements@@YGXAAVCArchive@@PAPAVCXTPShortcutManagerAccel@@H@Z
_TEXT	SEGMENT PARA USE32 PUBLIC 'CODE'
_TEXT	ENDS
;	COMDAT ?SetAt@?$CMap@GGVCString@@V1@@@QAEXGVCString@@@Z
_TEXT	SEGMENT PARA USE32 PUBLIC 'CODE'
_TEXT	ENDS
;	COMDAT ?RemoveAll@?$CMap@GGVCString@@V1@@@QAEXXZ
_TEXT	SEGMENT PARA USE32 PUBLIC 'CODE'
_TEXT	ENDS
;	COMDAT ?SerializeElements@@YGXAAVCArchive@@PAGH@Z
_TEXT	SEGMENT PARA USE32 PUBLIC 'CODE'
_TEXT	ENDS
;	COMDAT ?SetSize@?$CArray@PAVCFontDesc@CXTPControlFontComboBoxList@@PAV12@@@QAEXHH@Z
_TEXT	SEGMENT PARA USE32 PUBLIC 'CODE'
_TEXT	ENDS
;	COMDAT ?ElementAt@?$CArray@PAVCFontDesc@CXTPControlFontComboBoxList@@PAV12@@@QAEAAPAVCFontDesc@CXTPControlFontComboBoxList@@H@Z
_TEXT	SEGMENT PARA USE32 PUBLIC 'CODE'
_TEXT	ENDS
;	COMDAT ?DestructElements@@YGXPAPAVCFontDesc@CXTPControlFontComboBoxList@@H@Z
_TEXT	SEGMENT PARA USE32 PUBLIC 'CODE'
_TEXT	ENDS
;	COMDAT ?SerializeElements@@YGXAAVCArchive@@PAPAVCFontDesc@CXTPControlFontComboBoxList@@H@Z
_TEXT	SEGMENT PARA USE32 PUBLIC 'CODE'
_TEXT	ENDS
;	COMDAT ?SetSize@?$CArray@PAVCXTPControlGalleryItem@@PAV1@@@QAEXHH@Z
_TEXT	SEGMENT PARA USE32 PUBLIC 'CODE'
_TEXT	ENDS
;	COMDAT ?DestructElements@@YGXPAPAVCXTPControlGalleryItem@@H@Z
_TEXT	SEGMENT PARA USE32 PUBLIC 'CODE'
_TEXT	ENDS
;	COMDAT ?SerializeElements@@YGXAAVCArchive@@PAPAVCXTPControlGalleryItem@@H@Z
_TEXT	SEGMENT PARA USE32 PUBLIC 'CODE'
_TEXT	ENDS
;	COMDAT ?SetSize@?$CArray@UGALLERYITEM_POSITION@CXTPControlGallery@@AAU12@@@QAEXHH@Z
_TEXT	SEGMENT PARA USE32 PUBLIC 'CODE'
_TEXT	ENDS
;	COMDAT ?DestructElements@@YGXPAUGALLERYITEM_POSITION@CXTPControlGallery@@H@Z
_TEXT	SEGMENT PARA USE32 PUBLIC 'CODE'
_TEXT	ENDS
;	COMDAT ?SerializeElements@@YGXAAVCArchive@@PAUGALLERYITEM_POSITION@CXTPControlGallery@@H@Z
_TEXT	SEGMENT PARA USE32 PUBLIC 'CODE'
_TEXT	ENDS
;	COMDAT ?AddTail@?$CList@PAVCXTPHookManagerHookAble@@PAV1@@@QAEPAU__POSITION@@PAVCXTPHookManagerHookAble@@@Z
_TEXT	SEGMENT PARA USE32 PUBLIC 'CODE'
_TEXT	ENDS
;	COMDAT ?RemoveAll@?$CList@PAVCXTPHookManagerHookAble@@PAV1@@@QAEXXZ
_TEXT	SEGMENT PARA USE32 PUBLIC 'CODE'
_TEXT	ENDS
;	COMDAT ?SerializeElements@@YGXAAVCArchive@@PAPAVCXTPHookManagerHookAble@@H@Z
_TEXT	SEGMENT PARA USE32 PUBLIC 'CODE'
_TEXT	ENDS
;	COMDAT ?SetSize@?$CArray@PAVCWorkspace@CXTPTabClientWnd@@PAV12@@@QAEXHH@Z
_TEXT	SEGMENT PARA USE32 PUBLIC 'CODE'
_TEXT	ENDS
;	COMDAT ?DestructElements@@YGXPAPAVCWorkspace@CXTPTabClientWnd@@H@Z
_TEXT	SEGMENT PARA USE32 PUBLIC 'CODE'
_TEXT	ENDS
;	COMDAT ?SerializeElements@@YGXAAVCArchive@@PAPAVCWorkspace@CXTPTabClientWnd@@H@Z
_TEXT	SEGMENT PARA USE32 PUBLIC 'CODE'
_TEXT	ENDS
;	COMDAT ?AddTail@?$CList@PAVCAlphaBitmap@CXTPImageEditorPicture@@PAV12@@@QAEPAU__POSITION@@PAVCAlphaBitmap@CXTPImageEditorPicture@@@Z
_TEXT	SEGMENT PARA USE32 PUBLIC 'CODE'
_TEXT	ENDS
;	COMDAT ?RemoveAll@?$CList@PAVCAlphaBitmap@CXTPImageEditorPicture@@PAV12@@@QAEXXZ
_TEXT	SEGMENT PARA USE32 PUBLIC 'CODE'
_TEXT	ENDS
;	COMDAT ?SerializeElements@@YGXAAVCArchive@@PAPAVCAlphaBitmap@CXTPImageEditorPicture@@H@Z
_TEXT	SEGMENT PARA USE32 PUBLIC 'CODE'
_TEXT	ENDS
;	COMDAT ?SetSize@?$CArray@PAUXTP_COMMANDBARS_CATEGORYINFO@@PAU1@@@QAEXHH@Z
_TEXT	SEGMENT PARA USE32 PUBLIC 'CODE'
_TEXT	ENDS
;	COMDAT ?DestructElements@@YGXPAPAUXTP_COMMANDBARS_CATEGORYINFO@@H@Z
_TEXT	SEGMENT PARA USE32 PUBLIC 'CODE'
_TEXT	ENDS
;	COMDAT ?SerializeElements@@YGXAAVCArchive@@PAPAUXTP_COMMANDBARS_CATEGORYINFO@@H@Z
_TEXT	SEGMENT PARA USE32 PUBLIC 'CODE'
_TEXT	ENDS
;	COMDAT ?SetSize@?$CArray@PAVCXTPDockingPaneCaptionButton@@PAV1@@@QAEXHH@Z
_TEXT	SEGMENT PARA USE32 PUBLIC 'CODE'
_TEXT	ENDS
;	COMDAT ?DestructElements@@YGXPAPAVCXTPDockingPaneCaptionButton@@H@Z
_TEXT	SEGMENT PARA USE32 PUBLIC 'CODE'
_TEXT	ENDS
;	COMDAT ?SerializeElements@@YGXAAVCArchive@@PAPAVCXTPDockingPaneCaptionButton@@H@Z
_TEXT	SEGMENT PARA USE32 PUBLIC 'CODE'
_TEXT	ENDS
;	COMDAT ?RemoveAll@?$CList@PAVCXTPDockingPaneBase@@PAV1@@@QAEXXZ
_TEXT	SEGMENT PARA USE32 PUBLIC 'CODE'
_TEXT	ENDS
;	COMDAT ?NewNode@?$CList@PAVCXTPDockingPaneBase@@PAV1@@@IAEPAUCNode@1@PAU21@0@Z
_TEXT	SEGMENT PARA USE32 PUBLIC 'CODE'
_TEXT	ENDS
;	COMDAT ?SerializeElements@@YGXAAVCArchive@@PAPAVCXTPDockingPaneBase@@H@Z
_TEXT	SEGMENT PARA USE32 PUBLIC 'CODE'
_TEXT	ENDS
;	COMDAT ?SetSize@?$CArray@VCRect@@AAV1@@@QAEXHH@Z
_TEXT	SEGMENT PARA USE32 PUBLIC 'CODE'
_TEXT	ENDS
;	COMDAT ?DestructElements@@YGXPAVCRect@@H@Z
_TEXT	SEGMENT PARA USE32 PUBLIC 'CODE'
_TEXT	ENDS
;	COMDAT ?SerializeElements@@YGXAAVCArchive@@PAVCRect@@H@Z
_TEXT	SEGMENT PARA USE32 PUBLIC 'CODE'
_TEXT	ENDS
;	COMDAT ?AddTail@?$CList@UXTP_DOCKINGPANE_INFO@@AAU1@@@QAEPAU__POSITION@@AAUXTP_DOCKINGPANE_INFO@@@Z
_TEXT	SEGMENT PARA USE32 PUBLIC 'CODE'
_TEXT	ENDS
;	COMDAT ?RemoveAll@?$CList@UXTP_DOCKINGPANE_INFO@@AAU1@@@QAEXXZ
_TEXT	SEGMENT PARA USE32 PUBLIC 'CODE'
_TEXT	ENDS
;	COMDAT ?SerializeElements@@YGXAAVCArchive@@PAUXTP_DOCKINGPANE_INFO@@H@Z
_TEXT	SEGMENT PARA USE32 PUBLIC 'CODE'
_TEXT	ENDS
;	COMDAT ?AddTail@?$CList@PAVCXTPDockingPaneContextStickerWnd@@PAV1@@@QAEPAU__POSITION@@PAVCXTPDockingPaneContextStickerWnd@@@Z
_TEXT	SEGMENT PARA USE32 PUBLIC 'CODE'
_TEXT	ENDS
;	COMDAT ?RemoveAll@?$CList@PAVCXTPDockingPaneContextStickerWnd@@PAV1@@@QAEXXZ
_TEXT	SEGMENT PARA USE32 PUBLIC 'CODE'
_TEXT	ENDS
;	COMDAT ?SerializeElements@@YGXAAVCArchive@@PAPAVCXTPDockingPaneContextStickerWnd@@H@Z
_TEXT	SEGMENT PARA USE32 PUBLIC 'CODE'
_TEXT	ENDS
;	COMDAT ?SetAt@?$CMap@IIPAVCRgn@@PAV1@@@QAEXIPAVCRgn@@@Z
_TEXT	SEGMENT PARA USE32 PUBLIC 'CODE'
_TEXT	ENDS
;	COMDAT ?RemoveAll@?$CMap@IIPAVCRgn@@PAV1@@@QAEXXZ
_TEXT	SEGMENT PARA USE32 PUBLIC 'CODE'
_TEXT	ENDS
;	COMDAT ?SerializeElements@@YGXAAVCArchive@@PAPAVCRgn@@H@Z
_TEXT	SEGMENT PARA USE32 PUBLIC 'CODE'
_TEXT	ENDS
;	COMDAT ?AddTail@?$CList@PAVCXTPDockingPaneSplitterWnd@@PAV1@@@QAEPAU__POSITION@@PAVCXTPDockingPaneSplitterWnd@@@Z
_TEXT	SEGMENT PARA USE32 PUBLIC 'CODE'
_TEXT	ENDS
;	COMDAT ?RemoveAll@?$CList@PAVCXTPDockingPaneSplitterWnd@@PAV1@@@QAEXXZ
_TEXT	SEGMENT PARA USE32 PUBLIC 'CODE'
_TEXT	ENDS
;	COMDAT ?SerializeElements@@YGXAAVCArchive@@PAPAVCXTPDockingPaneSplitterWnd@@H@Z
_TEXT	SEGMENT PARA USE32 PUBLIC 'CODE'
_TEXT	ENDS
;	COMDAT ?SetSize@?$CArray@PAVCXTPPropertyGridInplaceControl@@PAV1@@@QAEXHH@Z
_TEXT	SEGMENT PARA USE32 PUBLIC 'CODE'
_TEXT	ENDS
;	COMDAT ?DestructElements@@YGXPAPAVCXTPPropertyGridInplaceControl@@H@Z
_TEXT	SEGMENT PARA USE32 PUBLIC 'CODE'
_TEXT	ENDS
;	COMDAT ?SerializeElements@@YGXAAVCArchive@@PAPAVCXTPPropertyGridInplaceControl@@H@Z
_TEXT	SEGMENT PARA USE32 PUBLIC 'CODE'
_TEXT	ENDS
;	COMDAT ?SetSize@?$CArray@PAVCXTPPropertyGridInplaceButton@@PAV1@@@QAEXHH@Z
_TEXT	SEGMENT PARA USE32 PUBLIC 'CODE'
_TEXT	ENDS
;	COMDAT ?DestructElements@@YGXPAPAVCXTPPropertyGridInplaceButton@@H@Z
_TEXT	SEGMENT PARA USE32 PUBLIC 'CODE'
_TEXT	ENDS
;	COMDAT ?SerializeElements@@YGXAAVCArchive@@PAPAVCXTPPropertyGridInplaceButton@@H@Z
_TEXT	SEGMENT PARA USE32 PUBLIC 'CODE'
_TEXT	ENDS
;	COMDAT ?SetSize@?$CArray@PAVCXTPPropertyGridItem@@PAV1@@@QAEXHH@Z
_TEXT	SEGMENT PARA USE32 PUBLIC 'CODE'
_TEXT	ENDS
;	COMDAT ?SetAtGrow@?$CArray@PAVCXTPPropertyGridItem@@PAV1@@@QAEXHPAVCXTPPropertyGridItem@@@Z
_TEXT	SEGMENT PARA USE32 PUBLIC 'CODE'
_TEXT	ENDS
;	COMDAT ?DestructElements@@YGXPAPAVCXTPPropertyGridItem@@H@Z
_TEXT	SEGMENT PARA USE32 PUBLIC 'CODE'
_TEXT	ENDS
;	COMDAT ?ConstructElements@@YGXPAPAVCXTPPropertyGridItem@@H@Z
_TEXT	SEGMENT PARA USE32 PUBLIC 'CODE'
_TEXT	ENDS
;	COMDAT ?SerializeElements@@YGXAAVCArchive@@PAPAVCXTPPropertyGridItem@@H@Z
_TEXT	SEGMENT PARA USE32 PUBLIC 'CODE'
_TEXT	ENDS
;	COMDAT ?SetSize@?$CArray@PAVCXTPPropertyGridItemConstraint@@PAV1@@@QAEXHH@Z
_TEXT	SEGMENT PARA USE32 PUBLIC 'CODE'
_TEXT	ENDS
;	COMDAT ?DestructElements@@YGXPAPAVCXTPPropertyGridItemConstraint@@H@Z
_TEXT	SEGMENT PARA USE32 PUBLIC 'CODE'
_TEXT	ENDS
;	COMDAT ?SerializeElements@@YGXAAVCArchive@@PAPAVCXTPPropertyGridItemConstraint@@H@Z
_TEXT	SEGMENT PARA USE32 PUBLIC 'CODE'
_TEXT	ENDS
;	COMDAT ?SetAt@?$CMap@IIHAAH@@QAEXIAAH@Z
_TEXT	SEGMENT PARA USE32 PUBLIC 'CODE'
_TEXT	ENDS
;	COMDAT ?RemoveAll@?$CMap@IIHAAH@@QAEXXZ
_TEXT	SEGMENT PARA USE32 PUBLIC 'CODE'
_TEXT	ENDS
;	COMDAT ?SetSize@?$CArray@PAVCXTPPropertyGridVerb@@PAV1@@@QAEXHH@Z
_TEXT	SEGMENT PARA USE32 PUBLIC 'CODE'
_TEXT	ENDS
;	COMDAT ?DestructElements@@YGXPAPAVCXTPPropertyGridVerb@@H@Z
_TEXT	SEGMENT PARA USE32 PUBLIC 'CODE'
_TEXT	ENDS
;	COMDAT ?SerializeElements@@YGXAAVCArchive@@PAPAVCXTPPropertyGridVerb@@H@Z
_TEXT	SEGMENT PARA USE32 PUBLIC 'CODE'
_TEXT	ENDS
;	COMDAT ?SetSize@?$CArray@PAVCXTPReportColumn@@PAV1@@@QAEXHH@Z
_TEXT	SEGMENT PARA USE32 PUBLIC 'CODE'
_TEXT	ENDS
;	COMDAT ?DestructElements@@YGXPAPAVCXTPReportColumn@@H@Z
_TEXT	SEGMENT PARA USE32 PUBLIC 'CODE'
_TEXT	ENDS
;	COMDAT ?SerializeElements@@YGXAAVCArchive@@PAPAVCXTPReportColumn@@H@Z
_TEXT	SEGMENT PARA USE32 PUBLIC 'CODE'
_TEXT	ENDS
;	COMDAT ?SetAtGrow@?$CArray@PAVCXTPReportRow@@PAV1@@@QAEXHPAVCXTPReportRow@@@Z
_TEXT	SEGMENT PARA USE32 PUBLIC 'CODE'
_TEXT	ENDS
;	COMDAT ?DestructElements@@YGXPAPAVCXTPReportRow@@H@Z
_TEXT	SEGMENT PARA USE32 PUBLIC 'CODE'
_TEXT	ENDS
;	COMDAT ?ConstructElements@@YGXPAPAVCXTPReportRow@@H@Z
_TEXT	SEGMENT PARA USE32 PUBLIC 'CODE'
_TEXT	ENDS
;	COMDAT ?SerializeElements@@YGXAAVCArchive@@PAPAVCXTPReportRow@@H@Z
_TEXT	SEGMENT PARA USE32 PUBLIC 'CODE'
_TEXT	ENDS
;	COMDAT ?SetSize@?$CArray@USELECTED_BLOCK@CXTPReportSelectedRows@@AAU12@@@QAEXHH@Z
_TEXT	SEGMENT PARA USE32 PUBLIC 'CODE'
_TEXT	ENDS
;	COMDAT ?DestructElements@@YGXPAUSELECTED_BLOCK@CXTPReportSelectedRows@@H@Z
_TEXT	SEGMENT PARA USE32 PUBLIC 'CODE'
_TEXT	ENDS
;	COMDAT ?SerializeElements@@YGXAAVCArchive@@PAUSELECTED_BLOCK@CXTPReportSelectedRows@@H@Z
_TEXT	SEGMENT PARA USE32 PUBLIC 'CODE'
_TEXT	ENDS
;	COMDAT ?SetAt@?$CMap@PAVCXTPReportColumn@@PAV1@VCRect@@V2@@@QAEXPAVCXTPReportColumn@@VCRect@@@Z
_TEXT	SEGMENT PARA USE32 PUBLIC 'CODE'
_TEXT	ENDS
;	COMDAT ?RemoveAll@?$CMap@PAVCXTPReportColumn@@PAV1@VCRect@@V2@@@QAEXXZ
_TEXT	SEGMENT PARA USE32 PUBLIC 'CODE'
_TEXT	ENDS
;	COMDAT ?SetSize@?$CArray@UXTP_TIMESPEC@CXTPReportControlLocale@@AAU12@@@QAEXHH@Z
_TEXT	SEGMENT PARA USE32 PUBLIC 'CODE'
_TEXT	ENDS
;	COMDAT ?DestructElements@@YGXPAUXTP_TIMESPEC@CXTPReportControlLocale@@H@Z
_TEXT	SEGMENT PARA USE32 PUBLIC 'CODE'
_TEXT	ENDS
;	COMDAT ?SerializeElements@@YGXAAVCArchive@@PAUXTP_TIMESPEC@CXTPReportControlLocale@@H@Z
_TEXT	SEGMENT PARA USE32 PUBLIC 'CODE'
_TEXT	ENDS
;	COMDAT ?GetSize@?$CArray@PAVCXTPReportHyperlink@@PAV1@@@QBEHXZ
_TEXT	SEGMENT PARA USE32 PUBLIC 'CODE'
_TEXT	ENDS
;	COMDAT ?SetSize@?$CArray@PAVCXTPReportHyperlink@@PAV1@@@QAEXHH@Z
_TEXT	SEGMENT PARA USE32 PUBLIC 'CODE'
_TEXT	ENDS
;	COMDAT ?RemoveAll@?$CArray@PAVCXTPReportHyperlink@@PAV1@@@QAEXXZ
_TEXT	SEGMENT PARA USE32 PUBLIC 'CODE'
_TEXT	ENDS
;	COMDAT ?GetAt@?$CArray@PAVCXTPReportHyperlink@@PAV1@@@QBEPAVCXTPReportHyperlink@@H@Z
_TEXT	SEGMENT PARA USE32 PUBLIC 'CODE'
_TEXT	ENDS
;	COMDAT ?SetAt@?$CArray@PAVCXTPReportHyperlink@@PAV1@@@QAEXHPAVCXTPReportHyperlink@@@Z
_TEXT	SEGMENT PARA USE32 PUBLIC 'CODE'
_TEXT	ENDS
;	COMDAT ?ElementAt@?$CArray@PAVCXTPReportHyperlink@@PAV1@@@QAEAAPAVCXTPReportHyperlink@@H@Z
_TEXT	SEGMENT PARA USE32 PUBLIC 'CODE'
_TEXT	ENDS
;	COMDAT ?GetData@?$CArray@PAVCXTPReportHyperlink@@PAV1@@@QAEPAPAVCXTPReportHyperlink@@XZ
_TEXT	SEGMENT PARA USE32 PUBLIC 'CODE'
_TEXT	ENDS
;	COMDAT ?GetData@?$CArray@PAVCXTPReportHyperlink@@PAV1@@@QBEPBQAVCXTPReportHyperlink@@XZ
_TEXT	SEGMENT PARA USE32 PUBLIC 'CODE'
_TEXT	ENDS
;	COMDAT ?SetAtGrow@?$CArray@PAVCXTPReportHyperlink@@PAV1@@@QAEXHPAVCXTPReportHyperlink@@@Z
_TEXT	SEGMENT PARA USE32 PUBLIC 'CODE'
_TEXT	ENDS
;	COMDAT ?Add@?$CArray@PAVCXTPReportHyperlink@@PAV1@@@QAEHPAVCXTPReportHyperlink@@@Z
_TEXT	SEGMENT PARA USE32 PUBLIC 'CODE'
_TEXT	ENDS
;	COMDAT ?Append@?$CArray@PAVCXTPReportHyperlink@@PAV1@@@QAEHABV1@@Z
_TEXT	SEGMENT PARA USE32 PUBLIC 'CODE'
_TEXT	ENDS
;	COMDAT ?Copy@?$CArray@PAVCXTPReportHyperlink@@PAV1@@@QAEXABV1@@Z
_TEXT	SEGMENT PARA USE32 PUBLIC 'CODE'
_TEXT	ENDS
;	COMDAT ?InsertAt@?$CArray@PAVCXTPReportHyperlink@@PAV1@@@QAEXHPAV1@@Z
_TEXT	SEGMENT PARA USE32 PUBLIC 'CODE'
_TEXT	ENDS
;	COMDAT ?InsertAt@?$CArray@PAVCXTPReportHyperlink@@PAV1@@@QAEXHPAVCXTPReportHyperlink@@H@Z
_TEXT	SEGMENT PARA USE32 PUBLIC 'CODE'
_TEXT	ENDS
;	COMDAT ?RemoveAt@?$CArray@PAVCXTPReportHyperlink@@PAV1@@@QAEXHH@Z
_TEXT	SEGMENT PARA USE32 PUBLIC 'CODE'
_TEXT	ENDS
;	COMDAT ?DestructElements@@YGXPAPAVCXTPReportHyperlink@@H@Z
_TEXT	SEGMENT PARA USE32 PUBLIC 'CODE'
_TEXT	ENDS
;	COMDAT ?SerializeElements@@YGXAAVCArchive@@PAPAVCXTPReportHyperlink@@H@Z
_TEXT	SEGMENT PARA USE32 PUBLIC 'CODE'
_TEXT	ENDS
;	COMDAT ?SetSize@?$CArray@PAVCXTPReportRecordItem@@PAV1@@@QAEXHH@Z
_TEXT	SEGMENT PARA USE32 PUBLIC 'CODE'
_TEXT	ENDS
;	COMDAT ?DestructElements@@YGXPAPAVCXTPReportRecordItem@@H@Z
_TEXT	SEGMENT PARA USE32 PUBLIC 'CODE'
_TEXT	ENDS
;	COMDAT ?SerializeElements@@YGXAAVCArchive@@PAPAVCXTPReportRecordItem@@H@Z
_TEXT	SEGMENT PARA USE32 PUBLIC 'CODE'
_TEXT	ENDS
;	COMDAT ?SetSize@?$CArray@PAVCXTPReportRecordItemConstraint@@PAV1@@@QAEXHH@Z
_TEXT	SEGMENT PARA USE32 PUBLIC 'CODE'
_TEXT	ENDS
;	COMDAT ?DestructElements@@YGXPAPAVCXTPReportRecordItemConstraint@@H@Z
_TEXT	SEGMENT PARA USE32 PUBLIC 'CODE'
_TEXT	ENDS
;	COMDAT ?SerializeElements@@YGXAAVCArchive@@PAPAVCXTPReportRecordItemConstraint@@H@Z
_TEXT	SEGMENT PARA USE32 PUBLIC 'CODE'
_TEXT	ENDS
;	COMDAT ?SetSize@?$CArray@PAVCXTPReportInplaceButton@@PAV1@@@QAEXHH@Z
_TEXT	SEGMENT PARA USE32 PUBLIC 'CODE'
_TEXT	ENDS
;	COMDAT ?DestructElements@@YGXPAPAVCXTPReportInplaceButton@@H@Z
_TEXT	SEGMENT PARA USE32 PUBLIC 'CODE'
_TEXT	ENDS
;	COMDAT ?SerializeElements@@YGXAAVCArchive@@PAPAVCXTPReportInplaceButton@@H@Z
_TEXT	SEGMENT PARA USE32 PUBLIC 'CODE'
_TEXT	ENDS
;	COMDAT ?SetSize@?$CArray@PAVCXTPReportRecord@@PAV1@@@QAEXHH@Z
_TEXT	SEGMENT PARA USE32 PUBLIC 'CODE'
_TEXT	ENDS
;	COMDAT ?DestructElements@@YGXPAPAVCXTPReportRecord@@H@Z
_TEXT	SEGMENT PARA USE32 PUBLIC 'CODE'
_TEXT	ENDS
;	COMDAT ?SerializeElements@@YGXAAVCArchive@@PAPAVCXTPReportRecord@@H@Z
_TEXT	SEGMENT PARA USE32 PUBLIC 'CODE'
_TEXT	ENDS
;	COMDAT ??A?$CMap@HHHH@@QAEAAHH@Z
_TEXT	SEGMENT PARA USE32 PUBLIC 'CODE'
_TEXT	ENDS
;	COMDAT ?RemoveAll@?$CMap@HHHH@@QAEXXZ
_TEXT	SEGMENT PARA USE32 PUBLIC 'CODE'
_TEXT	ENDS
;	COMDAT ?GetSize@?$CArray@PAVCXTPReportRecordItemControl@@PAV1@@@QBEHXZ
_TEXT	SEGMENT PARA USE32 PUBLIC 'CODE'
_TEXT	ENDS
;	COMDAT ?SetSize@?$CArray@PAVCXTPReportRecordItemControl@@PAV1@@@QAEXHH@Z
_TEXT	SEGMENT PARA USE32 PUBLIC 'CODE'
_TEXT	ENDS
;	COMDAT ?RemoveAll@?$CArray@PAVCXTPReportRecordItemControl@@PAV1@@@QAEXXZ
_TEXT	SEGMENT PARA USE32 PUBLIC 'CODE'
_TEXT	ENDS
;	COMDAT ?GetAt@?$CArray@PAVCXTPReportRecordItemControl@@PAV1@@@QBEPAVCXTPReportRecordItemControl@@H@Z
_TEXT	SEGMENT PARA USE32 PUBLIC 'CODE'
_TEXT	ENDS
;	COMDAT ?SetAt@?$CArray@PAVCXTPReportRecordItemControl@@PAV1@@@QAEXHPAVCXTPReportRecordItemControl@@@Z
_TEXT	SEGMENT PARA USE32 PUBLIC 'CODE'
_TEXT	ENDS
;	COMDAT ?ElementAt@?$CArray@PAVCXTPReportRecordItemControl@@PAV1@@@QAEAAPAVCXTPReportRecordItemControl@@H@Z
_TEXT	SEGMENT PARA USE32 PUBLIC 'CODE'
_TEXT	ENDS
;	COMDAT ?GetData@?$CArray@PAVCXTPReportRecordItemControl@@PAV1@@@QAEPAPAVCXTPReportRecordItemControl@@XZ
_TEXT	SEGMENT PARA USE32 PUBLIC 'CODE'
_TEXT	ENDS
;	COMDAT ?GetData@?$CArray@PAVCXTPReportRecordItemControl@@PAV1@@@QBEPBQAVCXTPReportRecordItemControl@@XZ
_TEXT	SEGMENT PARA USE32 PUBLIC 'CODE'
_TEXT	ENDS
;	COMDAT ?SetAtGrow@?$CArray@PAVCXTPReportRecordItemControl@@PAV1@@@QAEXHPAVCXTPReportRecordItemControl@@@Z
_TEXT	SEGMENT PARA USE32 PUBLIC 'CODE'
_TEXT	ENDS
;	COMDAT ?Add@?$CArray@PAVCXTPReportRecordItemControl@@PAV1@@@QAEHPAVCXTPReportRecordItemControl@@@Z
_TEXT	SEGMENT PARA USE32 PUBLIC 'CODE'
_TEXT	ENDS
;	COMDAT ?Append@?$CArray@PAVCXTPReportRecordItemControl@@PAV1@@@QAEHABV1@@Z
_TEXT	SEGMENT PARA USE32 PUBLIC 'CODE'
_TEXT	ENDS
;	COMDAT ?Copy@?$CArray@PAVCXTPReportRecordItemControl@@PAV1@@@QAEXABV1@@Z
_TEXT	SEGMENT PARA USE32 PUBLIC 'CODE'
_TEXT	ENDS
;	COMDAT ?InsertAt@?$CArray@PAVCXTPReportRecordItemControl@@PAV1@@@QAEXHPAV1@@Z
_TEXT	SEGMENT PARA USE32 PUBLIC 'CODE'
_TEXT	ENDS
;	COMDAT ?InsertAt@?$CArray@PAVCXTPReportRecordItemControl@@PAV1@@@QAEXHPAVCXTPReportRecordItemControl@@H@Z
_TEXT	SEGMENT PARA USE32 PUBLIC 'CODE'
_TEXT	ENDS
;	COMDAT ?RemoveAt@?$CArray@PAVCXTPReportRecordItemControl@@PAV1@@@QAEXHH@Z
_TEXT	SEGMENT PARA USE32 PUBLIC 'CODE'
_TEXT	ENDS
;	COMDAT ?DestructElements@@YGXPAPAVCXTPReportRecordItemControl@@H@Z
_TEXT	SEGMENT PARA USE32 PUBLIC 'CODE'
_TEXT	ENDS
;	COMDAT ?SerializeElements@@YGXAAVCArchive@@PAPAVCXTPReportRecordItemControl@@H@Z
_TEXT	SEGMENT PARA USE32 PUBLIC 'CODE'
_TEXT	ENDS
;	COMDAT ?SetSize@?$CArray@W4EventReasonEnum@XTPREPORTADODB@@AAW412@@@QAEXHH@Z
_TEXT	SEGMENT PARA USE32 PUBLIC 'CODE'
_TEXT	ENDS
;	COMDAT ?DestructElements@@YGXPAW4EventReasonEnum@XTPREPORTADODB@@H@Z
_TEXT	SEGMENT PARA USE32 PUBLIC 'CODE'
_TEXT	ENDS
;	COMDAT ?SerializeElements@@YGXAAVCArchive@@PAW4EventReasonEnum@XTPREPORTADODB@@H@Z
_TEXT	SEGMENT PARA USE32 PUBLIC 'CODE'
_TEXT	ENDS
;	COMDAT ?SetSize@?$CArray@PAUXTP_REPORTDATAMANAGER_COM_ERROR@@PAU1@@@QAEXHH@Z
_TEXT	SEGMENT PARA USE32 PUBLIC 'CODE'
_TEXT	ENDS
;	COMDAT ?DestructElements@@YGXPAPAUXTP_REPORTDATAMANAGER_COM_ERROR@@H@Z
_TEXT	SEGMENT PARA USE32 PUBLIC 'CODE'
_TEXT	ENDS
;	COMDAT ?SerializeElements@@YGXAAVCArchive@@PAPAUXTP_REPORTDATAMANAGER_COM_ERROR@@H@Z
_TEXT	SEGMENT PARA USE32 PUBLIC 'CODE'
_TEXT	ENDS
;	COMDAT ?SetSize@?$CArray@PAVCXTPTrackMarker@@PAV1@@@QAEXHH@Z
_TEXT	SEGMENT PARA USE32 PUBLIC 'CODE'
_TEXT	ENDS
;	COMDAT ?DestructElements@@YGXPAPAVCXTPTrackMarker@@H@Z
_TEXT	SEGMENT PARA USE32 PUBLIC 'CODE'
_TEXT	ENDS
;	COMDAT ?SerializeElements@@YGXAAVCArchive@@PAPAVCXTPTrackMarker@@H@Z
_TEXT	SEGMENT PARA USE32 PUBLIC 'CODE'
_TEXT	ENDS
;	COMDAT ?SetSize@?$CArray@PAVCXTPTrackBlock@@PAV1@@@QAEXHH@Z
_TEXT	SEGMENT PARA USE32 PUBLIC 'CODE'
_TEXT	ENDS
;	COMDAT ?GetAt@?$CArray@PAVCXTPTrackBlock@@PAV1@@@QBEPAVCXTPTrackBlock@@H@Z
_TEXT	SEGMENT PARA USE32 PUBLIC 'CODE'
_TEXT	ENDS
;	COMDAT ?DestructElements@@YGXPAPAVCXTPTrackBlock@@H@Z
_TEXT	SEGMENT PARA USE32 PUBLIC 'CODE'
_TEXT	ENDS
;	COMDAT ?SerializeElements@@YGXAAVCArchive@@PAPAVCXTPTrackBlock@@H@Z
_TEXT	SEGMENT PARA USE32 PUBLIC 'CODE'
_TEXT	ENDS
;	COMDAT ?SetSize@?$CArray@UDRAGBLOCK@CXTPTrackControl@@AAU12@@@QAEXHH@Z
_TEXT	SEGMENT PARA USE32 PUBLIC 'CODE'
_TEXT	ENDS
;	COMDAT ?DestructElements@@YGXPAUDRAGBLOCK@CXTPTrackControl@@H@Z
_TEXT	SEGMENT PARA USE32 PUBLIC 'CODE'
_TEXT	ENDS
;	COMDAT ?SerializeElements@@YGXAAVCArchive@@PAUDRAGBLOCK@CXTPTrackControl@@H@Z
_TEXT	SEGMENT PARA USE32 PUBLIC 'CODE'
_TEXT	ENDS
;	COMDAT ?SetSize@?$CArray@PAVCXTPTrackUndoCommand@@PAV1@@@QAEXHH@Z
_TEXT	SEGMENT PARA USE32 PUBLIC 'CODE'
_TEXT	ENDS
;	COMDAT ?DestructElements@@YGXPAPAVCXTPTrackUndoCommand@@H@Z
_TEXT	SEGMENT PARA USE32 PUBLIC 'CODE'
_TEXT	ENDS
;	COMDAT ?SerializeElements@@YGXAAVCArchive@@PAPAVCXTPTrackUndoCommand@@H@Z
_TEXT	SEGMENT PARA USE32 PUBLIC 'CODE'
_TEXT	ENDS
;	COMDAT ?SetAt@?$CMap@JJUXTPDayInfo@CXTPDayInfoCache@CXTPCalendarController@@AAU123@@@QAEXJAAUXTPDayInfo@CXTPDayInfoCache@CXTPCalendarController@@@Z
_TEXT	SEGMENT PARA USE32 PUBLIC 'CODE'
_TEXT	ENDS
;	COMDAT ?RemoveAll@?$CMap@JJUXTPDayInfo@CXTPDayInfoCache@CXTPCalendarController@@AAU123@@@QAEXXZ
_TEXT	SEGMENT PARA USE32 PUBLIC 'CODE'
_TEXT	ENDS
;	COMDAT ?SerializeElements@@YGXAAVCArchive@@PAJH@Z
_TEXT	SEGMENT PARA USE32 PUBLIC 'CODE'
_TEXT	ENDS
;	COMDAT ?SerializeElements@@YGXAAVCArchive@@PAUXTPDayInfo@CXTPDayInfoCache@CXTPCalendarController@@H@Z
_TEXT	SEGMENT PARA USE32 PUBLIC 'CODE'
_TEXT	ENDS
;	COMDAT ?SetAt@?$CMap@JJII@@QAEXJI@Z
_TEXT	SEGMENT PARA USE32 PUBLIC 'CODE'
_TEXT	ENDS
;	COMDAT ?RemoveAll@?$CMap@JJII@@QAEXXZ
_TEXT	SEGMENT PARA USE32 PUBLIC 'CODE'
_TEXT	ENDS
;	COMDAT ?SetAt@?$CMap@IIPAVCXTPDayInfoCache@CXTPCalendarController@@PAV12@@@QAEXIPAVCXTPDayInfoCache@CXTPCalendarController@@@Z
_TEXT	SEGMENT PARA USE32 PUBLIC 'CODE'
_TEXT	ENDS
;	COMDAT ?RemoveAll@?$CMap@IIPAVCXTPDayInfoCache@CXTPCalendarController@@PAV12@@@QAEXXZ
_TEXT	SEGMENT PARA USE32 PUBLIC 'CODE'
_TEXT	ENDS
;	COMDAT ?SerializeElements@@YGXAAVCArchive@@PAPAVCXTPDayInfoCache@CXTPCalendarController@@H@Z
_TEXT	SEGMENT PARA USE32 PUBLIC 'CODE'
_TEXT	ENDS
;	COMDAT ?SetAt@?$CMap@HHII@@QAEXHI@Z
_TEXT	SEGMENT PARA USE32 PUBLIC 'CODE'
_TEXT	ENDS
;	COMDAT ?RemoveAll@?$CMap@HHII@@QAEXXZ
_TEXT	SEGMENT PARA USE32 PUBLIC 'CODE'
_TEXT	ENDS
;	COMDAT ?SetSize@?$CArray@PAVCXTPDatePickerButton@@PAV1@@@QAEXHH@Z
_TEXT	SEGMENT PARA USE32 PUBLIC 'CODE'
_TEXT	ENDS
;	COMDAT ?GetAt@?$CArray@PAVCXTPDatePickerButton@@PAV1@@@QBEPAVCXTPDatePickerButton@@H@Z
_TEXT	SEGMENT PARA USE32 PUBLIC 'CODE'
_TEXT	ENDS
;	COMDAT ?DestructElements@@YGXPAPAVCXTPDatePickerButton@@H@Z
_TEXT	SEGMENT PARA USE32 PUBLIC 'CODE'
_TEXT	ENDS
;	COMDAT ?SerializeElements@@YGXAAVCArchive@@PAPAVCXTPDatePickerButton@@H@Z
_TEXT	SEGMENT PARA USE32 PUBLIC 'CODE'
_TEXT	ENDS
